
bin/kernel.exe:     file format pei-i386


Disassembly of section .debug_info:

00000000 <.debug_info>:
       0:	6f                   	outs   dx,DWORD PTR ds:[esi]
       1:	07                   	pop    es
       2:	00 00                	add    BYTE PTR [eax],al
       4:	04 00                	add    al,0x0
       6:	00 00                	add    BYTE PTR [eax],al
       8:	00 00                	add    BYTE PTR [eax],al
       a:	04 01                	add    al,0x1
       c:	47                   	inc    edi
       d:	4e                   	dec    esi
       e:	55                   	push   ebp
       f:	20 43 39             	and    BYTE PTR [ebx+0x39],al
      12:	39 20                	cmp    DWORD PTR [eax],esp
      14:	39 2e                	cmp    DWORD PTR [esi],ebp
      16:	33 2d 77 69 6e 33    	xor    ebp,DWORD PTR ds:0x336e6977
      1c:	32 20                	xor    ah,BYTE PTR [eax]
      1e:	32 30                	xor    dh,BYTE PTR [eax]
      20:	32 30                	xor    dh,BYTE PTR [eax]
      22:	30 33                	xor    BYTE PTR [ebx],dh
      24:	32 30                	xor    dh,BYTE PTR [eax]
      26:	20 2d 6d 33 32 20    	and    BYTE PTR ds:0x2032336d,ch
      2c:	2d 6d 74 75 6e       	sub    eax,0x6e75746d
      31:	65 3d 67 65 6e 65    	gs cmp eax,0x656e6567
      37:	72 69                	jb     a2 <.debug_aranges+0x2>
      39:	63 20                	arpl   WORD PTR [eax],sp
      3b:	2d 6d 61 72 63       	sub    eax,0x6372616d
      40:	68 3d 78 38 36       	push   0x3638783d
      45:	2d 36 34 20 2d       	sub    eax,0x2d203436
      4a:	67 20 2d             	and    BYTE PTR [di],ch
      4d:	67 67 64 62 20       	addr16 bound esp,QWORD PTR fs:[bx+si]
      52:	2d 73 74 64 3d       	sub    eax,0x3d647473
      57:	67 6e                	outs   dx,BYTE PTR ds:[si]
      59:	75 39                	jne    94 <.debug_aranges+0x14>
      5b:	39 20                	cmp    DWORD PTR [eax],esp
      5d:	2d 66 6f 6d 69       	sub    eax,0x696d6f66
      62:	74 2d                	je     91 <.debug_aranges+0x11>
      64:	66 72 61             	data16 jb c8 <.debug_aranges+0x8>
      67:	6d                   	ins    DWORD PTR es:[edi],dx
      68:	65 2d 70 6f 69 6e    	gs sub eax,0x6e696f70
      6e:	74 65                	je     d5 <.debug_aranges+0x15>
      70:	72 20                	jb     92 <.debug_aranges+0x12>
      72:	2d 66 69 6e 6c       	sub    eax,0x6c6e6966
      77:	69 6e 65 2d 66 75 6e 	imul   ebp,DWORD PTR [esi+0x65],0x6e75662d
      7e:	63 74 69 6f          	arpl   WORD PTR [ecx+ebp*2+0x6f],si
      82:	6e                   	outs   dx,BYTE PTR ds:[esi]
      83:	73 20                	jae    a5 <.debug_aranges+0x5>
      85:	2d 66 66 72 65       	sub    eax,0x65726666
      8a:	65 73 74             	gs jae 101 <.debug_aranges+0x1>
      8d:	61                   	popa   
      8e:	6e                   	outs   dx,BYTE PTR ds:[esi]
      8f:	64 69 6e 67 00 0c 73 	imul   ebp,DWORD PTR fs:[esi+0x67],0x72730c00
      96:	72 
      97:	63 2f                	arpl   WORD PTR [edi],bp
      99:	6b 65 72 6e          	imul   esp,DWORD PTR [ebp+0x72],0x6e
      9d:	65 6c                	gs ins BYTE PTR es:[edi],dx
      9f:	2f                   	das    
      a0:	6b 65 72 6e          	imul   esp,DWORD PTR [ebp+0x72],0x6e
      a4:	65 6c                	gs ins BYTE PTR es:[edi],dx
      a6:	2e 63 00             	arpl   WORD PTR cs:[eax],ax
      a9:	2f                   	das    
      aa:	6d                   	ins    DWORD PTR es:[edi],dx
      ab:	6e                   	outs   dx,BYTE PTR ds:[esi]
      ac:	74 2f                	je     dd <.debug_abbrev+0x7>
      ae:	63 2f                	arpl   WORD PTR [edi],bp
      b0:	70 72                	jo     124 <.debug_aranges+0x4>
      b2:	6f                   	outs   dx,DWORD PTR ds:[esi]
      b3:	6a 65                	push   0x65
      b5:	63 74 73 2f          	arpl   WORD PTR [ebx+esi*2+0x2f],si
      b9:	6c                   	ins    BYTE PTR es:[edi],dx
      ba:	69 6e 75 78 2f 6f 73 	imul   ebp,DWORD PTR [esi+0x75],0x736f2f78
      c1:	00 30                	add    BYTE PTR [eax],dh
      c3:	02 10                	add    dl,BYTE PTR [eax]
      c5:	00 03                	add    BYTE PTR [ebx],al
      c7:	01 00                	add    DWORD PTR [eax],eax
      c9:	00 00                	add    BYTE PTR [eax],al
      cb:	00 00                	add    BYTE PTR [eax],al
      cd:	00 02                	add    BYTE PTR [edx],al
      cf:	04 07                	add    al,0x7
      d1:	75 6e                	jne    141 <.debug_aranges+0x1>
      d3:	73 69                	jae    13e <.debug_aranges+0x1e>
      d5:	67 6e                	outs   dx,BYTE PTR ds:[si]
      d7:	65 64 20 69 6e       	gs and BYTE PTR fs:[ecx+0x6e],ch
      dc:	74 00                	je     de <.debug_abbrev+0x8>
      de:	02 01                	add    al,BYTE PTR [ecx]
      e0:	06                   	push   es
      e1:	63 68 61             	arpl   WORD PTR [eax+0x61],bp
      e4:	72 00                	jb     e6 <.debug_aranges+0x6>
      e6:	02 04 05 69 6e 74 00 	add    al,BYTE PTR [eax*1+0x746e69]
      ed:	02 02                	add    al,BYTE PTR [edx]
      ef:	07                   	pop    es
      f0:	73 68                	jae    15a <.debug_aranges+0x1a>
      f2:	6f                   	outs   dx,DWORD PTR ds:[esi]
      f3:	72 74                	jb     169 <.debug_aranges+0x29>
      f5:	20 75 6e             	and    BYTE PTR [ebp+0x6e],dh
      f8:	73 69                	jae    163 <.debug_aranges+0x23>
      fa:	67 6e                	outs   dx,BYTE PTR ds:[si]
      fc:	65 64 20 69 6e       	gs and BYTE PTR fs:[ecx+0x6e],ch
     101:	74 00                	je     103 <.debug_aranges+0x3>
     103:	02 04 05 6c 6f 6e 67 	add    al,BYTE PTR [eax*1+0x676e6f6c]
     10a:	20 69 6e             	and    BYTE PTR [ecx+0x6e],ch
     10d:	74 00                	je     10f <.debug_aranges+0xf>
     10f:	02 08                	add    cl,BYTE PTR [eax]
     111:	05 6c 6f 6e 67       	add    eax,0x676e6f6c
     116:	20 6c 6f 6e          	and    BYTE PTR [edi+ebp*2+0x6e],ch
     11a:	67 20 69 6e          	and    BYTE PTR [bx+di+0x6e],ch
     11e:	74 00                	je     120 <.debug_aranges>
     120:	02 04 07             	add    al,BYTE PTR [edi+eax*1]
     123:	6c                   	ins    BYTE PTR es:[edi],dx
     124:	6f                   	outs   dx,DWORD PTR ds:[esi]
     125:	6e                   	outs   dx,BYTE PTR ds:[esi]
     126:	67 20 75 6e          	and    BYTE PTR [di+0x6e],dh
     12a:	73 69                	jae    195 <.debug_frame+0x11>
     12c:	67 6e                	outs   dx,BYTE PTR ds:[si]
     12e:	65 64 20 69 6e       	gs and BYTE PTR fs:[ecx+0x6e],ch
     133:	74 00                	je     135 <.debug_aranges+0x15>
     135:	02 01                	add    al,BYTE PTR [ecx]
     137:	08 75 6e             	or     BYTE PTR [ebp+0x6e],dh
     13a:	73 69                	jae    1a5 <.debug_frame+0x21>
     13c:	67 6e                	outs   dx,BYTE PTR ds:[si]
     13e:	65 64 20 63 68       	gs and BYTE PTR fs:[ebx+0x68],ah
     143:	61                   	popa   
     144:	72 00                	jb     146 <.debug_aranges+0x6>
     146:	02 01                	add    al,BYTE PTR [ecx]
     148:	06                   	push   es
     149:	73 69                	jae    1b4 <.debug_frame+0x30>
     14b:	67 6e                	outs   dx,BYTE PTR ds:[si]
     14d:	65 64 20 63 68       	gs and BYTE PTR fs:[ebx+0x68],ah
     152:	61                   	popa   
     153:	72 00                	jb     155 <.debug_aranges+0x15>
     155:	02 02                	add    al,BYTE PTR [edx]
     157:	05 73 68 6f 72       	add    eax,0x726f6873
     15c:	74 20                	je     17e <.debug_aranges+0x3e>
     15e:	69 6e 74 00 03 75 69 	imul   ebp,DWORD PTR [esi+0x74],0x69750300
     165:	6e                   	outs   dx,BYTE PTR ds:[esi]
     166:	74 38                	je     1a0 <.debug_frame+0x1c>
     168:	5f                   	pop    edi
     169:	74 00                	je     16b <.debug_aranges+0x2b>
     16b:	02 2e                	add    ch,BYTE PTR [esi]
     16d:	18 35 01 00 00 03    	sbb    BYTE PTR ds:0x3000001,dh
     173:	75 69                	jne    1de <.debug_frame+0x6>
     175:	6e                   	outs   dx,BYTE PTR ds:[esi]
     176:	74 31                	je     1a9 <.debug_frame+0x25>
     178:	36 5f                	ss pop edi
     17a:	74 00                	je     17c <.debug_aranges+0x3c>
     17c:	02 31                	add    dh,BYTE PTR [ecx]
     17e:	19 ed                	sbb    ebp,ebp
     180:	00 00                	add    BYTE PTR [eax],al
     182:	00 03                	add    BYTE PTR [ebx],al
     184:	75 69                	jne    1ef <.debug_frame+0x17>
     186:	6e                   	outs   dx,BYTE PTR ds:[esi]
     187:	74 33                	je     1bc <.debug_frame+0x38>
     189:	32 5f 74             	xor    bl,BYTE PTR [edi+0x74]
     18c:	00 02                	add    BYTE PTR [edx],al
     18e:	34 19                	xor    al,0x19
     190:	ce                   	into   
     191:	00 00                	add    BYTE PTR [eax],al
     193:	00 02                	add    BYTE PTR [edx],al
     195:	08 07                	or     BYTE PTR [edi],al
     197:	6c                   	ins    BYTE PTR es:[edi],dx
     198:	6f                   	outs   dx,DWORD PTR ds:[esi]
     199:	6e                   	outs   dx,BYTE PTR ds:[esi]
     19a:	67 20 6c 6f          	and    BYTE PTR [si+0x6f],ch
     19e:	6e                   	outs   dx,BYTE PTR ds:[esi]
     19f:	67 20 75 6e          	and    BYTE PTR [di+0x6e],dh
     1a3:	73 69                	jae    20e <__file_alignment__+0xe>
     1a5:	67 6e                	outs   dx,BYTE PTR ds:[si]
     1a7:	65 64 20 69 6e       	gs and BYTE PTR fs:[ecx+0x6e],ch
     1ac:	74 00                	je     1ae <.debug_frame+0x2a>
     1ae:	04 67                	add    al,0x67
     1b0:	64 74 5f             	fs je  212 <__file_alignment__+0x12>
     1b3:	65 6e                	outs   dx,BYTE PTR gs:[esi]
     1b5:	74 72                	je     229 <__file_alignment__+0x29>
     1b7:	79 00                	jns    1b9 <.debug_frame+0x35>
     1b9:	08 03                	or     BYTE PTR [ebx],al
     1bb:	07                   	pop    es
     1bc:	10 34 02             	adc    BYTE PTR [edx+eax*1],dh
     1bf:	00 00                	add    BYTE PTR [eax],al
     1c1:	05 6c 69 6d 69       	add    eax,0x696d696c
     1c6:	74 5f                	je     227 <__file_alignment__+0x27>
     1c8:	6c                   	ins    BYTE PTR es:[edi],dx
     1c9:	6f                   	outs   dx,DWORD PTR ds:[esi]
     1ca:	77 00                	ja     1cc <.debug_frame+0x48>
     1cc:	03 09                	add    ecx,DWORD PTR [ecx]
     1ce:	0e                   	push   cs
     1cf:	72 01                	jb     1d2 <.debug_frame+0x4e>
     1d1:	00 00                	add    BYTE PTR [eax],al
     1d3:	00 05 62 61 73 65    	add    BYTE PTR ds:0x65736162,al
     1d9:	5f                   	pop    edi
     1da:	6c                   	ins    BYTE PTR es:[edi],dx
     1db:	6f                   	outs   dx,DWORD PTR ds:[esi]
     1dc:	77 00                	ja     1de <.debug_frame+0x6>
     1de:	03 0a                	add    ecx,DWORD PTR [edx]
     1e0:	0e                   	push   cs
     1e1:	72 01                	jb     1e4 <.debug_frame+0xc>
     1e3:	00 00                	add    BYTE PTR [eax],al
     1e5:	02 05 62 61 73 65    	add    al,BYTE PTR ds:0x65736162
     1eb:	5f                   	pop    edi
     1ec:	6d                   	ins    DWORD PTR es:[edi],dx
     1ed:	69 64 64 6c 65 00 03 	imul   esp,DWORD PTR [esp+eiz*2+0x6c],0xb030065
     1f4:	0b 
     1f5:	0e                   	push   cs
     1f6:	62 01                	bound  eax,QWORD PTR [ecx]
     1f8:	00 00                	add    BYTE PTR [eax],al
     1fa:	04 05                	add    al,0x5
     1fc:	61                   	popa   
     1fd:	63 63 65             	arpl   WORD PTR [ebx+0x65],sp
     200:	73 73                	jae    275 <.debug_abbrev+0x43>
     202:	00 03                	add    BYTE PTR [ebx],al
     204:	0c 0e                	or     al,0xe
     206:	62 01                	bound  eax,QWORD PTR [ecx]
     208:	00 00                	add    BYTE PTR [eax],al
     20a:	05 05 67 72 61       	add    eax,0x61726705
     20f:	6e                   	outs   dx,BYTE PTR ds:[esi]
     210:	75 6c                	jne    27e <.debug_abbrev+0x4c>
     212:	61                   	popa   
     213:	72 69                	jb     27e <.debug_abbrev+0x4c>
     215:	74 79                	je     290 <.debug_abbrev+0x5e>
     217:	00 03                	add    BYTE PTR [ebx],al
     219:	0d 0e 62 01 00       	or     eax,0x1620e
     21e:	00 06                	add    BYTE PTR [esi],al
     220:	05 62 61 73 65       	add    eax,0x65736162
     225:	5f                   	pop    edi
     226:	68 69 67 68 00       	push   0x686769
     22b:	03 0e                	add    ecx,DWORD PTR [esi]
     22d:	0e                   	push   cs
     22e:	62 01                	bound  eax,QWORD PTR [ecx]
     230:	00 00                	add    BYTE PTR [eax],al
     232:	07                   	pop    es
     233:	00 03                	add    BYTE PTR [ebx],al
     235:	67 64 74 5f          	addr16 fs je 298 <.debug_abbrev+0x66>
     239:	65 6e                	outs   dx,BYTE PTR gs:[esi]
     23b:	74 72                	je     2af <.debug_abbrev+0x7d>
     23d:	79 5f                	jns    29e <.debug_abbrev+0x6c>
     23f:	74 00                	je     241 <.debug_abbrev+0xf>
     241:	03 0f                	add    ecx,DWORD PTR [edi]
     243:	1b ae 01 00 00 04    	sbb    ebp,DWORD PTR [esi+0x4000001]
     249:	67 64 74 5f          	addr16 fs je 2ac <.debug_abbrev+0x7a>
     24d:	70 74                	jo     2c3 <.debug_abbrev+0x91>
     24f:	72 00                	jb     251 <.debug_abbrev+0x1f>
     251:	06                   	push   es
     252:	03 11                	add    edx,DWORD PTR [ecx]
     254:	10 77 02             	adc    BYTE PTR [edi+0x2],dh
     257:	00 00                	add    BYTE PTR [eax],al
     259:	05 6c 69 6d 69       	add    eax,0x696d696c
     25e:	74 00                	je     260 <.debug_abbrev+0x2e>
     260:	03 13                	add    edx,DWORD PTR [ebx]
     262:	0e                   	push   cs
     263:	72 01                	jb     266 <.debug_abbrev+0x34>
     265:	00 00                	add    BYTE PTR [eax],al
     267:	00 05 62 61 73 65    	add    BYTE PTR ds:0x65736162,al
     26d:	00 03                	add    BYTE PTR [ebx],al
     26f:	14 0e                	adc    al,0xe
     271:	83 01 00             	add    DWORD PTR [ecx],0x0
     274:	00 02                	add    BYTE PTR [edx],al
     276:	00 03                	add    BYTE PTR [ebx],al
     278:	67 64 74 5f          	addr16 fs je 2db <.debug_abbrev+0x3>
     27c:	70 74                	jo     2f2 <.debug_line+0x10>
     27e:	72 5f                	jb     2df <.debug_abbrev+0x7>
     280:	74 00                	je     282 <.debug_abbrev+0x50>
     282:	03 15 1b 48 02 00    	add    edx,DWORD PTR ds:0x2481b
     288:	00 06                	add    BYTE PTR [esi],al
     28a:	34 02                	xor    al,0x2
     28c:	00 00                	add    BYTE PTR [eax],al
     28e:	99                   	cdq    
     28f:	02 00                	add    al,BYTE PTR [eax]
     291:	00 07                	add    BYTE PTR [edi],al
     293:	ce                   	into   
     294:	00 00                	add    BYTE PTR [eax],al
     296:	00 07                	add    BYTE PTR [edi],al
     298:	00 08                	add    BYTE PTR [eax],cl
     29a:	67 64 74 5f          	addr16 fs je 2fd <.debug_line+0x1b>
     29e:	65 6e                	outs   dx,BYTE PTR gs:[esi]
     2a0:	74 72                	je     314 <.debug_line+0x32>
     2a2:	69 65 73 00 03 19 14 	imul   esp,DWORD PTR [ebp+0x73],0x14190300
     2a9:	89 02                	mov    DWORD PTR [edx],eax
     2ab:	00 00                	add    BYTE PTR [eax],al
     2ad:	08 67 64             	or     BYTE PTR [edi+0x64],ah
     2b0:	74 5f                	je     311 <.debug_line+0x2f>
     2b2:	70 74                	jo     328 <.debug_frame+0x4>
     2b4:	72 00                	jb     2b6 <.debug_abbrev+0x84>
     2b6:	03 1a                	add    ebx,DWORD PTR [edx]
     2b8:	14 77                	adc    al,0x77
     2ba:	02 00                	add    al,BYTE PTR [eax]
     2bc:	00 04 69             	add    BYTE PTR [ecx+ebp*2],al
     2bf:	64 74 5f             	fs je  321 <.debug_line+0x3f>
     2c2:	65 6e                	outs   dx,BYTE PTR gs:[esi]
     2c4:	74 72                	je     338 <.debug_frame+0x14>
     2c6:	79 00                	jns    2c8 <.debug_abbrev+0x96>
     2c8:	08 04 07             	or     BYTE PTR [edi+eax*1],al
     2cb:	10 20                	adc    BYTE PTR [eax],ah
     2cd:	03 00                	add    eax,DWORD PTR [eax]
     2cf:	00 05 62 61 73 65    	add    BYTE PTR ds:0x65736162,al
     2d5:	5f                   	pop    edi
     2d6:	6c                   	ins    BYTE PTR es:[edi],dx
     2d7:	6f                   	outs   dx,DWORD PTR ds:[esi]
     2d8:	00 04 08             	add    BYTE PTR [eax+ecx*1],al
     2db:	0e                   	push   cs
     2dc:	72 01                	jb     2df <.debug_abbrev+0x7>
     2de:	00 00                	add    BYTE PTR [eax],al
     2e0:	00 05 73 65 6c 00    	add    BYTE PTR ds:0x6c6573,al
     2e6:	04 09                	add    al,0x9
     2e8:	0e                   	push   cs
     2e9:	72 01                	jb     2ec <.debug_line+0xa>
     2eb:	00 00                	add    BYTE PTR [eax],al
     2ed:	02 05 61 6c 77 61    	add    al,BYTE PTR ds:0x61776c61
     2f3:	79 73                	jns    368 <.debug_abbrev+0x6>
     2f5:	30 00                	xor    BYTE PTR [eax],al
     2f7:	04 0a                	add    al,0xa
     2f9:	0d 62 01 00 00       	or     eax,0x162
     2fe:	04 05                	add    al,0x5
     300:	66 6c                	data16 ins BYTE PTR es:[edi],dx
     302:	61                   	popa   
     303:	67 73 00             	addr16 jae 306 <.debug_line+0x24>
     306:	04 0b                	add    al,0xb
     308:	0d 62 01 00 00       	or     eax,0x162
     30d:	05 05 62 61 73       	add    eax,0x73616205
     312:	65 5f                	gs pop edi
     314:	68 69 00 04 0c       	push   0xc040069
     319:	0e                   	push   cs
     31a:	72 01                	jb     31d <.debug_line+0x3b>
     31c:	00 00                	add    BYTE PTR [eax],al
     31e:	06                   	push   es
     31f:	00 03                	add    BYTE PTR [ebx],al
     321:	69 64 74 5f 65 6e 74 	imul   esp,DWORD PTR [esp+esi*2+0x5f],0x72746e65
     328:	72 
     329:	79 5f                	jns    38a <.debug_abbrev+0x28>
     32b:	74 00                	je     32d <.debug_frame+0x9>
     32d:	04 0d                	add    al,0xd
     32f:	1b bd 02 00 00 04    	sbb    edi,DWORD PTR [ebp+0x4000002]
     335:	69 64 74 5f 70 74 72 	imul   esp,DWORD PTR [esp+esi*2+0x5f],0x727470
     33c:	00 
     33d:	06                   	push   es
     33e:	04 0f                	add    al,0xf
     340:	10 63 03             	adc    BYTE PTR [ebx+0x3],ah
     343:	00 00                	add    BYTE PTR [eax],al
     345:	05 6c 69 6d 69       	add    eax,0x696d696c
     34a:	74 00                	je     34c <.debug_frame+0x28>
     34c:	04 10                	add    al,0x10
     34e:	0e                   	push   cs
     34f:	72 01                	jb     352 <.debug_frame+0x2e>
     351:	00 00                	add    BYTE PTR [eax],al
     353:	00 05 62 61 73 65    	add    BYTE PTR ds:0x65736162,al
     359:	00 04 11             	add    BYTE PTR [ecx+edx*1],al
     35c:	0e                   	push   cs
     35d:	83 01 00             	add    DWORD PTR [ecx],0x0
     360:	00 02                	add    BYTE PTR [edx],al
     362:	00 03                	add    BYTE PTR [ebx],al
     364:	69 64 74 5f 70 74 72 	imul   esp,DWORD PTR [esp+esi*2+0x5f],0x5f727470
     36b:	5f 
     36c:	74 00                	je     36e <.debug_abbrev+0xc>
     36e:	04 12                	add    al,0x12
     370:	1b 34 03             	sbb    esi,DWORD PTR [ebx+eax*1]
     373:	00 00                	add    BYTE PTR [eax],al
     375:	04 72                	add    al,0x72
     377:	65 67 69 73 74 65 72 	imul   esi,DWORD PTR gs:[bp+di+0x74],0x737265
     37e:	73 00 
     380:	40                   	inc    eax
     381:	04 14                	add    al,0x14
     383:	10 65 04             	adc    BYTE PTR [ebp+0x4],ah
     386:	00 00                	add    BYTE PTR [eax],al
     388:	05 64 73 00 04       	add    eax,0x4007364
     38d:	16                   	push   ss
     38e:	0e                   	push   cs
     38f:	83 01 00             	add    DWORD PTR [ecx],0x0
     392:	00 00                	add    BYTE PTR [eax],al
     394:	05 65 64 69 00       	add    eax,0x696465
     399:	04 17                	add    al,0x17
     39b:	0e                   	push   cs
     39c:	83 01 00             	add    DWORD PTR [ecx],0x0
     39f:	00 04 05 65 73 69 00 	add    BYTE PTR [eax*1+0x697365],al
     3a6:	04 17                	add    al,0x17
     3a8:	13 83 01 00 00 08    	adc    eax,DWORD PTR [ebx+0x8000001]
     3ae:	05 65 62 70 00       	add    eax,0x706265
     3b3:	04 17                	add    al,0x17
     3b5:	18 83 01 00 00 0c    	sbb    BYTE PTR [ebx+0xc000001],al
     3bb:	05 65 73 70 00       	add    eax,0x707365
     3c0:	04 17                	add    al,0x17
     3c2:	1d 83 01 00 00       	sbb    eax,0x183
     3c7:	10 05 65 62 78 00    	adc    BYTE PTR ds:0x786265,al
     3cd:	04 17                	add    al,0x17
     3cf:	22 83 01 00 00 14    	and    al,BYTE PTR [ebx+0x14000001]
     3d5:	05 65 64 78 00       	add    eax,0x786465
     3da:	04 17                	add    al,0x17
     3dc:	27                   	daa    
     3dd:	83 01 00             	add    DWORD PTR [ecx],0x0
     3e0:	00 18                	add    BYTE PTR [eax],bl
     3e2:	05 65 63 78 00       	add    eax,0x786365
     3e7:	04 17                	add    al,0x17
     3e9:	2c 83                	sub    al,0x83
     3eb:	01 00                	add    DWORD PTR [eax],eax
     3ed:	00 1c 05 65 61 78 00 	add    BYTE PTR [eax*1+0x786165],bl
     3f4:	04 17                	add    al,0x17
     3f6:	31 83 01 00 00 20    	xor    DWORD PTR [ebx+0x20000001],eax
     3fc:	05 69 6e 74 5f       	add    eax,0x5f746e69
     401:	6e                   	outs   dx,BYTE PTR ds:[esi]
     402:	6f                   	outs   dx,DWORD PTR ds:[esi]
     403:	00 04 18             	add    BYTE PTR [eax+ebx*1],al
     406:	0e                   	push   cs
     407:	83 01 00             	add    DWORD PTR [ecx],0x0
     40a:	00 24 05 65 72 72 5f 	add    BYTE PTR [eax*1+0x5f727265],ah
     411:	63 6f 64             	arpl   WORD PTR [edi+0x64],bp
     414:	65 00 04 18          	add    BYTE PTR gs:[eax+ebx*1],al
     418:	16                   	push   ss
     419:	83 01 00             	add    DWORD PTR [ecx],0x0
     41c:	00 28                	add    BYTE PTR [eax],ch
     41e:	05 65 69 70 00       	add    eax,0x706965
     423:	04 19                	add    al,0x19
     425:	0e                   	push   cs
     426:	83 01 00             	add    DWORD PTR [ecx],0x0
     429:	00 2c 05 63 73 00 04 	add    BYTE PTR [eax*1+0x4007363],ch
     430:	19 13                	sbb    DWORD PTR [ebx],edx
     432:	83 01 00             	add    DWORD PTR [ecx],0x0
     435:	00 30                	add    BYTE PTR [eax],dh
     437:	05 65 66 6c 61       	add    eax,0x616c6665
     43c:	67 73 00             	addr16 jae 43f <.debug_frame+0x33>
     43f:	04 19                	add    al,0x19
     441:	17                   	pop    ss
     442:	83 01 00             	add    DWORD PTR [ecx],0x0
     445:	00 34 05 75 73 65 72 	add    BYTE PTR [eax*1+0x72657375],dh
     44c:	65 73 70             	gs jae 4bf <.debug_line+0x3d>
     44f:	00 04 19             	add    BYTE PTR [ecx+ebx*1],al
     452:	1f                   	pop    ds
     453:	83 01 00             	add    DWORD PTR [ecx],0x0
     456:	00 38                	add    BYTE PTR [eax],bh
     458:	05 73 73 00 04       	add    eax,0x4007373
     45d:	19 28                	sbb    DWORD PTR [eax],ebp
     45f:	83 01 00             	add    DWORD PTR [ecx],0x0
     462:	00 3c 00             	add    BYTE PTR [eax+eax*1],bh
     465:	03 72 65             	add    esi,DWORD PTR [edx+0x65]
     468:	67 69 73 74 65 72 5f 	imul   esi,DWORD PTR [bp+di+0x74],0x745f7265
     46f:	74 
     470:	00 04 1a             	add    BYTE PTR [edx+ebx*1],al
     473:	02 75 03             	add    dh,BYTE PTR [ebp+0x3]
     476:	00 00                	add    BYTE PTR [eax],al
     478:	03 69 73             	add    ebp,DWORD PTR [ecx+0x73]
     47b:	72 5f                	jb     4dc <.debug_frame+0x14>
     47d:	74 00                	je     47f <.debug_abbrev+0x18>
     47f:	04 50                	add    al,0x50
     481:	10 86 04 00 00 09    	adc    BYTE PTR [esi+0x9000004],al
     487:	04 8c                	add    al,0x8c
     489:	04 00                	add    al,0x0
     48b:	00 0a                	add    BYTE PTR [edx],cl
     48d:	97                   	xchg   edi,eax
     48e:	04 00                	add    al,0x0
     490:	00 0b                	add    BYTE PTR [ebx],cl
     492:	97                   	xchg   edi,eax
     493:	04 00                	add    al,0x0
     495:	00 00                	add    BYTE PTR [eax],al
     497:	09 04 65 04 00 00 06 	or     DWORD PTR [eiz*2+0x6000004],eax
     49e:	20 03                	and    BYTE PTR [ebx],al
     4a0:	00 00                	add    BYTE PTR [eax],al
     4a2:	ad                   	lods   eax,DWORD PTR ds:[esi]
     4a3:	04 00                	add    al,0x0
     4a5:	00 07                	add    BYTE PTR [edi],al
     4a7:	ce                   	into   
     4a8:	00 00                	add    BYTE PTR [eax],al
     4aa:	00 ff                	add    bh,bh
     4ac:	00 08                	add    BYTE PTR [eax],cl
     4ae:	69 64 74 5f 65 6e 74 	imul   esp,DWORD PTR [esp+esi*2+0x5f],0x72746e65
     4b5:	72 
     4b6:	69 65 73 00 04 5f 14 	imul   esp,DWORD PTR [ebp+0x73],0x145f0400
     4bd:	9d                   	popf   
     4be:	04 00                	add    al,0x0
     4c0:	00 08                	add    BYTE PTR [eax],cl
     4c2:	69 64 74 5f 70 74 72 	imul   esp,DWORD PTR [esp+esi*2+0x5f],0x727470
     4c9:	00 
     4ca:	04 60                	add    al,0x60
     4cc:	12 63 03             	adc    ah,BYTE PTR [ebx+0x3]
     4cf:	00 00                	add    BYTE PTR [eax],al
     4d1:	06                   	push   es
     4d2:	78 04                	js     4d8 <.debug_frame+0x10>
     4d4:	00 00                	add    BYTE PTR [eax],al
     4d6:	e1 04                	loope  4dc <.debug_frame+0x14>
     4d8:	00 00                	add    BYTE PTR [eax],al
     4da:	07                   	pop    es
     4db:	ce                   	into   
     4dc:	00 00                	add    BYTE PTR [eax],al
     4de:	00 ff                	add    bh,bh
     4e0:	00 08                	add    BYTE PTR [eax],cl
     4e2:	69 6e 74 65 72 72 75 	imul   ebp,DWORD PTR [esi+0x74],0x75727265
     4e9:	70 74                	jo     55f <.debug_frame+0x5b>
     4eb:	5f                   	pop    edi
     4ec:	68 61 6e 64 6c       	push   0x6c646e61
     4f1:	65 72 73             	gs jb  567 <.debug_frame+0x63>
     4f4:	00 04 61             	add    BYTE PTR [ecx+eiz*2],al
     4f7:	0e                   	push   cs
     4f8:	d1 04 00             	rol    DWORD PTR [eax+eax*1],1
     4fb:	00 04 74             	add    BYTE PTR [esp+esi*2],al
     4fe:	73 73                	jae    573 <.debug_frame+0x6f>
     500:	5f                   	pop    edi
     501:	65 6e                	outs   dx,BYTE PTR gs:[esi]
     503:	74 72                	je     577 <.debug_frame+0x73>
     505:	79 00                	jns    507 <.debug_frame+0x3>
     507:	68 05 08 10 76       	push   0x76100805
     50c:	06                   	push   es
     50d:	00 00                	add    BYTE PTR [eax],al
     50f:	05 70 72 65 76       	add    eax,0x76657270
     514:	54                   	push   esp
     515:	73 73                	jae    58a <.debug_frame+0x86>
     517:	00 05 09 0e 83 01    	add    BYTE PTR ds:0x1830e09,al
     51d:	00 00                	add    BYTE PTR [eax],al
     51f:	00 05 65 73 70 30    	add    BYTE PTR ds:0x30707365,al
     525:	00 05 0a 0e 83 01    	add    BYTE PTR ds:0x1830e0a,al
     52b:	00 00                	add    BYTE PTR [eax],al
     52d:	04 05                	add    al,0x5
     52f:	73 73                	jae    5a4 <.debug_frame+0xa0>
     531:	30 00                	xor    BYTE PTR [eax],al
     533:	05 0b 0e 83 01       	add    eax,0x1830e0b
     538:	00 00                	add    BYTE PTR [eax],al
     53a:	08 05 65 73 70 31    	or     BYTE PTR ds:0x31707365,al
     540:	00 05 0c 0e 83 01    	add    BYTE PTR ds:0x1830e0c,al
     546:	00 00                	add    BYTE PTR [eax],al
     548:	0c 05                	or     al,0x5
     54a:	73 73                	jae    5bf <.debug_frame+0xbb>
     54c:	31 00                	xor    DWORD PTR [eax],eax
     54e:	05 0d 0e 83 01       	add    eax,0x1830e0d
     553:	00 00                	add    BYTE PTR [eax],al
     555:	10 05 65 73 70 32    	adc    BYTE PTR ds:0x32707365,al
     55b:	00 05 0e 0e 83 01    	add    BYTE PTR ds:0x1830e0e,al
     561:	00 00                	add    BYTE PTR [eax],al
     563:	14 05                	adc    al,0x5
     565:	73 73                	jae    5da <.debug_frame+0x1a>
     567:	32 00                	xor    al,BYTE PTR [eax]
     569:	05 0f 0e 83 01       	add    eax,0x1830e0f
     56e:	00 00                	add    BYTE PTR [eax],al
     570:	18 05 63 72 33 00    	sbb    BYTE PTR ds:0x337263,al
     576:	05 10 0e 83 01       	add    eax,0x1830e10
     57b:	00 00                	add    BYTE PTR [eax],al
     57d:	1c 05                	sbb    al,0x5
     57f:	65 69 70 00 05 11 0e 	imul   esi,DWORD PTR gs:[eax+0x0],0x830e1105
     586:	83 
     587:	01 00                	add    DWORD PTR [eax],eax
     589:	00 20                	add    BYTE PTR [eax],ah
     58b:	05 65 66 6c 61       	add    eax,0x616c6665
     590:	67 73 00             	addr16 jae 593 <.debug_frame+0x8f>
     593:	05 12 0e 83 01       	add    eax,0x1830e12
     598:	00 00                	add    BYTE PTR [eax],al
     59a:	24 05                	and    al,0x5
     59c:	65 61                	gs popa 
     59e:	78 00                	js     5a0 <.debug_frame+0x9c>
     5a0:	05 13 0e 83 01       	add    eax,0x1830e13
     5a5:	00 00                	add    BYTE PTR [eax],al
     5a7:	28 05 65 63 78 00    	sub    BYTE PTR ds:0x786365,al
     5ad:	05 14 0e 83 01       	add    eax,0x1830e14
     5b2:	00 00                	add    BYTE PTR [eax],al
     5b4:	2c 05                	sub    al,0x5
     5b6:	65 64 78 00          	gs fs js 5ba <.debug_frame+0xb6>
     5ba:	05 15 0e 83 01       	add    eax,0x1830e15
     5bf:	00 00                	add    BYTE PTR [eax],al
     5c1:	30 05 65 62 78 00    	xor    BYTE PTR ds:0x786265,al
     5c7:	05 16 0e 83 01       	add    eax,0x1830e16
     5cc:	00 00                	add    BYTE PTR [eax],al
     5ce:	34 05                	xor    al,0x5
     5d0:	65 73 70             	gs jae 643 <.debug_abbrev+0x5c>
     5d3:	00 05 17 0e 83 01    	add    BYTE PTR ds:0x1830e17,al
     5d9:	00 00                	add    BYTE PTR [eax],al
     5db:	38 05 65 62 70 00    	cmp    BYTE PTR ds:0x706265,al
     5e1:	05 18 0e 83 01       	add    eax,0x1830e18
     5e6:	00 00                	add    BYTE PTR [eax],al
     5e8:	3c 05                	cmp    al,0x5
     5ea:	65 73 69             	gs jae 656 <.debug_abbrev+0x6f>
     5ed:	00 05 19 0e 83 01    	add    BYTE PTR ds:0x1830e19,al
     5f3:	00 00                	add    BYTE PTR [eax],al
     5f5:	40                   	inc    eax
     5f6:	05 65 64 69 00       	add    eax,0x696465
     5fb:	05 1a 0e 83 01       	add    eax,0x1830e1a
     600:	00 00                	add    BYTE PTR [eax],al
     602:	44                   	inc    esp
     603:	05 65 73 00 05       	add    eax,0x5007365
     608:	1b 0e                	sbb    ecx,DWORD PTR [esi]
     60a:	83 01 00             	add    DWORD PTR [ecx],0x0
     60d:	00 48 05             	add    BYTE PTR [eax+0x5],cl
     610:	63 73 00             	arpl   WORD PTR [ebx+0x0],si
     613:	05 1c 0e 83 01       	add    eax,0x1830e1c
     618:	00 00                	add    BYTE PTR [eax],al
     61a:	4c                   	dec    esp
     61b:	05 73 73 00 05       	add    eax,0x5007373
     620:	1d 0e 83 01 00       	sbb    eax,0x1830e
     625:	00 50 05             	add    BYTE PTR [eax+0x5],dl
     628:	64 73 00             	fs jae 62b <.debug_abbrev+0x44>
     62b:	05 1e 0e 83 01       	add    eax,0x1830e1e
     630:	00 00                	add    BYTE PTR [eax],al
     632:	54                   	push   esp
     633:	05 66 73 00 05       	add    eax,0x5007366
     638:	1f                   	pop    ds
     639:	0e                   	push   cs
     63a:	83 01 00             	add    DWORD PTR [ecx],0x0
     63d:	00 58 05             	add    BYTE PTR [eax+0x5],bl
     640:	67 73 00             	addr16 jae 643 <.debug_abbrev+0x5c>
     643:	05 20 0e 83 01       	add    eax,0x1830e20
     648:	00 00                	add    BYTE PTR [eax],al
     64a:	5c                   	pop    esp
     64b:	05 6c 64 74 00       	add    eax,0x74646c
     650:	05 21 0e 83 01       	add    eax,0x1830e21
     655:	00 00                	add    BYTE PTR [eax],al
     657:	60                   	pusha  
     658:	05 74 72 61 70       	add    eax,0x70617274
     65d:	00 05 22 0e 72 01    	add    BYTE PTR ds:0x1720e22,al
     663:	00 00                	add    BYTE PTR [eax],al
     665:	64 05 69 6f 6d 61    	fs add eax,0x616d6f69
     66b:	70 00                	jo     66d <.debug_abbrev+0x86>
     66d:	05 23 0e 72 01       	add    eax,0x1720e23
     672:	00 00                	add    BYTE PTR [eax],al
     674:	66 00 03             	data16 add BYTE PTR [ebx],al
     677:	74 73                	je     6ec <.debug_abbrev+0x22>
     679:	73 5f                	jae    6da <.debug_abbrev+0x10>
     67b:	65 6e                	outs   dx,BYTE PTR gs:[esi]
     67d:	74 72                	je     6f1 <.debug_abbrev+0x27>
     67f:	79 5f                	jns    6e0 <.debug_abbrev+0x16>
     681:	74 00                	je     683 <.debug_abbrev+0x9c>
     683:	05 24 1b fc 04       	add    eax,0x4fc1b24
     688:	00 00                	add    BYTE PTR [eax],al
     68a:	08 6b 65             	or     BYTE PTR [ebx+0x65],ch
     68d:	72 6e                	jb     6fd <.debug_abbrev+0x33>
     68f:	65 6c                	gs ins BYTE PTR es:[edi],dx
     691:	5f                   	pop    edi
     692:	74 73                	je     707 <.debug_abbrev+0x3d>
     694:	73 00                	jae    696 <.debug_abbrev+0xaf>
     696:	05 26 14 76 06       	add    eax,0x6761426
     69b:	00 00                	add    BYTE PTR [eax],al
     69d:	08 65 6e             	or     BYTE PTR [ebp+0x6e],ah
     6a0:	64 00 06             	add    BYTE PTR fs:[esi],al
     6a3:	14 11                	adc    al,0x11
     6a5:	83 01 00             	add    DWORD PTR [ecx],0x0
     6a8:	00 08                	add    BYTE PTR [eax],cl
     6aa:	62 69 74             	bound  ebp,QWORD PTR [ecx+0x74]
     6ad:	6d                   	ins    DWORD PTR es:[edi],dx
     6ae:	61                   	popa   
     6af:	70 00                	jo     6b1 <.debug_abbrev+0xca>
     6b1:	06                   	push   es
     6b2:	15 12 b8 06 00       	adc    eax,0x6b812
     6b7:	00 09                	add    BYTE PTR [ecx],cl
     6b9:	04 62                	add    al,0x62
     6bb:	01 00                	add    DWORD PTR [eax],eax
     6bd:	00 08                	add    BYTE PTR [eax],cl
     6bf:	6d                   	ins    DWORD PTR es:[edi],dx
     6c0:	65 6d                	gs ins DWORD PTR es:[edi],dx
     6c2:	5f                   	pop    edi
     6c3:	73 74                	jae    739 <.debug_abbrev+0x6f>
     6c5:	61                   	popa   
     6c6:	72 74                	jb     73c <.debug_abbrev+0x72>
     6c8:	00 06                	add    BYTE PTR [esi],al
     6ca:	16                   	push   ss
     6cb:	12 b8 06 00 00 08    	adc    bh,BYTE PTR [eax+0x8000006]
     6d1:	74 6f                	je     742 <.debug_abbrev+0x78>
     6d3:	74 61                	je     736 <.debug_abbrev+0x6c>
     6d5:	6c                   	ins    BYTE PTR es:[edi],dx
     6d6:	5f                   	pop    edi
     6d7:	62 6c 6f 63          	bound  ebp,QWORD PTR [edi+ebp*2+0x63]
     6db:	6b 73 00 06          	imul   esi,DWORD PTR [ebx+0x0],0x6
     6df:	17                   	pop    ss
     6e0:	11 83 01 00 00 08    	adc    DWORD PTR [ebx+0x8000001],eax
     6e6:	62 69 74             	bound  ebp,QWORD PTR [ecx+0x74]
     6e9:	6d                   	ins    DWORD PTR es:[edi],dx
     6ea:	61                   	popa   
     6eb:	70 5f                	jo     74c <.debug_abbrev+0x82>
     6ed:	73 69                	jae    758 <.debug_abbrev+0x8e>
     6ef:	7a 65                	jp     756 <.debug_abbrev+0x8c>
     6f1:	00 06                	add    BYTE PTR [esi],al
     6f3:	18 11                	sbb    BYTE PTR [ecx],dl
     6f5:	83 01 00             	add    DWORD PTR [ecx],0x0
     6f8:	00 06                	add    BYTE PTR [esi],al
     6fa:	83 01 00             	add    DWORD PTR [ecx],0x0
     6fd:	00 0a                	add    BYTE PTR [edx],cl
     6ff:	07                   	pop    es
     700:	00 00                	add    BYTE PTR [eax],al
     702:	0c ce                	or     al,0xce
     704:	00 00                	add    BYTE PTR [eax],al
     706:	00 ff                	add    bh,bh
     708:	03 00                	add    eax,DWORD PTR [eax]
     70a:	0d 70 61 67 65       	or     eax,0x65676170
     70f:	5f                   	pop    edi
     710:	64 69 72 65 63 74 6f 	imul   esi,DWORD PTR fs:[edx+0x65],0x726f7463
     717:	72 
     718:	79 00                	jns    71a <.debug_abbrev+0x50>
     71a:	01 0b                	add    DWORD PTR [ebx],ecx
     71c:	0a f9                	or     bh,cl
     71e:	06                   	push   es
     71f:	00 00                	add    BYTE PTR [eax],al
     721:	00 10                	add    BYTE PTR [eax],dl
     723:	05 03 00 60 10       	add    eax,0x10600003
     728:	00 0d 66 69 72 73    	add    BYTE PTR ds:0x73726966,cl
     72e:	74 5f                	je     78f <.debug_info+0x1c>
     730:	70 61                	jo     793 <.debug_info+0x20>
     732:	67 65 5f             	addr16 gs pop edi
     735:	74 61                	je     798 <.debug_info+0x25>
     737:	62 6c 65 00          	bound  ebp,QWORD PTR [ebp+eiz*2+0x0]
     73b:	01 0c 0a             	add    DWORD PTR [edx+ecx*1],ecx
     73e:	f9                   	stc    
     73f:	06                   	push   es
     740:	00 00                	add    BYTE PTR [eax],al
     742:	00 10                	add    BYTE PTR [eax],dl
     744:	05 03 00 70 10       	add    eax,0x10700003
     749:	00 0e                	add    BYTE PTR [esi],cl
     74b:	6b 65 72 6e          	imul   esp,DWORD PTR [ebp+0x72],0x6e
     74f:	65 6c                	gs ins BYTE PTR es:[edi],dx
     751:	5f                   	pop    edi
     752:	6d                   	ins    DWORD PTR es:[edi],dx
     753:	61                   	popa   
     754:	69 6e 00 01 11 0e 30 	imul   ebp,DWORD PTR [esi+0x0],0x300e1101
     75b:	02 10                	add    dl,BYTE PTR [eax]
     75d:	00 03                	add    BYTE PTR [ebx],al
     75f:	01 00                	add    DWORD PTR [eax],eax
     761:	00 01                	add    BYTE PTR [ecx],al
     763:	9c                   	pushf  
     764:	0f 69 00             	punpckhwd mm0,QWORD PTR [eax]
     767:	01 1e                	add    DWORD PTR [esi],ebx
     769:	09 e6                	or     esi,esp
     76b:	00 00                	add    BYTE PTR [eax],al
     76d:	00 02                	add    BYTE PTR [edx],al
     76f:	91                   	xchg   ecx,eax
     770:	6c                   	ins    BYTE PTR es:[edi],dx
	...

00000773 <.debug_info>:
     773:	81 05 00 00 04 00 d6 	add    DWORD PTR ds:0x40000,0xd6
     77a:	00 00 00 
     77d:	04 01                	add    al,0x1
     77f:	47                   	inc    edi
     780:	4e                   	dec    esi
     781:	55                   	push   ebp
     782:	20 43 39             	and    BYTE PTR [ebx+0x39],al
     785:	39 20                	cmp    DWORD PTR [eax],esp
     787:	39 2e                	cmp    DWORD PTR [esi],ebp
     789:	33 2d 77 69 6e 33    	xor    ebp,DWORD PTR ds:0x336e6977
     78f:	32 20                	xor    ah,BYTE PTR [eax]
     791:	32 30                	xor    dh,BYTE PTR [eax]
     793:	32 30                	xor    dh,BYTE PTR [eax]
     795:	30 33                	xor    BYTE PTR [ebx],dh
     797:	32 30                	xor    dh,BYTE PTR [eax]
     799:	20 2d 6d 33 32 20    	and    BYTE PTR ds:0x2032336d,ch
     79f:	2d 6d 74 75 6e       	sub    eax,0x6e75746d
     7a4:	65 3d 67 65 6e 65    	gs cmp eax,0x656e6567
     7aa:	72 69                	jb     815 <.debug_line+0x3>
     7ac:	63 20                	arpl   WORD PTR [eax],sp
     7ae:	2d 6d 61 72 63       	sub    eax,0x6372616d
     7b3:	68 3d 78 38 36       	push   0x3638783d
     7b8:	2d 36 34 20 2d       	sub    eax,0x2d203436
     7bd:	67 20 2d             	and    BYTE PTR [di],ch
     7c0:	67 67 64 62 20       	addr16 bound esp,QWORD PTR fs:[bx+si]
     7c5:	2d 73 74 64 3d       	sub    eax,0x3d647473
     7ca:	67 6e                	outs   dx,BYTE PTR ds:[si]
     7cc:	75 39                	jne    807 <.debug_info+0x94>
     7ce:	39 20                	cmp    DWORD PTR [eax],esp
     7d0:	2d 66 6f 6d 69       	sub    eax,0x696d6f66
     7d5:	74 2d                	je     804 <.debug_info+0x91>
     7d7:	66 72 61             	data16 jb 83b <.debug_abbrev+0xa>
     7da:	6d                   	ins    DWORD PTR es:[edi],dx
     7db:	65 2d 70 6f 69 6e    	gs sub eax,0x6e696f70
     7e1:	74 65                	je     848 <.debug_abbrev+0x17>
     7e3:	72 20                	jb     805 <.debug_info+0x92>
     7e5:	2d 66 69 6e 6c       	sub    eax,0x6c6e6966
     7ea:	69 6e 65 2d 66 75 6e 	imul   ebp,DWORD PTR [esi+0x65],0x6e75662d
     7f1:	63 74 69 6f          	arpl   WORD PTR [ecx+ebp*2+0x6f],si
     7f5:	6e                   	outs   dx,BYTE PTR ds:[esi]
     7f6:	73 20                	jae    818 <.debug_line+0x6>
     7f8:	2d 66 66 72 65       	sub    eax,0x65726666
     7fd:	65 73 74             	gs jae 874 <.debug_abbrev+0x43>
     800:	61                   	popa   
     801:	6e                   	outs   dx,BYTE PTR ds:[esi]
     802:	64 69 6e 67 00 0c 73 	imul   ebp,DWORD PTR fs:[esi+0x67],0x72730c00
     809:	72 
     80a:	63 2f                	arpl   WORD PTR [edi],bp
     80c:	6b 65 72 6e          	imul   esp,DWORD PTR [ebp+0x72],0x6e
     810:	65 6c                	gs ins BYTE PTR es:[edi],dx
     812:	2f                   	das    
     813:	73 63                	jae    878 <.debug_abbrev+0x47>
     815:	72 65                	jb     87c <.debug_abbrev+0x4b>
     817:	65 6e                	outs   dx,BYTE PTR gs:[esi]
     819:	2e 63 00             	arpl   WORD PTR cs:[eax],ax
     81c:	2f                   	das    
     81d:	6d                   	ins    DWORD PTR es:[edi],dx
     81e:	6e                   	outs   dx,BYTE PTR ds:[esi]
     81f:	74 2f                	je     850 <.debug_abbrev+0x1f>
     821:	63 2f                	arpl   WORD PTR [edi],bp
     823:	70 72                	jo     897 <.debug_abbrev+0x66>
     825:	6f                   	outs   dx,DWORD PTR ds:[esi]
     826:	6a 65                	push   0x65
     828:	63 74 73 2f          	arpl   WORD PTR [ebx+esi*2+0x2f],si
     82c:	6c                   	ins    BYTE PTR es:[edi],dx
     82d:	69 6e 75 78 2f 6f 73 	imul   ebp,DWORD PTR [esi+0x75],0x736f2f78
     834:	00 34 03             	add    BYTE PTR [ebx+eax*1],dh
     837:	10 00                	adc    BYTE PTR [eax],al
     839:	09 03                	or     DWORD PTR [ebx],eax
     83b:	00 00                	add    BYTE PTR [eax],al
     83d:	1f                   	pop    ds
     83e:	01 00                	add    DWORD PTR [eax],eax
     840:	00 02                	add    BYTE PTR [edx],al
     842:	01 06                	add    DWORD PTR [esi],eax
     844:	73 69                	jae    8af <.debug_abbrev+0x7e>
     846:	67 6e                	outs   dx,BYTE PTR ds:[si]
     848:	65 64 20 63 68       	gs and BYTE PTR fs:[ebx+0x68],ah
     84d:	61                   	popa   
     84e:	72 00                	jb     850 <.debug_abbrev+0x1f>
     850:	02 02                	add    al,BYTE PTR [edx]
     852:	05 73 68 6f 72       	add    eax,0x726f6873
     857:	74 20                	je     879 <.debug_abbrev+0x48>
     859:	69 6e 74 00 02 04 05 	imul   ebp,DWORD PTR [esi+0x74],0x5040200
     860:	69 6e 74 00 03 ea 00 	imul   ebp,DWORD PTR [esi+0x74],0xea0300
     867:	00 00                	add    BYTE PTR [eax],al
     869:	02 08                	add    cl,BYTE PTR [eax]
     86b:	05 6c 6f 6e 67       	add    eax,0x676e6f6c
     870:	20 6c 6f 6e          	and    BYTE PTR [edi+ebp*2+0x6e],ch
     874:	67 20 69 6e          	and    BYTE PTR [bx+di+0x6e],ch
     878:	74 00                	je     87a <.debug_abbrev+0x49>
     87a:	04 75                	add    al,0x75
     87c:	69 6e 74 38 5f 74 00 	imul   ebp,DWORD PTR [esi+0x74],0x745f38
     883:	02 2e                	add    ch,BYTE PTR [esi]
     885:	18 17                	sbb    BYTE PTR [edi],dl
     887:	01 00                	add    DWORD PTR [eax],eax
     889:	00 02                	add    BYTE PTR [edx],al
     88b:	01 08                	add    DWORD PTR [eax],ecx
     88d:	75 6e                	jne    8fd <.debug_abbrev+0xcc>
     88f:	73 69                	jae    8fa <.debug_abbrev+0xc9>
     891:	67 6e                	outs   dx,BYTE PTR ds:[si]
     893:	65 64 20 63 68       	gs and BYTE PTR fs:[ebx+0x68],ah
     898:	61                   	popa   
     899:	72 00                	jb     89b <.debug_abbrev+0x6a>
     89b:	04 75                	add    al,0x75
     89d:	69 6e 74 31 36 5f 74 	imul   ebp,DWORD PTR [esi+0x74],0x745f3631
     8a4:	00 02                	add    BYTE PTR [edx],al
     8a6:	31 19                	xor    DWORD PTR [ecx],ebx
     8a8:	39 01                	cmp    DWORD PTR [ecx],eax
     8aa:	00 00                	add    BYTE PTR [eax],al
     8ac:	02 02                	add    al,BYTE PTR [edx]
     8ae:	07                   	pop    es
     8af:	73 68                	jae    919 <.debug_abbrev+0xc>
     8b1:	6f                   	outs   dx,DWORD PTR ds:[esi]
     8b2:	72 74                	jb     928 <.debug_abbrev+0x1b>
     8b4:	20 75 6e             	and    BYTE PTR [ebp+0x6e],dh
     8b7:	73 69                	jae    922 <.debug_abbrev+0x15>
     8b9:	67 6e                	outs   dx,BYTE PTR ds:[si]
     8bb:	65 64 20 69 6e       	gs and BYTE PTR fs:[ecx+0x6e],ch
     8c0:	74 00                	je     8c2 <.debug_abbrev+0x91>
     8c2:	02 04 07             	add    al,BYTE PTR [edi+eax*1]
     8c5:	75 6e                	jne    935 <.debug_abbrev+0x28>
     8c7:	73 69                	jae    932 <.debug_abbrev+0x25>
     8c9:	67 6e                	outs   dx,BYTE PTR ds:[si]
     8cb:	65 64 20 69 6e       	gs and BYTE PTR fs:[ecx+0x6e],ch
     8d0:	74 00                	je     8d2 <.debug_abbrev+0xa1>
     8d2:	02 08                	add    cl,BYTE PTR [eax]
     8d4:	07                   	pop    es
     8d5:	6c                   	ins    BYTE PTR es:[edi],dx
     8d6:	6f                   	outs   dx,DWORD PTR ds:[esi]
     8d7:	6e                   	outs   dx,BYTE PTR ds:[esi]
     8d8:	67 20 6c 6f          	and    BYTE PTR [si+0x6f],ch
     8dc:	6e                   	outs   dx,BYTE PTR ds:[esi]
     8dd:	67 20 75 6e          	and    BYTE PTR [di+0x6e],dh
     8e1:	73 69                	jae    94c <.debug_abbrev+0x3f>
     8e3:	67 6e                	outs   dx,BYTE PTR ds:[si]
     8e5:	65 64 20 69 6e       	gs and BYTE PTR fs:[ecx+0x6e],ch
     8ea:	74 00                	je     8ec <.debug_abbrev+0xbb>
     8ec:	05 07 04 4f 01       	add    eax,0x14f0407
     8f1:	00 00                	add    BYTE PTR [eax],al
     8f3:	03 0d 06 91 02 00    	add    ecx,DWORD PTR ds:0x29106
     8f9:	00 06                	add    BYTE PTR [esi],al
     8fb:	43                   	inc    ebx
     8fc:	4f                   	dec    edi
     8fd:	4c                   	dec    esp
     8fe:	4f                   	dec    edi
     8ff:	52                   	push   edx
     900:	5f                   	pop    edi
     901:	42                   	inc    edx
     902:	4c                   	dec    esp
     903:	41                   	inc    ecx
     904:	43                   	inc    ebx
     905:	4b                   	dec    ebx
     906:	00 00                	add    BYTE PTR [eax],al
     908:	06                   	push   es
     909:	43                   	inc    ebx
     90a:	4f                   	dec    edi
     90b:	4c                   	dec    esp
     90c:	4f                   	dec    edi
     90d:	52                   	push   edx
     90e:	5f                   	pop    edi
     90f:	42                   	inc    edx
     910:	4c                   	dec    esp
     911:	55                   	push   ebp
     912:	45                   	inc    ebp
     913:	00 01                	add    BYTE PTR [ecx],al
     915:	06                   	push   es
     916:	43                   	inc    ebx
     917:	4f                   	dec    edi
     918:	4c                   	dec    esp
     919:	4f                   	dec    edi
     91a:	52                   	push   edx
     91b:	5f                   	pop    edi
     91c:	47                   	inc    edi
     91d:	52                   	push   edx
     91e:	45                   	inc    ebp
     91f:	45                   	inc    ebp
     920:	4e                   	dec    esi
     921:	00 02                	add    BYTE PTR [edx],al
     923:	06                   	push   es
     924:	43                   	inc    ebx
     925:	4f                   	dec    edi
     926:	4c                   	dec    esp
     927:	4f                   	dec    edi
     928:	52                   	push   edx
     929:	5f                   	pop    edi
     92a:	43                   	inc    ebx
     92b:	59                   	pop    ecx
     92c:	41                   	inc    ecx
     92d:	4e                   	dec    esi
     92e:	00 03                	add    BYTE PTR [ebx],al
     930:	06                   	push   es
     931:	43                   	inc    ebx
     932:	4f                   	dec    edi
     933:	4c                   	dec    esp
     934:	4f                   	dec    edi
     935:	52                   	push   edx
     936:	5f                   	pop    edi
     937:	52                   	push   edx
     938:	45                   	inc    ebp
     939:	44                   	inc    esp
     93a:	00 04 06             	add    BYTE PTR [esi+eax*1],al
     93d:	43                   	inc    ebx
     93e:	4f                   	dec    edi
     93f:	4c                   	dec    esp
     940:	4f                   	dec    edi
     941:	52                   	push   edx
     942:	5f                   	pop    edi
     943:	4d                   	dec    ebp
     944:	41                   	inc    ecx
     945:	47                   	inc    edi
     946:	45                   	inc    ebp
     947:	4e                   	dec    esi
     948:	54                   	push   esp
     949:	41                   	inc    ecx
     94a:	00 05 06 43 4f 4c    	add    BYTE PTR ds:0x4c4f4306,al
     950:	4f                   	dec    edi
     951:	52                   	push   edx
     952:	5f                   	pop    edi
     953:	42                   	inc    edx
     954:	52                   	push   edx
     955:	4f                   	dec    edi
     956:	57                   	push   edi
     957:	4e                   	dec    esi
     958:	00 06                	add    BYTE PTR [esi],al
     95a:	06                   	push   es
     95b:	43                   	inc    ebx
     95c:	4f                   	dec    edi
     95d:	4c                   	dec    esp
     95e:	4f                   	dec    edi
     95f:	52                   	push   edx
     960:	5f                   	pop    edi
     961:	4c                   	dec    esp
     962:	49                   	dec    ecx
     963:	47                   	inc    edi
     964:	48                   	dec    eax
     965:	54                   	push   esp
     966:	5f                   	pop    edi
     967:	47                   	inc    edi
     968:	52                   	push   edx
     969:	45                   	inc    ebp
     96a:	59                   	pop    ecx
     96b:	00 07                	add    BYTE PTR [edi],al
     96d:	06                   	push   es
     96e:	43                   	inc    ebx
     96f:	4f                   	dec    edi
     970:	4c                   	dec    esp
     971:	4f                   	dec    edi
     972:	52                   	push   edx
     973:	5f                   	pop    edi
     974:	44                   	inc    esp
     975:	41                   	inc    ecx
     976:	52                   	push   edx
     977:	4b                   	dec    ebx
     978:	5f                   	pop    edi
     979:	47                   	inc    edi
     97a:	52                   	push   edx
     97b:	45                   	inc    ebp
     97c:	59                   	pop    ecx
     97d:	00 08                	add    BYTE PTR [eax],cl
     97f:	06                   	push   es
     980:	43                   	inc    ebx
     981:	4f                   	dec    edi
     982:	4c                   	dec    esp
     983:	4f                   	dec    edi
     984:	52                   	push   edx
     985:	5f                   	pop    edi
     986:	4c                   	dec    esp
     987:	49                   	dec    ecx
     988:	47                   	inc    edi
     989:	48                   	dec    eax
     98a:	54                   	push   esp
     98b:	5f                   	pop    edi
     98c:	42                   	inc    edx
     98d:	4c                   	dec    esp
     98e:	55                   	push   ebp
     98f:	45                   	inc    ebp
     990:	00 09                	add    BYTE PTR [ecx],cl
     992:	06                   	push   es
     993:	43                   	inc    ebx
     994:	4f                   	dec    edi
     995:	4c                   	dec    esp
     996:	4f                   	dec    edi
     997:	52                   	push   edx
     998:	5f                   	pop    edi
     999:	4c                   	dec    esp
     99a:	49                   	dec    ecx
     99b:	47                   	inc    edi
     99c:	48                   	dec    eax
     99d:	54                   	push   esp
     99e:	5f                   	pop    edi
     99f:	47                   	inc    edi
     9a0:	52                   	push   edx
     9a1:	45                   	inc    ebp
     9a2:	45                   	inc    ebp
     9a3:	4e                   	dec    esi
     9a4:	00 0a                	add    BYTE PTR [edx],cl
     9a6:	06                   	push   es
     9a7:	43                   	inc    ebx
     9a8:	4f                   	dec    edi
     9a9:	4c                   	dec    esp
     9aa:	4f                   	dec    edi
     9ab:	52                   	push   edx
     9ac:	5f                   	pop    edi
     9ad:	4c                   	dec    esp
     9ae:	49                   	dec    ecx
     9af:	47                   	inc    edi
     9b0:	48                   	dec    eax
     9b1:	54                   	push   esp
     9b2:	5f                   	pop    edi
     9b3:	43                   	inc    ebx
     9b4:	59                   	pop    ecx
     9b5:	41                   	inc    ecx
     9b6:	4e                   	dec    esi
     9b7:	00 0b                	add    BYTE PTR [ebx],cl
     9b9:	06                   	push   es
     9ba:	43                   	inc    ebx
     9bb:	4f                   	dec    edi
     9bc:	4c                   	dec    esp
     9bd:	4f                   	dec    edi
     9be:	52                   	push   edx
     9bf:	5f                   	pop    edi
     9c0:	4c                   	dec    esp
     9c1:	49                   	dec    ecx
     9c2:	47                   	inc    edi
     9c3:	48                   	dec    eax
     9c4:	54                   	push   esp
     9c5:	5f                   	pop    edi
     9c6:	52                   	push   edx
     9c7:	45                   	inc    ebp
     9c8:	44                   	inc    esp
     9c9:	00 0c 06             	add    BYTE PTR [esi+eax*1],cl
     9cc:	43                   	inc    ebx
     9cd:	4f                   	dec    edi
     9ce:	4c                   	dec    esp
     9cf:	4f                   	dec    edi
     9d0:	52                   	push   edx
     9d1:	5f                   	pop    edi
     9d2:	4c                   	dec    esp
     9d3:	49                   	dec    ecx
     9d4:	47                   	inc    edi
     9d5:	48                   	dec    eax
     9d6:	54                   	push   esp
     9d7:	5f                   	pop    edi
     9d8:	4d                   	dec    ebp
     9d9:	41                   	inc    ecx
     9da:	47                   	inc    edi
     9db:	45                   	inc    ebp
     9dc:	4e                   	dec    esi
     9dd:	54                   	push   esp
     9de:	41                   	inc    ecx
     9df:	00 0d 06 43 4f 4c    	add    BYTE PTR ds:0x4c4f4306,cl
     9e5:	4f                   	dec    edi
     9e6:	52                   	push   edx
     9e7:	5f                   	pop    edi
     9e8:	4c                   	dec    esp
     9e9:	49                   	dec    ecx
     9ea:	47                   	inc    edi
     9eb:	48                   	dec    eax
     9ec:	54                   	push   esp
     9ed:	5f                   	pop    edi
     9ee:	42                   	inc    edx
     9ef:	52                   	push   edx
     9f0:	4f                   	dec    edi
     9f1:	57                   	push   edi
     9f2:	4e                   	dec    esi
     9f3:	00 0e                	add    BYTE PTR [esi],cl
     9f5:	06                   	push   es
     9f6:	43                   	inc    ebx
     9f7:	4f                   	dec    edi
     9f8:	4c                   	dec    esp
     9f9:	4f                   	dec    edi
     9fa:	52                   	push   edx
     9fb:	5f                   	pop    edi
     9fc:	57                   	push   edi
     9fd:	48                   	dec    eax
     9fe:	49                   	dec    ecx
     9ff:	54                   	push   esp
     a00:	45                   	inc    ebp
     a01:	00 0f                	add    BYTE PTR [edi],cl
     a03:	00 02                	add    BYTE PTR [edx],al
     a05:	01 06                	add    DWORD PTR [esi],eax
     a07:	63 68 61             	arpl   WORD PTR [eax+0x61],bp
     a0a:	72 00                	jb     a0c <.debug_abbrev+0x12>
     a0c:	02 04 05 6c 6f 6e 67 	add    al,BYTE PTR [eax*1+0x676e6f6c]
     a13:	20 69 6e             	and    BYTE PTR [ecx+0x6e],ch
     a16:	74 00                	je     a18 <.debug_abbrev+0x1e>
     a18:	07                   	pop    es
     a19:	04 91                	add    al,0x91
     a1b:	02 00                	add    al,BYTE PTR [eax]
     a1d:	00 02                	add    BYTE PTR [edx],al
     a1f:	04 07                	add    al,0x7
     a21:	6c                   	ins    BYTE PTR es:[edi],dx
     a22:	6f                   	outs   dx,DWORD PTR ds:[esi]
     a23:	6e                   	outs   dx,BYTE PTR ds:[esi]
     a24:	67 20 75 6e          	and    BYTE PTR [di+0x6e],dh
     a28:	73 69                	jae    a93 <.debug_abbrev+0x99>
     a2a:	67 6e                	outs   dx,BYTE PTR ds:[si]
     a2c:	65 64 20 69 6e       	gs and BYTE PTR fs:[ecx+0x6e],ch
     a31:	74 00                	je     a33 <.debug_abbrev+0x39>
     a33:	08 76 69             	or     BYTE PTR [esi+0x69],dh
     a36:	64 65 6f             	fs outs dx,DWORD PTR gs:[esi]
     a39:	5f                   	pop    edi
     a3a:	6d                   	ins    DWORD PTR es:[edi],dx
     a3b:	65 6d                	gs ins DWORD PTR es:[edi],dx
     a3d:	6f                   	outs   dx,DWORD PTR ds:[esi]
     a3e:	72 79                	jb     ab9 <.debug_abbrev+0xbf>
     a40:	00 01                	add    BYTE PTR [ecx],al
     a42:	08 0b                	or     BYTE PTR [ebx],cl
     a44:	db 02                	fild   DWORD PTR [edx]
     a46:	00 00                	add    BYTE PTR [eax],al
     a48:	05 03 04 80 10       	add    eax,0x10800403
     a4d:	00 07                	add    BYTE PTR [edi],al
     a4f:	04 28                	add    al,0x28
     a51:	01 00                	add    DWORD PTR [eax],eax
     a53:	00 08                	add    BYTE PTR [eax],cl
     a55:	63 75 72             	arpl   WORD PTR [ebp+0x72],si
     a58:	72 65                	jb     abf <.debug_abbrev+0xc5>
     a5a:	6e                   	outs   dx,BYTE PTR ds:[esi]
     a5b:	74 43                	je     aa0 <.debug_abbrev+0xa6>
     a5d:	6f                   	outs   dx,DWORD PTR ds:[esi]
     a5e:	6c                   	ins    BYTE PTR es:[edi],dx
     a5f:	6f                   	outs   dx,DWORD PTR ds:[esi]
     a60:	72 00                	jb     a62 <.debug_abbrev+0x68>
     a62:	01 09                	add    DWORD PTR [ecx],ecx
     a64:	09 07                	or     DWORD PTR [edi],eax
     a66:	01 00                	add    DWORD PTR [eax],eax
     a68:	00 05 03 08 80 10    	add    BYTE PTR ds:0x10800803,al
     a6e:	00 08                	add    BYTE PTR [eax],cl
     a70:	63 75 72             	arpl   WORD PTR [ebp+0x72],si
     a73:	72 65                	jb     ada <.debug_abbrev+0xe0>
     a75:	6e                   	outs   dx,BYTE PTR ds:[esi]
     a76:	74 58                	je     ad0 <.debug_abbrev+0xd6>
     a78:	00 01                	add    BYTE PTR [ecx],al
     a7a:	0a 09                	or     cl,BYTE PTR [ecx]
     a7c:	07                   	pop    es
     a7d:	01 00                	add    DWORD PTR [eax],eax
     a7f:	00 05 03 01 80 10    	add    BYTE PTR ds:0x10800103,al
     a85:	00 08                	add    BYTE PTR [eax],cl
     a87:	63 75 72             	arpl   WORD PTR [ebp+0x72],si
     a8a:	72 65                	jb     af1 <.debug_abbrev+0xf7>
     a8c:	6e                   	outs   dx,BYTE PTR ds:[esi]
     a8d:	74 59                	je     ae8 <.debug_abbrev+0xee>
     a8f:	00 01                	add    BYTE PTR [ecx],al
     a91:	0b 09                	or     ecx,DWORD PTR [ecx]
     a93:	07                   	pop    es
     a94:	01 00                	add    DWORD PTR [eax],eax
     a96:	00 05 03 00 80 10    	add    BYTE PTR ds:0x10800003,al
     a9c:	00 09                	add    BYTE PTR [ecx],cl
     a9e:	63 6c 72 73          	arpl   WORD PTR [edx+esi*2+0x73],bp
     aa2:	63 72 00             	arpl   WORD PTR [edx+0x0],si
     aa5:	01 45 06             	add    DWORD PTR [ebp+0x6],eax
     aa8:	a8 05                	test   al,0x5
     aaa:	10 00                	adc    BYTE PTR [eax],al
     aac:	95                   	xchg   ebp,eax
     aad:	00 00                	add    BYTE PTR [eax],al
     aaf:	00 01                	add    BYTE PTR [ecx],al
     ab1:	9c                   	pushf  
     ab2:	8d 03                	lea    eax,[ebx]
     ab4:	00 00                	add    BYTE PTR [eax],al
     ab6:	0a ab 05 10 00 71    	or     ch,BYTE PTR [ebx+0x71001005]
     abc:	00 00                	add    BYTE PTR [eax],al
     abe:	00 0b                	add    BYTE PTR [ebx],cl
     ac0:	79 00                	jns    ac2 <.debug_abbrev+0xc8>
     ac2:	01 46 0c             	add    DWORD PTR [esi+0xc],eax
     ac5:	ea 00 00 00 02 91 6c 	jmp    0x6c91:0x2000000
     acc:	0a b5 05 10 00 5b    	or     dh,BYTE PTR [ebp+0x5b001005]
     ad2:	00 00                	add    BYTE PTR [eax],al
     ad4:	00 0b                	add    BYTE PTR [ebx],cl
     ad6:	78 00                	js     ad8 <.debug_abbrev+0xde>
     ad8:	01 47 0e             	add    DWORD PTR [edi+0xe],eax
     adb:	ea 00 00 00 02 91 68 	jmp    0x6891:0x2000000
     ae2:	0a bf 05 10 00 45    	or     bh,BYTE PTR [edi+0x45001005]
     ae8:	00 00                	add    BYTE PTR [eax],al
     aea:	00 0b                	add    BYTE PTR [ebx],cl
     aec:	69 6e 64 65 78 00 01 	imul   ebp,DWORD PTR [esi+0x64],0x1007865
     af3:	48                   	dec    eax
     af4:	11 f1                	adc    ecx,esi
     af6:	00 00                	add    BYTE PTR [eax],al
     af8:	00 02                	add    BYTE PTR [edx],al
     afa:	91                   	xchg   ecx,eax
     afb:	64 00 00             	add    BYTE PTR fs:[eax],al
     afe:	00 00                	add    BYTE PTR [eax],al
     b00:	0c 6b                	or     al,0x6b
     b02:	70 72                	jo     b76 <.debug_abbrev+0x17c>
     b04:	69 6e 74 00 01 3f 05 	imul   ebp,DWORD PTR [esi+0x74],0x53f0100
     b0b:	ea 00 00 00 67 05 10 	jmp    0x1005:0x67000000
     b12:	00 41 00             	add    BYTE PTR [ecx+0x0],al
     b15:	00 00                	add    BYTE PTR [eax],al
     b17:	01 9c d1 03 00 00 0d 	add    DWORD PTR [ecx+edx*8+0xd000003],ebx
     b1e:	73 74                	jae    b94 <.debug_abbrev+0x19a>
     b20:	72 00                	jb     b22 <.debug_abbrev+0x128>
     b22:	01 3f                	add    DWORD PTR [edi],edi
     b24:	13 a5 02 00 00 02    	adc    esp,DWORD PTR [ebp+0x2000002]
     b2a:	91                   	xchg   ecx,eax
     b2b:	00 0a                	add    BYTE PTR [edx],cl
     b2d:	6a 05                	push   0x5
     b2f:	10 00                	adc    BYTE PTR [eax],al
     b31:	39 00                	cmp    DWORD PTR [eax],eax
     b33:	00 00                	add    BYTE PTR [eax],al
     b35:	0b 69 00             	or     ebp,DWORD PTR [ecx+0x0]
     b38:	01 40 0d             	add    DWORD PTR [eax+0xd],eax
     b3b:	ea 00 00 00 02 91 6c 	jmp    0x6c91:0x2000000
     b42:	00 00                	add    BYTE PTR [eax],al
     b44:	0c 70                	or     al,0x70
     b46:	75 74                	jne    bbc <.debug_abbrev+0x1c2>
     b48:	63 00                	arpl   WORD PTR [eax],ax
     b4a:	01 33                	add    DWORD PTR [ebx],esi
     b4c:	05 ea 00 00 00       	add    eax,0xea
     b51:	af                   	scas   eax,DWORD PTR es:[edi]
     b52:	04 10                	add    al,0x10
     b54:	00 b8 00 00 00 01    	add    BYTE PTR [eax+0x1000000],bh
     b5a:	9c                   	pushf  
     b5b:	15 04 00 00 0d       	adc    eax,0xd000004
     b60:	63 00                	arpl   WORD PTR [eax],ax
     b62:	01 33                	add    DWORD PTR [ebx],esi
     b64:	0f 91 02             	setno  BYTE PTR [edx]
     b67:	00 00                	add    BYTE PTR [eax],al
     b69:	02 91 5c 0a d9 04    	add    dl,BYTE PTR [ecx+0x4d90a5c]
     b6f:	10 00                	adc    BYTE PTR [eax],al
     b71:	61                   	popa   
     b72:	00 00                	add    BYTE PTR [eax],al
     b74:	00 0b                	add    BYTE PTR [ebx],cl
     b76:	69 6e 64 65 78 00 01 	imul   ebp,DWORD PTR [esi+0x64],0x1007865
     b7d:	38 13                	cmp    BYTE PTR [ebx],dl
     b7f:	f1                   	icebp  
     b80:	00 00                	add    BYTE PTR [eax],al
     b82:	00 02                	add    BYTE PTR [edx],al
     b84:	91                   	xchg   ecx,eax
     b85:	6c                   	ins    BYTE PTR es:[edi],dx
     b86:	00 00                	add    BYTE PTR [eax],al
     b88:	0e                   	push   cs
     b89:	49                   	dec    ecx
     b8a:	6e                   	outs   dx,BYTE PTR ds:[esi]
     b8b:	69 74 69 61 6c 69 7a 	imul   esi,DWORD PTR [ecx+ebp*2+0x61],0x657a696c
     b92:	65 
     b93:	56                   	push   esi
     b94:	69 64 65 6f 00 01 2c 	imul   esp,DWORD PTR [ebp+eiz*2+0x6f],0x62c0100
     b9b:	06 
     b9c:	76 04                	jbe    ba2 <.debug_abbrev+0x1a8>
     b9e:	10 00                	adc    BYTE PTR [eax],al
     ba0:	39 00                	cmp    DWORD PTR [eax],eax
     ba2:	00 00                	add    BYTE PTR [eax],al
     ba4:	01 9c 0f 6d 61 6b 65 	add    DWORD PTR [edi+ecx*1+0x656b616d],ebx
     bab:	5f                   	pop    edi
     bac:	76 67                	jbe    c15 <.debug_abbrev+0x21b>
     bae:	61                   	popa   
     baf:	65 6e                	outs   dx,BYTE PTR gs:[esi]
     bb1:	74 72                	je     c25 <.debug_line+0x4>
     bb3:	79 00                	jns    bb5 <.debug_abbrev+0x1bb>
     bb5:	01 26                	add    DWORD PTR [esi],esp
     bb7:	07                   	pop    es
     bb8:	dd 00                	fld    QWORD PTR [eax]
     bba:	00 00                	add    BYTE PTR [eax],al
     bbc:	3e 04 10             	ds add al,0x10
     bbf:	00 38                	add    BYTE PTR [eax],bh
     bc1:	00 00                	add    BYTE PTR [eax],al
     bc3:	00 01                	add    BYTE PTR [ecx],al
     bc5:	9c                   	pushf  
     bc6:	98                   	cwde   
     bc7:	04 00                	add    al,0x0
     bc9:	00 0d 63 00 01 26    	add    BYTE PTR ds:0x26010063,cl
     bcf:	1a 91 02 00 00 02    	sbb    dl,BYTE PTR [ecx+0x2000002]
     bd5:	91                   	xchg   ecx,eax
     bd6:	68 0d 63 6f 6c       	push   0x6c6f630d
     bdb:	6f                   	outs   dx,DWORD PTR ds:[esi]
     bdc:	72 00                	jb     bde <.debug_abbrev+0x1e4>
     bde:	01 26                	add    DWORD PTR [esi],esp
     be0:	22 91 02 00 00 02    	and    dl,BYTE PTR [ecx+0x2000002]
     be6:	91                   	xchg   ecx,eax
     be7:	64 0b 63 31          	or     esp,DWORD PTR fs:[ebx+0x31]
     beb:	36 00 01             	add    BYTE PTR ss:[ecx],al
     bee:	27                   	daa    
     bef:	09 dd                	or     ebp,ebx
     bf1:	00 00                	add    BYTE PTR [eax],al
     bf3:	00 02                	add    BYTE PTR [edx],al
     bf5:	91                   	xchg   ecx,eax
     bf6:	7a 0b                	jp     c03 <.debug_abbrev+0x209>
     bf8:	63 6f 6c             	arpl   WORD PTR [edi+0x6c],bp
     bfb:	6f                   	outs   dx,DWORD PTR ds:[esi]
     bfc:	72 31                	jb     c2f <.debug_line+0xe>
     bfe:	36 00 01             	add    BYTE PTR ss:[ecx],al
     c01:	28 09                	sub    BYTE PTR [ecx],cl
     c03:	dd 00                	fld    QWORD PTR [eax]
     c05:	00 00                	add    BYTE PTR [eax],al
     c07:	02 91 78 00 0f 6d    	add    dl,BYTE PTR [ecx+0x6d0f0078]
     c0d:	61                   	popa   
     c0e:	6b 65 5f 63          	imul   esp,DWORD PTR [ebp+0x5f],0x63
     c12:	6f                   	outs   dx,DWORD PTR ds:[esi]
     c13:	6c                   	ins    BYTE PTR es:[edi],dx
     c14:	6f                   	outs   dx,DWORD PTR ds:[esi]
     c15:	72 00                	jb     c17 <.debug_abbrev+0x21d>
     c17:	01 22                	add    DWORD PTR [edx],esp
     c19:	06                   	push   es
     c1a:	91                   	xchg   ecx,eax
     c1b:	02 00                	add    al,BYTE PTR [eax]
     c1d:	00 1d 04 10 00 21    	add    BYTE PTR ds:0x21001004,bl
     c23:	00 00                	add    BYTE PTR [eax],al
     c25:	00 01                	add    BYTE PTR [ecx],al
     c27:	9c                   	pushf  
     c28:	d6                   	(bad)  
     c29:	04 00                	add    al,0x0
     c2b:	00 0d 66 67 00 01    	add    BYTE PTR ds:0x1006766,cl
     c31:	22 16                	and    dl,BYTE PTR [esi]
     c33:	91                   	xchg   ecx,eax
     c34:	02 00                	add    al,BYTE PTR [eax]
     c36:	00 02                	add    BYTE PTR [edx],al
     c38:	91                   	xchg   ecx,eax
     c39:	78 0d                	js     c48 <.debug_line+0x27>
     c3b:	62 67 00             	bound  esp,QWORD PTR [edi+0x0]
     c3e:	01 22                	add    DWORD PTR [edx],esp
     c40:	1f                   	pop    ds
     c41:	91                   	xchg   ecx,eax
     c42:	02 00                	add    al,BYTE PTR [eax]
     c44:	00 02                	add    BYTE PTR [edx],al
     c46:	91                   	xchg   ecx,eax
     c47:	74 00                	je     c49 <.debug_line+0x28>
     c49:	10 73 65             	adc    BYTE PTR [ebx+0x65],dh
     c4c:	74 5f                	je     cad <.debug_line+0x8c>
     c4e:	63 75 72             	arpl   WORD PTR [ebp+0x72],si
     c51:	73 6f                	jae    cc2 <.debug_line+0xa1>
     c53:	72 5f                	jb     cb4 <.debug_line+0x93>
     c55:	6f                   	outs   dx,DWORD PTR ds:[esi]
     c56:	66 66 73 65          	data16 data16 jae cbf <.debug_line+0x9e>
     c5a:	74 00                	je     c5c <.debug_line+0x3b>
     c5c:	01 1a                	add    DWORD PTR [edx],ebx
     c5e:	06                   	push   es
     c5f:	ab                   	stos   DWORD PTR es:[edi],eax
     c60:	03 10                	add    edx,DWORD PTR [eax]
     c62:	00 72 00             	add    BYTE PTR [edx+0x0],dh
     c65:	00 00                	add    BYTE PTR [eax],al
     c67:	01 9c 0d 05 00 00 0d 	add    DWORD PTR [ebp+ecx*1+0xd000005],ebx
     c6e:	6f                   	outs   dx,DWORD PTR ds:[esi]
     c6f:	66 66 73 65          	data16 data16 jae cd8 <.debug_line+0xb7>
     c73:	74 00                	je     c75 <.debug_line+0x54>
     c75:	01 1a                	add    DWORD PTR [edx],ebx
     c77:	1c ea                	sbb    al,0xea
     c79:	00 00                	add    BYTE PTR [eax],al
     c7b:	00 02                	add    BYTE PTR [edx],al
     c7d:	91                   	xchg   ecx,eax
     c7e:	00 00                	add    BYTE PTR [eax],al
     c80:	11 67 65             	adc    DWORD PTR [edi+0x65],esp
     c83:	74 5f                	je     ce4 <.debug_line+0xc3>
     c85:	63 75 72             	arpl   WORD PTR [ebp+0x72],si
     c88:	73 6f                	jae    cf9 <.debug_info+0x1>
     c8a:	72 5f                	jb     ceb <.debug_line+0xca>
     c8c:	6f                   	outs   dx,DWORD PTR ds:[esi]
     c8d:	66 66 73 65          	data16 data16 jae cf6 <.debug_line+0xd5>
     c91:	74 00                	je     c93 <.debug_line+0x72>
     c93:	01 12                	add    DWORD PTR [edx],edx
     c95:	05 ea 00 00 00       	add    eax,0xea
     c9a:	4d                   	dec    ebp
     c9b:	03 10                	add    edx,DWORD PTR [eax]
     c9d:	00 5e 00             	add    BYTE PTR [esi+0x0],bl
     ca0:	00 00                	add    BYTE PTR [eax],al
     ca2:	01 9c 48 05 00 00 0b 	add    DWORD PTR [eax+ecx*2+0xb000005],ebx
     ca9:	6f                   	outs   dx,DWORD PTR ds:[esi]
     caa:	66 66 73 65          	data16 data16 jae d13 <.debug_line+0xa>
     cae:	74 00                	je     cb0 <.debug_line+0x8f>
     cb0:	01 14 09             	add    DWORD PTR [ecx+ecx*1],edx
     cb3:	ea 00 00 00 02 91 6c 	jmp    0x6c91:0x2000000
     cba:	00 12                	add    BYTE PTR [edx],dl
     cbc:	67 65 74 5f          	addr16 gs je d1f <.debug_line+0x16>
     cc0:	6f                   	outs   dx,DWORD PTR ds:[esi]
     cc1:	66 66 73 65          	data16 data16 jae d2a <.debug_line+0x21>
     cc5:	74 00                	je     cc7 <.debug_line+0xa6>
     cc7:	01 0e                	add    DWORD PTR [esi],ecx
     cc9:	05 ea 00 00 00       	add    eax,0xea
     cce:	34 03                	xor    al,0x3
     cd0:	10 00                	adc    BYTE PTR [eax],al
     cd2:	19 00                	sbb    DWORD PTR [eax],eax
     cd4:	00 00                	add    BYTE PTR [eax],al
     cd6:	01 9c 0d 63 6f 6c 00 	add    DWORD PTR [ebp+ecx*1+0x6c6f63],ebx
     cdd:	01 0e                	add    DWORD PTR [esi],ecx
     cdf:	14 ea                	adc    al,0xea
     ce1:	00 00                	add    BYTE PTR [eax],al
     ce3:	00 02                	add    BYTE PTR [edx],al
     ce5:	91                   	xchg   ecx,eax
     ce6:	00 0d 72 6f 77 00    	add    BYTE PTR ds:0x776f72,cl
     cec:	01 0e                	add    DWORD PTR [esi],ecx
     cee:	1d ea 00 00 00       	sbb    eax,0xea
     cf3:	02 91 04 00 00     	add    dl,BYTE PTR [ecx+0x7a000004]

00000cf8 <.debug_info>:
     cf8:	7a 02                	jp     cfc <.debug_info+0x4>
     cfa:	00 00                	add    BYTE PTR [eax],al
     cfc:	04 00                	add    al,0x0
     cfe:	32 02                	xor    al,BYTE PTR [edx]
     d00:	00 00                	add    BYTE PTR [eax],al
     d02:	04 01                	add    al,0x1
     d04:	47                   	inc    edi
     d05:	4e                   	dec    esi
     d06:	55                   	push   ebp
     d07:	20 43 39             	and    BYTE PTR [ebx+0x39],al
     d0a:	39 20                	cmp    DWORD PTR [eax],esp
     d0c:	39 2e                	cmp    DWORD PTR [esi],ebp
     d0e:	33 2d 77 69 6e 33    	xor    ebp,DWORD PTR ds:0x336e6977
     d14:	32 20                	xor    ah,BYTE PTR [eax]
     d16:	32 30                	xor    dh,BYTE PTR [eax]
     d18:	32 30                	xor    dh,BYTE PTR [eax]
     d1a:	30 33                	xor    BYTE PTR [ebx],dh
     d1c:	32 30                	xor    dh,BYTE PTR [eax]
     d1e:	20 2d 6d 33 32 20    	and    BYTE PTR ds:0x2032336d,ch
     d24:	2d 6d 74 75 6e       	sub    eax,0x6e75746d
     d29:	65 3d 67 65 6e 65    	gs cmp eax,0x656e6567
     d2f:	72 69                	jb     d9a <.debug_line+0x91>
     d31:	63 20                	arpl   WORD PTR [eax],sp
     d33:	2d 6d 61 72 63       	sub    eax,0x6372616d
     d38:	68 3d 78 38 36       	push   0x3638783d
     d3d:	2d 36 34 20 2d       	sub    eax,0x2d203436
     d42:	67 20 2d             	and    BYTE PTR [di],ch
     d45:	67 67 64 62 20       	addr16 bound esp,QWORD PTR fs:[bx+si]
     d4a:	2d 73 74 64 3d       	sub    eax,0x3d647473
     d4f:	67 6e                	outs   dx,BYTE PTR ds:[si]
     d51:	75 39                	jne    d8c <.debug_line+0x83>
     d53:	39 20                	cmp    DWORD PTR [eax],esp
     d55:	2d 66 6f 6d 69       	sub    eax,0x696d6f66
     d5a:	74 2d                	je     d89 <.debug_line+0x80>
     d5c:	66 72 61             	data16 jb dc0 <.debug_line+0xb7>
     d5f:	6d                   	ins    DWORD PTR es:[edi],dx
     d60:	65 2d 70 6f 69 6e    	gs sub eax,0x6e696f70
     d66:	74 65                	je     dcd <.debug_line+0xc4>
     d68:	72 20                	jb     d8a <.debug_line+0x81>
     d6a:	2d 66 69 6e 6c       	sub    eax,0x6c6e6966
     d6f:	69 6e 65 2d 66 75 6e 	imul   ebp,DWORD PTR [esi+0x65],0x6e75662d
     d76:	63 74 69 6f          	arpl   WORD PTR [ecx+ebp*2+0x6f],si
     d7a:	6e                   	outs   dx,BYTE PTR ds:[esi]
     d7b:	73 20                	jae    d9d <.debug_line+0x94>
     d7d:	2d 66 66 72 65       	sub    eax,0x65726666
     d82:	65 73 74             	gs jae df9 <.debug_line+0xf0>
     d85:	61                   	popa   
     d86:	6e                   	outs   dx,BYTE PTR ds:[esi]
     d87:	64 69 6e 67 00 0c 73 	imul   ebp,DWORD PTR fs:[esi+0x67],0x72730c00
     d8e:	72 
     d8f:	63 2f                	arpl   WORD PTR [edi],bp
     d91:	6b 65 72 6e          	imul   esp,DWORD PTR [ebp+0x72],0x6e
     d95:	65 6c                	gs ins BYTE PTR es:[edi],dx
     d97:	2f                   	das    
     d98:	70 6f                	jo     e09 <.debug_line+0x100>
     d9a:	72 74                	jb     e10 <.debug_line+0x107>
     d9c:	73 2e                	jae    dcc <.debug_line+0xc3>
     d9e:	63 00                	arpl   WORD PTR [eax],ax
     da0:	2f                   	das    
     da1:	6d                   	ins    DWORD PTR es:[edi],dx
     da2:	6e                   	outs   dx,BYTE PTR ds:[esi]
     da3:	74 2f                	je     dd4 <.debug_line+0xcb>
     da5:	63 2f                	arpl   WORD PTR [edi],bp
     da7:	70 72                	jo     e1b <.debug_line+0x112>
     da9:	6f                   	outs   dx,DWORD PTR ds:[esi]
     daa:	6a 65                	push   0x65
     dac:	63 74 73 2f          	arpl   WORD PTR [ebx+esi*2+0x2f],si
     db0:	6c                   	ins    BYTE PTR es:[edi],dx
     db1:	69 6e 75 78 2f 6f 73 	imul   ebp,DWORD PTR [esi+0x75],0x736f2f78
     db8:	00 40 06             	add    BYTE PTR [eax+0x6],al
     dbb:	10 00                	adc    BYTE PTR [eax],al
     dbd:	88 00                	mov    BYTE PTR [eax],al
     dbf:	00 00                	add    BYTE PTR [eax],al
     dc1:	e2 02                	loop   dc5 <.debug_line+0xbc>
     dc3:	00 00                	add    BYTE PTR [eax],al
     dc5:	02 01                	add    al,BYTE PTR [ecx]
     dc7:	06                   	push   es
     dc8:	73 69                	jae    e33 <.debug_line+0x12a>
     dca:	67 6e                	outs   dx,BYTE PTR ds:[si]
     dcc:	65 64 20 63 68       	gs and BYTE PTR fs:[ebx+0x68],ah
     dd1:	61                   	popa   
     dd2:	72 00                	jb     dd4 <.debug_line+0xcb>
     dd4:	02 02                	add    al,BYTE PTR [edx]
     dd6:	05 73 68 6f 72       	add    eax,0x726f6873
     ddb:	74 20                	je     dfd <.debug_line+0xf4>
     ddd:	69 6e 74 00 02 04 05 	imul   ebp,DWORD PTR [esi+0x74],0x5040200
     de4:	69 6e 74 00 02 08 05 	imul   ebp,DWORD PTR [esi+0x74],0x5080200
     deb:	6c                   	ins    BYTE PTR es:[edi],dx
     dec:	6f                   	outs   dx,DWORD PTR ds:[esi]
     ded:	6e                   	outs   dx,BYTE PTR ds:[esi]
     dee:	67 20 6c 6f          	and    BYTE PTR [si+0x6f],ch
     df2:	6e                   	outs   dx,BYTE PTR ds:[esi]
     df3:	67 20 69 6e          	and    BYTE PTR [bx+di+0x6e],ch
     df7:	74 00                	je     df9 <.debug_line+0xf0>
     df9:	03 75 69             	add    esi,DWORD PTR [ebp+0x69]
     dfc:	6e                   	outs   dx,BYTE PTR ds:[esi]
     dfd:	74 38                	je     e37 <.debug_line+0x12e>
     dff:	5f                   	pop    edi
     e00:	74 00                	je     e02 <.debug_line+0xf9>
     e02:	02 2e                	add    ch,BYTE PTR [esi]
     e04:	18 11                	sbb    BYTE PTR [ecx],dl
     e06:	01 00                	add    DWORD PTR [eax],eax
     e08:	00 02                	add    BYTE PTR [edx],al
     e0a:	01 08                	add    DWORD PTR [eax],ecx
     e0c:	75 6e                	jne    e7c <.debug_line+0x173>
     e0e:	73 69                	jae    e79 <.debug_line+0x170>
     e10:	67 6e                	outs   dx,BYTE PTR ds:[si]
     e12:	65 64 20 63 68       	gs and BYTE PTR fs:[ebx+0x68],ah
     e17:	61                   	popa   
     e18:	72 00                	jb     e1a <.debug_line+0x111>
     e1a:	03 75 69             	add    esi,DWORD PTR [ebp+0x69]
     e1d:	6e                   	outs   dx,BYTE PTR ds:[esi]
     e1e:	74 31                	je     e51 <.debug_line+0x148>
     e20:	36 5f                	ss pop edi
     e22:	74 00                	je     e24 <.debug_line+0x11b>
     e24:	02 31                	add    dh,BYTE PTR [ecx]
     e26:	19 33                	sbb    DWORD PTR [ebx],esi
     e28:	01 00                	add    DWORD PTR [eax],eax
     e2a:	00 02                	add    BYTE PTR [edx],al
     e2c:	02 07                	add    al,BYTE PTR [edi]
     e2e:	73 68                	jae    e98 <.debug_line+0x18f>
     e30:	6f                   	outs   dx,DWORD PTR ds:[esi]
     e31:	72 74                	jb     ea7 <.debug_line+0x19e>
     e33:	20 75 6e             	and    BYTE PTR [ebp+0x6e],dh
     e36:	73 69                	jae    ea1 <.debug_line+0x198>
     e38:	67 6e                	outs   dx,BYTE PTR ds:[si]
     e3a:	65 64 20 69 6e       	gs and BYTE PTR fs:[ecx+0x6e],ch
     e3f:	74 00                	je     e41 <.debug_line+0x138>
     e41:	02 04 07             	add    al,BYTE PTR [edi+eax*1]
     e44:	75 6e                	jne    eb4 <.debug_line+0x1ab>
     e46:	73 69                	jae    eb1 <.debug_line+0x1a8>
     e48:	67 6e                	outs   dx,BYTE PTR ds:[si]
     e4a:	65 64 20 69 6e       	gs and BYTE PTR fs:[ecx+0x6e],ch
     e4f:	74 00                	je     e51 <.debug_line+0x148>
     e51:	02 08                	add    cl,BYTE PTR [eax]
     e53:	07                   	pop    es
     e54:	6c                   	ins    BYTE PTR es:[edi],dx
     e55:	6f                   	outs   dx,DWORD PTR ds:[esi]
     e56:	6e                   	outs   dx,BYTE PTR ds:[esi]
     e57:	67 20 6c 6f          	and    BYTE PTR [si+0x6f],ch
     e5b:	6e                   	outs   dx,BYTE PTR ds:[esi]
     e5c:	67 20 75 6e          	and    BYTE PTR [di+0x6e],dh
     e60:	73 69                	jae    ecb <.debug_line+0x1c2>
     e62:	67 6e                	outs   dx,BYTE PTR ds:[si]
     e64:	65 64 20 69 6e       	gs and BYTE PTR fs:[ecx+0x6e],ch
     e69:	74 00                	je     e6b <.debug_line+0x162>
     e6b:	04 70                	add    al,0x70
     e6d:	6f                   	outs   dx,DWORD PTR ds:[esi]
     e6e:	72 74                	jb     ee4 <.debug_line+0x1db>
     e70:	5f                   	pop    edi
     e71:	77 6f                	ja     ee2 <.debug_line+0x1d9>
     e73:	72 64                	jb     ed9 <.debug_line+0x1d0>
     e75:	5f                   	pop    edi
     e76:	6f                   	outs   dx,DWORD PTR ds:[esi]
     e77:	75 74                	jne    eed <.debug_line+0x5>
     e79:	00 01                	add    BYTE PTR [ecx],al
     e7b:	23 06                	and    eax,DWORD PTR [esi]
     e7d:	a4                   	movs   BYTE PTR es:[edi],BYTE PTR ds:[esi]
     e7e:	06                   	push   es
     e7f:	10 00                	adc    BYTE PTR [eax],al
     e81:	24 00                	and    al,0x0
     e83:	00 00                	add    BYTE PTR [eax],al
     e85:	01 9c b4 01 00 00 05 	add    DWORD PTR [esp+esi*4+0x5000001],ebx
     e8c:	70 6f                	jo     efd <.debug_line+0x15>
     e8e:	72 74                	jb     f04 <.debug_line+0x1c>
     e90:	00 01                	add    BYTE PTR [ecx],al
     e92:	23 1e                	and    ebx,DWORD PTR [esi]
     e94:	22 01                	and    al,BYTE PTR [ecx]
     e96:	00 00                	add    BYTE PTR [eax],al
     e98:	02 91 78 05 64 61    	add    dl,BYTE PTR [ecx+0x61640578]
     e9e:	74 61                	je     f01 <.debug_line+0x19>
     ea0:	00 01                	add    BYTE PTR [ecx],al
     ea2:	23 2d 22 01 00 00    	and    ebp,DWORD PTR ds:0x122
     ea8:	02 91 74 00 06 70    	add    dl,BYTE PTR [ecx+0x70060074]
     eae:	6f                   	outs   dx,DWORD PTR ds:[esi]
     eaf:	72 74                	jb     f25 <.debug_line+0x3d>
     eb1:	5f                   	pop    edi
     eb2:	77 6f                	ja     f23 <.debug_line+0x3b>
     eb4:	72 64                	jb     f1a <.debug_line+0x32>
     eb6:	5f                   	pop    edi
     eb7:	69 6e 00 01 1d 0a 22 	imul   ebp,DWORD PTR [esi+0x0],0x220a1d01
     ebe:	01 00                	add    DWORD PTR [eax],eax
     ec0:	00 83 06 10 00 21    	add    BYTE PTR [ebx+0x21001006],al
     ec6:	00 00                	add    BYTE PTR [eax],al
     ec8:	00 01                	add    BYTE PTR [ecx],al
     eca:	9c                   	pushf  
     ecb:	fa                   	cli    
     ecc:	01 00                	add    DWORD PTR [eax],eax
     ece:	00 05 70 6f 72 74    	add    BYTE PTR ds:0x74726f70,al
     ed4:	00 01                	add    BYTE PTR [ecx],al
     ed6:	1d 21 22 01 00       	sbb    eax,0x12221
     edb:	00 02                	add    BYTE PTR [edx],al
     edd:	91                   	xchg   ecx,eax
     ede:	68 07 72 65 73       	push   0x73657207
     ee3:	75 6c                	jne    f51 <.debug_line+0x69>
     ee5:	74 00                	je     ee7 <.debug_line+0x1de>
     ee7:	01 1e                	add    DWORD PTR [esi],ebx
     ee9:	0e                   	push   cs
     eea:	22 01                	and    al,BYTE PTR [ecx]
     eec:	00 00                	add    BYTE PTR [eax],al
     eee:	02 91 7a 00 04 70    	add    dl,BYTE PTR [ecx+0x7004007a]
     ef4:	6f                   	outs   dx,DWORD PTR ds:[esi]
     ef5:	72 74                	jb     f6b <.debug_line+0x83>
     ef7:	5f                   	pop    edi
     ef8:	62 79 74             	bound  edi,QWORD PTR [ecx+0x74]
     efb:	65 5f                	gs pop edi
     efd:	6f                   	outs   dx,DWORD PTR ds:[esi]
     efe:	75 74                	jne    f74 <.debug_line+0x8c>
     f00:	00 01                	add    BYTE PTR [ecx],al
     f02:	14 06                	adc    al,0x6
     f04:	5f                   	pop    edi
     f05:	06                   	push   es
     f06:	10 00                	adc    BYTE PTR [eax],al
     f08:	24 00                	and    al,0x0
     f0a:	00 00                	add    BYTE PTR [eax],al
     f0c:	01 9c 3b 02 00 00 05 	add    DWORD PTR [ebx+edi*1+0x5000002],ebx
     f13:	70 6f                	jo     f84 <.debug_info+0xe>
     f15:	72 74                	jb     f8b <.debug_info+0x15>
     f17:	00 01                	add    BYTE PTR [ecx],al
     f19:	14 1e                	adc    al,0x1e
     f1b:	22 01                	and    al,BYTE PTR [ecx]
     f1d:	00 00                	add    BYTE PTR [eax],al
     f1f:	02 91 78 05 64 61    	add    dl,BYTE PTR [ecx+0x61640578]
     f25:	74 61                	je     f88 <.debug_info+0x12>
     f27:	00 01                	add    BYTE PTR [ecx],al
     f29:	14 2c                	adc    al,0x2c
     f2b:	01 01                	add    DWORD PTR [ecx],eax
     f2d:	00 00                	add    BYTE PTR [eax],al
     f2f:	02 91 74 00 08 70    	add    dl,BYTE PTR [ecx+0x70080074]
     f35:	6f                   	outs   dx,DWORD PTR ds:[esi]
     f36:	72 74                	jb     fac <.debug_info+0x36>
     f38:	5f                   	pop    edi
     f39:	62 79 74             	bound  edi,QWORD PTR [ecx+0x74]
     f3c:	65 5f                	gs pop edi
     f3e:	69 6e 00 01 06 09 01 	imul   ebp,DWORD PTR [esi+0x0],0x1090601
     f45:	01 00                	add    DWORD PTR [eax],eax
     f47:	00 40 06             	add    BYTE PTR [eax+0x6],al
     f4a:	10 00                	adc    BYTE PTR [eax],al
     f4c:	1f                   	pop    ds
     f4d:	00 00                	add    BYTE PTR [eax],al
     f4f:	00 01                	add    BYTE PTR [ecx],al
     f51:	9c                   	pushf  
     f52:	05 70 6f 72 74       	add    eax,0x74726f70
     f57:	00 01                	add    BYTE PTR [ecx],al
     f59:	06                   	push   es
     f5a:	20 22                	and    BYTE PTR [edx],ah
     f5c:	01 00                	add    DWORD PTR [eax],eax
     f5e:	00 02                	add    BYTE PTR [edx],al
     f60:	91                   	xchg   ecx,eax
     f61:	68 07 72 65 73       	push   0x73657207
     f66:	75 6c                	jne    fd4 <.debug_line+0x24>
     f68:	74 00                	je     f6a <.debug_line+0x82>
     f6a:	01 07                	add    DWORD PTR [edi],eax
     f6c:	0d 01 01 00 00       	or     eax,0x101
     f71:	02 91 7b 00 00     	add    dl,BYTE PTR [ecx-0x62ffff85]

00000f76 <.debug_info>:
     f76:	9d                   	popf   
     f77:	02 00                	add    al,BYTE PTR [eax]
     f79:	00 04 00             	add    BYTE PTR [eax+eax*1],al
     f7c:	d8 02                	fadd   DWORD PTR [edx]
     f7e:	00 00                	add    BYTE PTR [eax],al
     f80:	04 01                	add    al,0x1
     f82:	47                   	inc    edi
     f83:	4e                   	dec    esi
     f84:	55                   	push   ebp
     f85:	20 43 39             	and    BYTE PTR [ebx+0x39],al
     f88:	39 20                	cmp    DWORD PTR [eax],esp
     f8a:	39 2e                	cmp    DWORD PTR [esi],ebp
     f8c:	33 2d 77 69 6e 33    	xor    ebp,DWORD PTR ds:0x336e6977
     f92:	32 20                	xor    ah,BYTE PTR [eax]
     f94:	32 30                	xor    dh,BYTE PTR [eax]
     f96:	32 30                	xor    dh,BYTE PTR [eax]
     f98:	30 33                	xor    BYTE PTR [ebx],dh
     f9a:	32 30                	xor    dh,BYTE PTR [eax]
     f9c:	20 2d 6d 33 32 20    	and    BYTE PTR ds:0x2032336d,ch
     fa2:	2d 6d 74 75 6e       	sub    eax,0x6e75746d
     fa7:	65 3d 67 65 6e 65    	gs cmp eax,0x656e6567
     fad:	72 69                	jb     1018 <__section_alignment__+0x18>
     faf:	63 20                	arpl   WORD PTR [eax],sp
     fb1:	2d 6d 61 72 63       	sub    eax,0x6372616d
     fb6:	68 3d 78 38 36       	push   0x3638783d
     fbb:	2d 36 34 20 2d       	sub    eax,0x2d203436
     fc0:	67 20 2d             	and    BYTE PTR [di],ch
     fc3:	67 67 64 62 20       	addr16 bound esp,QWORD PTR fs:[bx+si]
     fc8:	2d 73 74 64 3d       	sub    eax,0x3d647473
     fcd:	67 6e                	outs   dx,BYTE PTR ds:[si]
     fcf:	75 39                	jne    100a <__section_alignment__+0xa>
     fd1:	39 20                	cmp    DWORD PTR [eax],esp
     fd3:	2d 66 6f 6d 69       	sub    eax,0x696d6f66
     fd8:	74 2d                	je     1007 <__section_alignment__+0x7>
     fda:	66 72 61             	data16 jb 103e <__section_alignment__+0x3e>
     fdd:	6d                   	ins    DWORD PTR es:[edi],dx
     fde:	65 2d 70 6f 69 6e    	gs sub eax,0x6e696f70
     fe4:	74 65                	je     104b <__section_alignment__+0x4b>
     fe6:	72 20                	jb     1008 <__section_alignment__+0x8>
     fe8:	2d 66 69 6e 6c       	sub    eax,0x6c6e6966
     fed:	69 6e 65 2d 66 75 6e 	imul   ebp,DWORD PTR [esi+0x65],0x6e75662d
     ff4:	63 74 69 6f          	arpl   WORD PTR [ecx+ebp*2+0x6f],si
     ff8:	6e                   	outs   dx,BYTE PTR ds:[esi]
     ff9:	73 20                	jae    101b <__section_alignment__+0x1b>
     ffb:	2d 66 66 72 65       	sub    eax,0x65726666
    1000:	65 73 74             	gs jae 1077 <.debug_line+0xb>
    1003:	61                   	popa   
    1004:	6e                   	outs   dx,BYTE PTR ds:[esi]
    1005:	64 69 6e 67 00 0c 73 	imul   ebp,DWORD PTR fs:[esi+0x67],0x72730c00
    100c:	72 
    100d:	63 2f                	arpl   WORD PTR [edi],bp
    100f:	6b 65 72 6e          	imul   esp,DWORD PTR [ebp+0x72],0x6e
    1013:	65 6c                	gs ins BYTE PTR es:[edi],dx
    1015:	2f                   	das    
    1016:	6d                   	ins    DWORD PTR es:[edi],dx
    1017:	65 6d                	gs ins DWORD PTR es:[edi],dx
    1019:	2e 63 00             	arpl   WORD PTR cs:[eax],ax
    101c:	2f                   	das    
    101d:	6d                   	ins    DWORD PTR es:[edi],dx
    101e:	6e                   	outs   dx,BYTE PTR ds:[esi]
    101f:	74 2f                	je     1050 <__section_alignment__+0x50>
    1021:	63 2f                	arpl   WORD PTR [edi],bp
    1023:	70 72                	jo     1097 <.debug_line+0x2b>
    1025:	6f                   	outs   dx,DWORD PTR ds:[esi]
    1026:	6a 65                	push   0x65
    1028:	63 74 73 2f          	arpl   WORD PTR [ebx+esi*2+0x2f],si
    102c:	6c                   	ins    BYTE PTR es:[edi],dx
    102d:	69 6e 75 78 2f 6f 73 	imul   ebp,DWORD PTR [esi+0x75],0x736f2f78
    1034:	00 c8                	add    al,cl
    1036:	06                   	push   es
    1037:	10 00                	adc    BYTE PTR [eax],al
    1039:	c1 00 00             	rol    DWORD PTR [eax],0x0
    103c:	00 91 03 00 00 02    	add    BYTE PTR [ecx+0x2000003],dl
    1042:	01 06                	add    DWORD PTR [esi],eax
    1044:	73 69                	jae    10af <.debug_line+0x43>
    1046:	67 6e                	outs   dx,BYTE PTR ds:[si]
    1048:	65 64 20 63 68       	gs and BYTE PTR fs:[ebx+0x68],ah
    104d:	61                   	popa   
    104e:	72 00                	jb     1050 <__section_alignment__+0x50>
    1050:	02 02                	add    al,BYTE PTR [edx]
    1052:	05 73 68 6f 72       	add    eax,0x726f6873
    1057:	74 20                	je     1079 <.debug_line+0xd>
    1059:	69 6e 74 00 02 04 05 	imul   ebp,DWORD PTR [esi+0x74],0x5040200
    1060:	69 6e 74 00 02 08 05 	imul   ebp,DWORD PTR [esi+0x74],0x5080200
    1067:	6c                   	ins    BYTE PTR es:[edi],dx
    1068:	6f                   	outs   dx,DWORD PTR ds:[esi]
    1069:	6e                   	outs   dx,BYTE PTR ds:[esi]
    106a:	67 20 6c 6f          	and    BYTE PTR [si+0x6f],ch
    106e:	6e                   	outs   dx,BYTE PTR ds:[esi]
    106f:	67 20 69 6e          	and    BYTE PTR [bx+di+0x6e],ch
    1073:	74 00                	je     1075 <.debug_line+0x9>
    1075:	03 75 69             	add    esi,DWORD PTR [ebp+0x69]
    1078:	6e                   	outs   dx,BYTE PTR ds:[esi]
    1079:	74 38                	je     10b3 <.debug_line+0x47>
    107b:	5f                   	pop    edi
    107c:	74 00                	je     107e <.debug_line+0x12>
    107e:	02 2e                	add    ch,BYTE PTR [esi]
    1080:	18 0f                	sbb    BYTE PTR [edi],cl
    1082:	01 00                	add    DWORD PTR [eax],eax
    1084:	00 02                	add    BYTE PTR [edx],al
    1086:	01 08                	add    DWORD PTR [eax],ecx
    1088:	75 6e                	jne    10f8 <.debug_line+0x8c>
    108a:	73 69                	jae    10f5 <.debug_line+0x89>
    108c:	67 6e                	outs   dx,BYTE PTR ds:[si]
    108e:	65 64 20 63 68       	gs and BYTE PTR fs:[ebx+0x68],ah
    1093:	61                   	popa   
    1094:	72 00                	jb     1096 <.debug_line+0x2a>
    1096:	02 02                	add    al,BYTE PTR [edx]
    1098:	07                   	pop    es
    1099:	73 68                	jae    1103 <.debug_line+0x97>
    109b:	6f                   	outs   dx,DWORD PTR ds:[esi]
    109c:	72 74                	jb     1112 <.debug_line+0xa6>
    109e:	20 75 6e             	and    BYTE PTR [ebp+0x6e],dh
    10a1:	73 69                	jae    110c <.debug_line+0xa0>
    10a3:	67 6e                	outs   dx,BYTE PTR ds:[si]
    10a5:	65 64 20 69 6e       	gs and BYTE PTR fs:[ecx+0x6e],ch
    10aa:	74 00                	je     10ac <.debug_line+0x40>
    10ac:	02 04 07             	add    al,BYTE PTR [edi+eax*1]
    10af:	75 6e                	jne    111f <.debug_line+0xb3>
    10b1:	73 69                	jae    111c <.debug_line+0xb0>
    10b3:	67 6e                	outs   dx,BYTE PTR ds:[si]
    10b5:	65 64 20 69 6e       	gs and BYTE PTR fs:[ecx+0x6e],ch
    10ba:	74 00                	je     10bc <.debug_line+0x50>
    10bc:	02 08                	add    cl,BYTE PTR [eax]
    10be:	07                   	pop    es
    10bf:	6c                   	ins    BYTE PTR es:[edi],dx
    10c0:	6f                   	outs   dx,DWORD PTR ds:[esi]
    10c1:	6e                   	outs   dx,BYTE PTR ds:[esi]
    10c2:	67 20 6c 6f          	and    BYTE PTR [si+0x6f],ch
    10c6:	6e                   	outs   dx,BYTE PTR ds:[esi]
    10c7:	67 20 75 6e          	and    BYTE PTR [di+0x6e],dh
    10cb:	73 69                	jae    1136 <.debug_line+0xca>
    10cd:	67 6e                	outs   dx,BYTE PTR ds:[si]
    10cf:	65 64 20 69 6e       	gs and BYTE PTR fs:[ecx+0x6e],ch
    10d4:	74 00                	je     10d6 <.debug_line+0x6a>
    10d6:	04 6d                	add    al,0x6d
    10d8:	65 6d                	gs ins DWORD PTR es:[edi],dx
    10da:	73 65                	jae    1141 <.debug_line+0xd5>
    10dc:	74 00                	je     10de <.debug_line+0x72>
    10de:	01 16                	add    DWORD PTR [esi],edx
    10e0:	07                   	pop    es
    10e1:	b9 01 00 00 50       	mov    ecx,0x50000001
    10e6:	07                   	pop    es
    10e7:	10 00                	adc    BYTE PTR [eax],al
    10e9:	39 00                	cmp    DWORD PTR [eax],eax
    10eb:	00 00                	add    BYTE PTR [eax],al
    10ed:	01 9c b9 01 00 00 05 	add    DWORD PTR [ecx+edi*4+0x5000001],ebx
    10f4:	64 73 74             	fs jae 116b <.debug_line+0xff>
    10f7:	00 01                	add    BYTE PTR [ecx],al
    10f9:	16                   	push   ss
    10fa:	14 b9                	adc    al,0xb9
    10fc:	01 00                	add    DWORD PTR [eax],eax
    10fe:	00 02                	add    BYTE PTR [edx],al
    1100:	91                   	xchg   ecx,eax
    1101:	00 05 76 61 6c 00    	add    BYTE PTR ds:0x6c6176,al
    1107:	01 16                	add    DWORD PTR [esi],edx
    1109:	1d bb 01 00 00       	sbb    eax,0x1bb
    110e:	02 91 68 05 6e 00    	add    dl,BYTE PTR [ecx+0x6e0568]
    1114:	01 16                	add    DWORD PTR [esi],edx
    1116:	26 e7 00             	es out 0x0,eax
    1119:	00 00                	add    BYTE PTR [eax],al
    111b:	02 91 08 06 74 65    	add    dl,BYTE PTR [ecx+0x65740608]
    1121:	6d                   	ins    DWORD PTR es:[edi],dx
    1122:	70 00                	jo     1124 <.debug_line+0xb8>
    1124:	01 17                	add    DWORD PTR [edi],edx
    1126:	0b c8                	or     ecx,eax
    1128:	01 00                	add    DWORD PTR [eax],eax
    112a:	00 02                	add    BYTE PTR [edx],al
    112c:	91                   	xchg   ecx,eax
    112d:	78 00                	js     112f <.debug_line+0xc3>
    112f:	07                   	pop    es
    1130:	04 02                	add    al,0x2
    1132:	01 06                	add    DWORD PTR [esi],eax
    1134:	63 68 61             	arpl   WORD PTR [eax+0x61],bp
    1137:	72 00                	jb     1139 <.debug_line+0xcd>
    1139:	08 bb 01 00 00 09    	or     BYTE PTR [ebx+0x9000001],bh
    113f:	04 bb                	add    al,0xbb
    1141:	01 00                	add    DWORD PTR [eax],eax
    1143:	00 04 6d 65 6d 63 70 	add    BYTE PTR [ebp*2+0x70636d65],al
    114a:	79 00                	jns    114c <.debug_line+0xe0>
    114c:	01 0d 07 b9 01 00    	add    DWORD PTR ds:0x1b907,ecx
    1152:	00 01                	add    BYTE PTR [ecx],al
    1154:	07                   	pop    es
    1155:	10 00                	adc    BYTE PTR [eax],al
    1157:	4f                   	dec    edi
    1158:	00 00                	add    BYTE PTR [eax],al
    115a:	00 01                	add    BYTE PTR [ecx],al
    115c:	9c                   	pushf  
    115d:	40                   	inc    eax
    115e:	02 00                	add    al,BYTE PTR [eax]
    1160:	00 05 64 73 74 00    	add    BYTE PTR ds:0x747364,al
    1166:	01 0d 14 b9 01 00    	add    DWORD PTR ds:0x1b914,ecx
    116c:	00 02                	add    BYTE PTR [edx],al
    116e:	91                   	xchg   ecx,eax
    116f:	00 05 73 72 63 00    	add    BYTE PTR ds:0x637273,al
    1175:	01 0d 25 40 02 00    	add    DWORD PTR ds:0x24025,ecx
    117b:	00 02                	add    BYTE PTR [edx],al
    117d:	91                   	xchg   ecx,eax
    117e:	04 05                	add    al,0x5
    1180:	6e                   	outs   dx,BYTE PTR ds:[esi]
    1181:	00 01                	add    BYTE PTR [ecx],al
    1183:	0d 2e e7 00 00       	or     eax,0xe72e
    1188:	00 02                	add    BYTE PTR [edx],al
    118a:	91                   	xchg   ecx,eax
    118b:	08 06                	or     BYTE PTR [esi],al
    118d:	72 65                	jb     11f4 <.debug_line+0x188>
    118f:	74 00                	je     1191 <.debug_line+0x125>
    1191:	01 0e                	add    DWORD PTR [esi],ecx
    1193:	0c c8                	or     al,0xc8
    1195:	01 00                	add    DWORD PTR [eax],eax
    1197:	00 02                	add    BYTE PTR [edx],al
    1199:	91                   	xchg   ecx,eax
    119a:	70 06                	jo     11a2 <.debug_line+0x136>
    119c:	70 00                	jo     119e <.debug_line+0x132>
    119e:	01 0f                	add    DWORD PTR [edi],ecx
    11a0:	0c c8                	or     al,0xc8
    11a2:	01 00                	add    DWORD PTR [eax],eax
    11a4:	00 02                	add    BYTE PTR [edx],al
    11a6:	91                   	xchg   ecx,eax
    11a7:	78 06                	js     11af <.debug_line+0x143>
    11a9:	71 00                	jno    11ab <.debug_line+0x13f>
    11ab:	01 10                	add    DWORD PTR [eax],edx
    11ad:	12 47 02             	adc    al,BYTE PTR [edi+0x2]
    11b0:	00 00                	add    BYTE PTR [eax],al
    11b2:	02 91 74 00 09 04    	add    dl,BYTE PTR [ecx+0x4090074]
    11b8:	46                   	inc    esi
    11b9:	02 00                	add    al,BYTE PTR [eax]
    11bb:	00 0a                	add    BYTE PTR [edx],cl
    11bd:	09 04 c3             	or     DWORD PTR [ebx+eax*8],eax
    11c0:	01 00                	add    DWORD PTR [eax],eax
    11c2:	00 04 6d 65 6d 63 6d 	add    BYTE PTR [ebp*2+0x6d636d65],al
    11c9:	70 00                	jo     11cb <.debug_line+0x15f>
    11cb:	01 03                	add    DWORD PTR [ebx],eax
    11cd:	05 e7 00 00 00       	add    eax,0xe7
    11d2:	c8 06 10 00          	enter  0x1006,0x0
    11d6:	39 00                	cmp    DWORD PTR [eax],eax
    11d8:	00 00                	add    BYTE PTR [eax],al
    11da:	01 9c 9a 02 00 00 05 	add    DWORD PTR [edx+ebx*4+0x5000002],ebx
    11e1:	64 61                	fs popa 
    11e3:	74 61                	je     1246 <.debug_info+0x2f>
    11e5:	31 00                	xor    DWORD PTR [eax],eax
    11e7:	01 03                	add    DWORD PTR [ebx],eax
    11e9:	16                   	push   ss
    11ea:	9a 02 00 00 02 91 00 	call   0x91:0x2000002
    11f1:	05 64 61 74 61       	add    eax,0x61746164
    11f6:	32 00                	xor    al,BYTE PTR [eax]
    11f8:	01 03                	add    DWORD PTR [ebx],eax
    11fa:	27                   	daa    
    11fb:	9a 02 00 00 02 91 04 	call   0x491:0x2000002
    1202:	05 6e 00 01 03       	add    eax,0x301006e
    1207:	32 e7                	xor    ah,bh
    1209:	00 00                	add    BYTE PTR [eax],al
    120b:	00 02                	add    BYTE PTR [edx],al
    120d:	91                   	xchg   ecx,eax
    120e:	08 00                	or     BYTE PTR [eax],al
    1210:	09 04 ff             	or     DWORD PTR [edi+edi*8],eax
    1213:	00 00                	add    BYTE PTR [eax],al
	...

00001217 <.debug_info>:
    1217:	f1                   	icebp  
    1218:	05 00 00 04 00       	add    eax,0x40000
    121d:	62 03                	bound  eax,QWORD PTR [ebx]
    121f:	00 00                	add    BYTE PTR [eax],al
    1221:	04 01                	add    al,0x1
    1223:	47                   	inc    edi
    1224:	4e                   	dec    esi
    1225:	55                   	push   ebp
    1226:	20 43 39             	and    BYTE PTR [ebx+0x39],al
    1229:	39 20                	cmp    DWORD PTR [eax],esp
    122b:	39 2e                	cmp    DWORD PTR [esi],ebp
    122d:	33 2d 77 69 6e 33    	xor    ebp,DWORD PTR ds:0x336e6977
    1233:	32 20                	xor    ah,BYTE PTR [eax]
    1235:	32 30                	xor    dh,BYTE PTR [eax]
    1237:	32 30                	xor    dh,BYTE PTR [eax]
    1239:	30 33                	xor    BYTE PTR [ebx],dh
    123b:	32 30                	xor    dh,BYTE PTR [eax]
    123d:	20 2d 6d 33 32 20    	and    BYTE PTR ds:0x2032336d,ch
    1243:	2d 6d 74 75 6e       	sub    eax,0x6e75746d
    1248:	65 3d 67 65 6e 65    	gs cmp eax,0x656e6567
    124e:	72 69                	jb     12b9 <.debug_info+0xa2>
    1250:	63 20                	arpl   WORD PTR [eax],sp
    1252:	2d 6d 61 72 63       	sub    eax,0x6372616d
    1257:	68 3d 78 38 36       	push   0x3638783d
    125c:	2d 36 34 20 2d       	sub    eax,0x2d203436
    1261:	67 20 2d             	and    BYTE PTR [di],ch
    1264:	67 67 64 62 20       	addr16 bound esp,QWORD PTR fs:[bx+si]
    1269:	2d 73 74 64 3d       	sub    eax,0x3d647473
    126e:	67 6e                	outs   dx,BYTE PTR ds:[si]
    1270:	75 39                	jne    12ab <.debug_info+0x94>
    1272:	39 20                	cmp    DWORD PTR [eax],esp
    1274:	2d 66 6f 6d 69       	sub    eax,0x696d6f66
    1279:	74 2d                	je     12a8 <.debug_info+0x91>
    127b:	66 72 61             	data16 jb 12df <.debug_info+0xc8>
    127e:	6d                   	ins    DWORD PTR es:[edi],dx
    127f:	65 2d 70 6f 69 6e    	gs sub eax,0x6e696f70
    1285:	74 65                	je     12ec <.debug_info+0xd5>
    1287:	72 20                	jb     12a9 <.debug_info+0x92>
    1289:	2d 66 69 6e 6c       	sub    eax,0x6c6e6966
    128e:	69 6e 65 2d 66 75 6e 	imul   ebp,DWORD PTR [esi+0x65],0x6e75662d
    1295:	63 74 69 6f          	arpl   WORD PTR [ecx+ebp*2+0x6f],si
    1299:	6e                   	outs   dx,BYTE PTR ds:[esi]
    129a:	73 20                	jae    12bc <.debug_info+0xa5>
    129c:	2d 66 66 72 65       	sub    eax,0x65726666
    12a1:	65 73 74             	gs jae 1318 <.debug_info+0x101>
    12a4:	61                   	popa   
    12a5:	6e                   	outs   dx,BYTE PTR ds:[esi]
    12a6:	64 69 6e 67 00 0c 73 	imul   ebp,DWORD PTR fs:[esi+0x67],0x72730c00
    12ad:	72 
    12ae:	63 2f                	arpl   WORD PTR [edi],bp
    12b0:	6b 65 72 6e          	imul   esp,DWORD PTR [ebp+0x72],0x6e
    12b4:	65 6c                	gs ins BYTE PTR es:[edi],dx
    12b6:	2f                   	das    
    12b7:	73 74                	jae    132d <.debug_info+0x116>
    12b9:	72 69                	jb     1324 <.debug_info+0x10d>
    12bb:	6e                   	outs   dx,BYTE PTR ds:[esi]
    12bc:	67 2e 63 00          	arpl   WORD PTR cs:[bx+si],ax
    12c0:	2f                   	das    
    12c1:	6d                   	ins    DWORD PTR es:[edi],dx
    12c2:	6e                   	outs   dx,BYTE PTR ds:[esi]
    12c3:	74 2f                	je     12f4 <.debug_info+0xdd>
    12c5:	63 2f                	arpl   WORD PTR [edi],bp
    12c7:	70 72                	jo     133b <.debug_info+0x124>
    12c9:	6f                   	outs   dx,DWORD PTR ds:[esi]
    12ca:	6a 65                	push   0x65
    12cc:	63 74 73 2f          	arpl   WORD PTR [ebx+esi*2+0x2f],si
    12d0:	6c                   	ins    BYTE PTR es:[edi],dx
    12d1:	69 6e 75 78 2f 6f 73 	imul   ebp,DWORD PTR [esi+0x75],0x736f2f78
    12d8:	00 8c 07 10 00 58 05 	add    BYTE PTR [edi+eax*1+0x5580010],cl
    12df:	00 00                	add    BYTE PTR [eax],al
    12e1:	82 04 00 00          	add    BYTE PTR [eax+eax*1],0x0
    12e5:	02 01                	add    al,BYTE PTR [ecx]
    12e7:	06                   	push   es
    12e8:	73 69                	jae    1353 <.debug_info+0x13c>
    12ea:	67 6e                	outs   dx,BYTE PTR ds:[si]
    12ec:	65 64 20 63 68       	gs and BYTE PTR fs:[ebx+0x68],ah
    12f1:	61                   	popa   
    12f2:	72 00                	jb     12f4 <.debug_info+0xdd>
    12f4:	02 02                	add    al,BYTE PTR [edx]
    12f6:	05 73 68 6f 72       	add    eax,0x726f6873
    12fb:	74 20                	je     131d <.debug_info+0x106>
    12fd:	69 6e 74 00 02 04 05 	imul   ebp,DWORD PTR [esi+0x74],0x5040200
    1304:	69 6e 74 00 02 08 05 	imul   ebp,DWORD PTR [esi+0x74],0x5080200
    130b:	6c                   	ins    BYTE PTR es:[edi],dx
    130c:	6f                   	outs   dx,DWORD PTR ds:[esi]
    130d:	6e                   	outs   dx,BYTE PTR ds:[esi]
    130e:	67 20 6c 6f          	and    BYTE PTR [si+0x6f],ch
    1312:	6e                   	outs   dx,BYTE PTR ds:[esi]
    1313:	67 20 69 6e          	and    BYTE PTR [bx+di+0x6e],ch
    1317:	74 00                	je     1319 <.debug_info+0x102>
    1319:	02 01                	add    al,BYTE PTR [ecx]
    131b:	08 75 6e             	or     BYTE PTR [ebp+0x6e],dh
    131e:	73 69                	jae    1389 <.debug_info+0x172>
    1320:	67 6e                	outs   dx,BYTE PTR ds:[si]
    1322:	65 64 20 63 68       	gs and BYTE PTR fs:[ebx+0x68],ah
    1327:	61                   	popa   
    1328:	72 00                	jb     132a <.debug_info+0x113>
    132a:	02 02                	add    al,BYTE PTR [edx]
    132c:	07                   	pop    es
    132d:	73 68                	jae    1397 <.debug_info+0x180>
    132f:	6f                   	outs   dx,DWORD PTR ds:[esi]
    1330:	72 74                	jb     13a6 <.debug_info+0x18f>
    1332:	20 75 6e             	and    BYTE PTR [ebp+0x6e],dh
    1335:	73 69                	jae    13a0 <.debug_info+0x189>
    1337:	67 6e                	outs   dx,BYTE PTR ds:[si]
    1339:	65 64 20 69 6e       	gs and BYTE PTR fs:[ecx+0x6e],ch
    133e:	74 00                	je     1340 <.debug_info+0x129>
    1340:	03 75 69             	add    esi,DWORD PTR [ebp+0x69]
    1343:	6e                   	outs   dx,BYTE PTR ds:[esi]
    1344:	74 33                	je     1379 <.debug_info+0x162>
    1346:	32 5f 74             	xor    bl,BYTE PTR [edi+0x74]
    1349:	00 02                	add    BYTE PTR [edx],al
    134b:	34 19                	xor    al,0x19
    134d:	3a 01                	cmp    al,BYTE PTR [ecx]
    134f:	00 00                	add    BYTE PTR [eax],al
    1351:	02 04 07             	add    al,BYTE PTR [edi+eax*1]
    1354:	75 6e                	jne    13c4 <.debug_info+0x1ad>
    1356:	73 69                	jae    13c1 <.debug_info+0x1aa>
    1358:	67 6e                	outs   dx,BYTE PTR ds:[si]
    135a:	65 64 20 69 6e       	gs and BYTE PTR fs:[ecx+0x6e],ch
    135f:	74 00                	je     1361 <.debug_info+0x14a>
    1361:	02 08                	add    cl,BYTE PTR [eax]
    1363:	07                   	pop    es
    1364:	6c                   	ins    BYTE PTR es:[edi],dx
    1365:	6f                   	outs   dx,DWORD PTR ds:[esi]
    1366:	6e                   	outs   dx,BYTE PTR ds:[esi]
    1367:	67 20 6c 6f          	and    BYTE PTR [si+0x6f],ch
    136b:	6e                   	outs   dx,BYTE PTR ds:[esi]
    136c:	67 20 75 6e          	and    BYTE PTR [di+0x6e],dh
    1370:	73 69                	jae    13db <.debug_info+0x1c4>
    1372:	67 6e                	outs   dx,BYTE PTR ds:[si]
    1374:	65 64 20 69 6e       	gs and BYTE PTR fs:[ecx+0x6e],ch
    1379:	74 00                	je     137b <.debug_info+0x164>
    137b:	02 01                	add    al,BYTE PTR [ecx]
    137d:	06                   	push   es
    137e:	63 68 61             	arpl   WORD PTR [eax+0x61],bp
    1381:	72 00                	jb     1383 <.debug_info+0x16c>
    1383:	04 64                	add    al,0x64
    1385:	01 00                	add    DWORD PTR [eax],eax
    1387:	00 02                	add    BYTE PTR [edx],al
    1389:	04 05                	add    al,0x5
    138b:	6c                   	ins    BYTE PTR es:[edi],dx
    138c:	6f                   	outs   dx,DWORD PTR ds:[esi]
    138d:	6e                   	outs   dx,BYTE PTR ds:[esi]
    138e:	67 20 69 6e          	and    BYTE PTR [bx+di+0x6e],ch
    1392:	74 00                	je     1394 <.debug_info+0x17d>
    1394:	05 04 64 01 00       	add    eax,0x16404
    1399:	00 02                	add    BYTE PTR [edx],al
    139b:	04 07                	add    al,0x7
    139d:	6c                   	ins    BYTE PTR es:[edi],dx
    139e:	6f                   	outs   dx,DWORD PTR ds:[esi]
    139f:	6e                   	outs   dx,BYTE PTR ds:[esi]
    13a0:	67 20 75 6e          	and    BYTE PTR [di+0x6e],dh
    13a4:	73 69                	jae    140f <.debug_info+0x1f8>
    13a6:	67 6e                	outs   dx,BYTE PTR ds:[si]
    13a8:	65 64 20 69 6e       	gs and BYTE PTR fs:[ecx+0x6e],ch
    13ad:	74 00                	je     13af <.debug_info+0x198>
    13af:	06                   	push   es
    13b0:	73 74                	jae    1426 <.debug_info+0x20f>
    13b2:	72 73                	jb     1427 <.debug_info+0x210>
    13b4:	65 70 00             	gs jo  13b7 <.debug_info+0x1a0>
    13b7:	01 b4 07 7d 01 00 00 	add    DWORD PTR [edi+eax*1+0x17d],esi
    13be:	4d                   	dec    ebp
    13bf:	0c 10                	or     al,0x10
    13c1:	00 97 00 00 00 01    	add    BYTE PTR [edi+0x1000000],dl
    13c7:	9c                   	pushf  
    13c8:	22 02                	and    al,BYTE PTR [edx]
    13ca:	00 00                	add    BYTE PTR [eax],al
    13cc:	07                   	pop    es
    13cd:	73 74                	jae    1443 <.debug_info+0x22c>
    13cf:	72 69                	jb     143a <.debug_info+0x223>
    13d1:	6e                   	outs   dx,BYTE PTR ds:[esi]
    13d2:	67 70 00             	addr16 jo 13d5 <.debug_info+0x1be>
    13d5:	01 b4 15 22 02 00 00 	add    DWORD PTR [ebp+edx*1+0x222],esi
    13dc:	02 91 00 07 64 65    	add    dl,BYTE PTR [ecx+0x65640700]
    13e2:	6c                   	ins    BYTE PTR es:[edi],dx
    13e3:	69 6d 00 01 b4 2a 28 	imul   ebp,DWORD PTR [ebp+0x0],0x282ab401
    13ea:	02 00                	add    al,BYTE PTR [eax]
    13ec:	00 02                	add    BYTE PTR [edx],al
    13ee:	91                   	xchg   ecx,eax
    13ef:	04 08                	add    al,0x8
    13f1:	73 00                	jae    13f3 <.debug_info+0x1dc>
    13f3:	01 b5 0b 7d 01 00    	add    DWORD PTR [ebp+0x17d0b],esi
    13f9:	00 02                	add    BYTE PTR [edx],al
    13fb:	91                   	xchg   ecx,eax
    13fc:	78 08                	js     1406 <.debug_info+0x1ef>
    13fe:	73 70                	jae    1470 <.debug_info+0x259>
    1400:	61                   	popa   
    1401:	6e                   	outs   dx,BYTE PTR ds:[esi]
    1402:	70 00                	jo     1404 <.debug_info+0x1ed>
    1404:	01 b6 11 28 02 00    	add    DWORD PTR [esi+0x22811],esi
    140a:	00 02                	add    BYTE PTR [edx],al
    140c:	91                   	xchg   ecx,eax
    140d:	74 08                	je     1417 <.debug_info+0x200>
    140f:	63 00                	arpl   WORD PTR [eax],ax
    1411:	01 b7 09 ea 00 00    	add    DWORD PTR [edi+0xea09],esi
    1417:	00 02                	add    BYTE PTR [edx],al
    1419:	91                   	xchg   ecx,eax
    141a:	6c                   	ins    BYTE PTR es:[edi],dx
    141b:	08 73 63             	or     BYTE PTR [ebx+0x63],dh
    141e:	00 01                	add    BYTE PTR [ecx],al
    1420:	b7 0c                	mov    bh,0xc
    1422:	ea 00 00 00 02 91 68 	jmp    0x6891:0x2000000
    1429:	08 74 6f 6b          	or     BYTE PTR [edi+ebp*2+0x6b],dh
    142d:	00 01                	add    BYTE PTR [ecx],al
    142f:	b8 0b 7d 01 00       	mov    eax,0x17d0b
    1434:	00 02                	add    BYTE PTR [edx],al
    1436:	91                   	xchg   ecx,eax
    1437:	70 00                	jo     1439 <.debug_info+0x222>
    1439:	05 04 7d 01 00       	add    eax,0x17d04
    143e:	00 05 04 6c 01 00    	add    BYTE PTR ds:0x16c04,al
    1444:	00 06                	add    BYTE PTR [esi],al
    1446:	69 73 70 72 69 6e 74 	imul   esi,DWORD PTR [ebx+0x70],0x746e6972
    144d:	00 01                	add    BYTE PTR [ecx],al
    144f:	b0 05                	mov    al,0x5
    1451:	ea 00 00 00 27 0c 10 	jmp    0x100c:0x27000000
    1458:	00 26                	add    BYTE PTR [esi],ah
    145a:	00 00                	add    BYTE PTR [eax],al
    145c:	00 01                	add    BYTE PTR [ecx],al
    145e:	9c                   	pushf  
    145f:	5a                   	pop    edx
    1460:	02 00                	add    al,BYTE PTR [eax]
    1462:	00 07                	add    BYTE PTR [edi],al
    1464:	63 00                	arpl   WORD PTR [eax],ax
    1466:	01 b0 12 64 01 00    	add    DWORD PTR [eax+0x16412],esi
    146c:	00 02                	add    BYTE PTR [edx],al
    146e:	91                   	xchg   ecx,eax
    146f:	78 00                	js     1471 <.debug_info+0x25a>
    1471:	06                   	push   es
    1472:	69 73 73 70 61 63 65 	imul   esi,DWORD PTR [ebx+0x73],0x65636170
    1479:	00 01                	add    BYTE PTR [ecx],al
    147b:	ac                   	lods   al,BYTE PTR ds:[esi]
    147c:	05 ea 00 00 00       	add    eax,0xea
    1481:	e9 0b 10 00 3e       	jmp    3e002491 <MULTIBOOT_HEADER_MAGIC+0x2252748f>
    1486:	00 00                	add    BYTE PTR [eax],al
    1488:	00 01                	add    BYTE PTR [ecx],al
    148a:	9c                   	pushf  
    148b:	86 02                	xchg   BYTE PTR [edx],al
    148d:	00 00                	add    BYTE PTR [eax],al
    148f:	07                   	pop    es
    1490:	63 00                	arpl   WORD PTR [eax],ax
    1492:	01 ac 12 64 01 00 00 	add    DWORD PTR [edx+edx*1+0x164],ebp
    1499:	02 91 78 00 09 61    	add    dl,BYTE PTR [ecx+0x61090078]
    149f:	74 6f                	je     1510 <.debug_info+0x2f9>
    14a1:	69 00 01 87 05 ea    	imul   eax,DWORD PTR [eax],0xea058701
    14a7:	00 00                	add    BYTE PTR [eax],al
    14a9:	00 3f                	add    BYTE PTR [edi],bh
    14ab:	0b 10                	or     edx,DWORD PTR [eax]
    14ad:	00 aa 00 00 00 01    	add    BYTE PTR [edx+0x1000000],ch
    14b3:	9c                   	pushf  
    14b4:	e7 02                	out    0x2,eax
    14b6:	00 00                	add    BYTE PTR [eax],al
    14b8:	07                   	pop    es
    14b9:	73 74                	jae    152f <.debug_info+0x318>
    14bb:	72 69                	jb     1526 <.debug_info+0x30f>
    14bd:	6e                   	outs   dx,BYTE PTR ds:[esi]
    14be:	67 00 01             	add    BYTE PTR [bx+di],al
    14c1:	87 11                	xchg   DWORD PTR [ecx],edx
    14c3:	7d 01                	jge    14c6 <.debug_info+0x2af>
    14c5:	00 00                	add    BYTE PTR [eax],al
    14c7:	02 91 00 08 72 65    	add    dl,BYTE PTR [ecx+0x65720800]
    14cd:	73 75                	jae    1544 <.debug_info+0x32d>
    14cf:	6c                   	ins    BYTE PTR es:[edi],dx
    14d0:	74 00                	je     14d2 <.debug_info+0x2bb>
    14d2:	01 88 09 ea 00 00    	add    DWORD PTR [eax+0xea09],ecx
    14d8:	00 02                	add    BYTE PTR [edx],al
    14da:	91                   	xchg   ecx,eax
    14db:	6c                   	ins    BYTE PTR es:[edi],dx
    14dc:	08 64 69 67          	or     BYTE PTR [ecx+ebp*2+0x67],ah
    14e0:	69 74 00 01 89 12 3a 	imul   esi,DWORD PTR [eax+eax*1+0x1],0x13a1289
    14e7:	01 
    14e8:	00 00                	add    BYTE PTR [eax],al
    14ea:	02 91 64 08 73 69    	add    dl,BYTE PTR [ecx+0x69730864]
    14f0:	67 6e                	outs   dx,BYTE PTR ds:[si]
    14f2:	00 01                	add    BYTE PTR [ecx],al
    14f4:	8a 09                	mov    cl,BYTE PTR [ecx]
    14f6:	ea 00 00 00 02 91 68 	jmp    0x6891:0x2000000
    14fd:	00 0a                	add    BYTE PTR [edx],cl
    14ff:	69 74 6f 61 00 01 72 	imul   esi,DWORD PTR [edi+ebp*2+0x61],0x6720100
    1506:	06 
    1507:	58                   	pop    eax
    1508:	0a 10                	or     dl,BYTE PTR [eax]
    150a:	00 e7                	add    bh,ah
    150c:	00 00                	add    BYTE PTR [eax],al
    150e:	00 01                	add    BYTE PTR [ecx],al
    1510:	9c                   	pushf  
    1511:	54                   	push   esp
    1512:	03 00                	add    eax,DWORD PTR [eax]
    1514:	00 07                	add    BYTE PTR [edi],al
    1516:	62 75 66             	bound  esi,QWORD PTR [ebp+0x66]
    1519:	00 01                	add    BYTE PTR [ecx],al
    151b:	72 11                	jb     152e <.debug_info+0x317>
    151d:	7d 01                	jge    1520 <.debug_info+0x309>
    151f:	00 00                	add    BYTE PTR [eax],al
    1521:	02 91 00 07 6e 00    	add    dl,BYTE PTR [ecx+0x6e0700]
    1527:	01 72 28             	add    DWORD PTR [edx+0x28],esi
    152a:	83 01 00             	add    DWORD PTR [ecx],0x0
    152d:	00 02                	add    BYTE PTR [edx],al
    152f:	91                   	xchg   ecx,eax
    1530:	04 07                	add    al,0x7
    1532:	62 61 73             	bound  esp,QWORD PTR [ecx+0x73]
    1535:	65 00 01             	add    BYTE PTR gs:[ecx],al
    1538:	72 2f                	jb     1569 <.debug_info+0x352>
    153a:	ea 00 00 00 02 91 08 	jmp    0x891:0x2000000
    1541:	08 74 6d 70          	or     BYTE PTR [ebp+ebp*2+0x70],dh
    1545:	00 01                	add    BYTE PTR [ecx],al
    1547:	74 17                	je     1560 <.debug_info+0x349>
    1549:	83 01 00             	add    DWORD PTR [ecx],0x0
    154c:	00 02                	add    BYTE PTR [edx],al
    154e:	91                   	xchg   ecx,eax
    154f:	70 08                	jo     1559 <.debug_info+0x342>
    1551:	69 00 01 75 09 ea    	imul   eax,DWORD PTR [eax],0xea097501
    1557:	00 00                	add    BYTE PTR [eax],al
    1559:	00 02                	add    BYTE PTR [edx],al
    155b:	91                   	xchg   ecx,eax
    155c:	78 08                	js     1566 <.debug_info+0x34f>
    155e:	6a 00                	push   0x0
    1560:	01 75 0c             	add    DWORD PTR [ebp+0xc],esi
    1563:	ea 00 00 00 02 91 74 	jmp    0x7491:0x2000000
    156a:	00 06                	add    BYTE PTR [esi],al
    156c:	73 74                	jae    15e2 <.debug_info+0x3cb>
    156e:	72 6e                	jb     15de <.debug_info+0x3c7>
    1570:	63 6d 70             	arpl   WORD PTR [ebp+0x70],bp
    1573:	00 01                	add    BYTE PTR [ecx],al
    1575:	63 05 ea 00 00 00    	arpl   WORD PTR ds:0xea,ax
    157b:	fb                   	sti    
    157c:	09 10                	or     DWORD PTR [eax],edx
    157e:	00 5d 00             	add    BYTE PTR [ebp+0x0],bl
    1581:	00 00                	add    BYTE PTR [eax],al
    1583:	01 9c ae 03 00 00 07 	add    DWORD PTR [esi+ebp*4+0x7000003],ebx
    158a:	73 31                	jae    15bd <.debug_info+0x3a6>
    158c:	00 01                	add    BYTE PTR [ecx],al
    158e:	63 1a                	arpl   WORD PTR [edx],bx
    1590:	28 02                	sub    BYTE PTR [edx],al
    1592:	00 00                	add    BYTE PTR [eax],al
    1594:	02 91 00 07 73 32    	add    dl,BYTE PTR [ecx+0x32730700]
    159a:	00 01                	add    BYTE PTR [ecx],al
    159c:	63 2a                	arpl   WORD PTR [edx],bp
    159e:	28 02                	sub    BYTE PTR [edx],al
    15a0:	00 00                	add    BYTE PTR [eax],al
    15a2:	02 91 04 07 63 00    	add    dl,BYTE PTR [ecx+0x630704]
    15a8:	01 63 32             	add    DWORD PTR [ebx+0x32],esp
    15ab:	ea 00 00 00 02 91 08 	jmp    0x891:0x2000000
    15b2:	08 72 65             	or     BYTE PTR [edx+0x65],dh
    15b5:	73 75                	jae    162c <.debug_info+0x415>
    15b7:	6c                   	ins    BYTE PTR es:[edi],dx
    15b8:	74 00                	je     15ba <.debug_info+0x3a3>
    15ba:	01 64 09 ea          	add    DWORD PTR [ecx+ecx*1-0x16],esp
    15be:	00 00                	add    BYTE PTR [eax],al
    15c0:	00 02                	add    BYTE PTR [edx],al
    15c2:	91                   	xchg   ecx,eax
    15c3:	78 00                	js     15c5 <.debug_info+0x3ae>
    15c5:	0b 73 74             	or     esi,DWORD PTR [ebx+0x74]
    15c8:	72 63                	jb     162d <.debug_info+0x416>
    15ca:	61                   	popa   
    15cb:	74 00                	je     15cd <.debug_info+0x3b6>
    15cd:	01 5b 06             	add    DWORD PTR [ebx+0x6],ebx
    15d0:	a0 09 10 00 5b       	mov    al,ds:0x5b001009
    15d5:	00 00                	add    BYTE PTR [eax],al
    15d7:	00 01                	add    BYTE PTR [ecx],al
    15d9:	9c                   	pushf  
    15da:	f6 03 00             	test   BYTE PTR [ebx],0x0
    15dd:	00 07                	add    BYTE PTR [edi],al
    15df:	64 65 73 74          	fs gs jae 1657 <.debug_info+0x440>
    15e3:	00 01                	add    BYTE PTR [ecx],al
    15e5:	5b                   	pop    ebx
    15e6:	13 f6                	adc    esi,esi
    15e8:	03 00                	add    eax,DWORD PTR [eax]
    15ea:	00 02                	add    BYTE PTR [edx],al
    15ec:	91                   	xchg   ecx,eax
    15ed:	00 07                	add    BYTE PTR [edi],al
    15ef:	73 72                	jae    1663 <.debug_info+0x44c>
    15f1:	63 00                	arpl   WORD PTR [eax],ax
    15f3:	01 5b 24             	add    DWORD PTR [ebx+0x24],ebx
    15f6:	f8                   	clc    
    15f7:	03 00                	add    eax,DWORD PTR [eax]
    15f9:	00 02                	add    BYTE PTR [edx],al
    15fb:	91                   	xchg   ecx,eax
    15fc:	04 08                	add    al,0x8
    15fe:	65 6e                	outs   dx,BYTE PTR gs:[esi]
    1600:	64 00 01             	add    BYTE PTR fs:[ecx],al
    1603:	5d                   	pop    ebp
    1604:	0c 7d                	or     al,0x7d
    1606:	01 00                	add    DWORD PTR [eax],eax
    1608:	00 02                	add    BYTE PTR [edx],al
    160a:	91                   	xchg   ecx,eax
    160b:	6c                   	ins    BYTE PTR es:[edi],dx
    160c:	00 0c 04             	add    BYTE PTR [esp+eax*1],cl
    160f:	05 04 fe 03 00       	add    eax,0x3fe04
    1614:	00 0d 06 73 74 72    	add    BYTE PTR ds:0x72747306,cl
    161a:	63 70 79             	arpl   WORD PTR [eax+0x79],si
    161d:	00 01                	add    BYTE PTR [ecx],al
    161f:	52                   	push   edx
    1620:	05 ea 00 00 00       	add    eax,0xea
    1625:	64 09 10             	or     DWORD PTR fs:[eax],edx
    1628:	00 3c 00             	add    BYTE PTR [eax+eax*1],bh
    162b:	00 00                	add    BYTE PTR [eax],al
    162d:	01 9c 48 04 00 00 07 	add    DWORD PTR [eax+ecx*2+0x7000004],ebx
    1634:	64 73 74             	fs jae 16ab <.debug_info+0x494>
    1637:	00 01                	add    BYTE PTR [ecx],al
    1639:	52                   	push   edx
    163a:	12 7d 01             	adc    bh,BYTE PTR [ebp+0x1]
    163d:	00 00                	add    BYTE PTR [eax],al
    163f:	02 91 00 07 73 72    	add    dl,BYTE PTR [ecx+0x72730700]
    1645:	63 00                	arpl   WORD PTR [eax],ax
    1647:	01 52 22             	add    DWORD PTR [edx+0x22],edx
    164a:	28 02                	sub    BYTE PTR [edx],al
    164c:	00 00                	add    BYTE PTR [eax],al
    164e:	02 91 04 08 69 00    	add    dl,BYTE PTR [ecx+0x690804]
    1654:	01 54 09 ea          	add    DWORD PTR [ecx+ecx*1-0x16],edx
    1658:	00 00                	add    BYTE PTR [eax],al
    165a:	00 02                	add    BYTE PTR [edx],al
    165c:	91                   	xchg   ecx,eax
    165d:	78 00                	js     165f <.debug_info+0x448>
    165f:	09 73 74             	or     DWORD PTR [ebx+0x74],esi
    1662:	72 73                	jb     16d7 <.debug_info+0x4c0>
    1664:	74 72                	je     16d8 <.debug_info+0x4c1>
    1666:	00 01                	add    BYTE PTR [ecx],al
    1668:	3c 08                	cmp    al,0x8
    166a:	7d 01                	jge    166d <.debug_info+0x456>
    166c:	00 00                	add    BYTE PTR [eax],al
    166e:	dc 08                	fmul   QWORD PTR [eax]
    1670:	10 00                	adc    BYTE PTR [eax],al
    1672:	88 00                	mov    BYTE PTR [eax],al
    1674:	00 00                	add    BYTE PTR [eax],al
    1676:	01 9c b7 04 00 00 07 	add    DWORD PTR [edi+esi*4+0x7000004],ebx
    167d:	69 6e 00 01 3c 1b 28 	imul   ebp,DWORD PTR [esi+0x0],0x281b3c01
    1684:	02 00                	add    al,BYTE PTR [eax]
    1686:	00 02                	add    BYTE PTR [edx],al
    1688:	91                   	xchg   ecx,eax
    1689:	00 07                	add    BYTE PTR [edi],al
    168b:	73 74                	jae    1701 <.debug_info+0x4ea>
    168d:	72 00                	jb     168f <.debug_info+0x478>
    168f:	01 3c 2b             	add    DWORD PTR [ebx+ebp*1],edi
    1692:	28 02                	sub    BYTE PTR [edx],al
    1694:	00 00                	add    BYTE PTR [eax],al
    1696:	02 91 04 08 63 00    	add    dl,BYTE PTR [ecx+0x630804]
    169c:	01 3d 0a 64 01 00    	add    DWORD PTR ds:0x1640a,edi
    16a2:	00 02                	add    BYTE PTR [edx],al
    16a4:	91                   	xchg   ecx,eax
    16a5:	6f                   	outs   dx,DWORD PTR ds:[esi]
    16a6:	08 6c 65 6e          	or     BYTE PTR [ebp+eiz*2+0x6e],ch
    16aa:	00 01                	add    BYTE PTR [ecx],al
    16ac:	3e 0e                	ds push cs
    16ae:	29 01                	sub    DWORD PTR [ecx],eax
    16b0:	00 00                	add    BYTE PTR [eax],al
    16b2:	02 91 68 0e 0e 09    	add    dl,BYTE PTR [ecx+0x90e0e68]
    16b8:	10 00                	adc    BYTE PTR [eax],al
    16ba:	2b 00                	sub    eax,DWORD PTR [eax]
    16bc:	00 00                	add    BYTE PTR [eax],al
    16be:	08 73 63             	or     BYTE PTR [ebx+0x63],dh
    16c1:	00 01                	add    BYTE PTR [ecx],al
    16c3:	46                   	inc    esi
    16c4:	0e                   	push   cs
    16c5:	64 01 00             	add    DWORD PTR fs:[eax],eax
    16c8:	00 02                	add    BYTE PTR [edx],al
    16ca:	91                   	xchg   ecx,eax
    16cb:	67 00 00             	add    BYTE PTR [bx+si],al
    16ce:	06                   	push   es
    16cf:	73 74                	jae    1745 <.debug_info+0x52e>
    16d1:	72 63                	jb     1736 <.debug_info+0x51f>
    16d3:	6d                   	ins    DWORD PTR es:[edi],dx
    16d4:	70 00                	jo     16d6 <.debug_info+0x4bf>
    16d6:	01 30                	add    DWORD PTR [eax],esi
    16d8:	05 ea 00 00 00       	add    eax,0xea
    16dd:	87 08                	xchg   DWORD PTR [eax],ecx
    16df:	10 00                	adc    BYTE PTR [eax],al
    16e1:	55                   	push   ebp
    16e2:	00 00                	add    BYTE PTR [eax],al
    16e4:	00 01                	add    BYTE PTR [ecx],al
    16e6:	9c                   	pushf  
    16e7:	00 05 00 00 07 64    	add    BYTE PTR ds:0x64070000,al
    16ed:	73 74                	jae    1763 <.debug_info+0x54c>
    16ef:	00 01                	add    BYTE PTR [ecx],al
    16f1:	30 18                	xor    BYTE PTR [eax],bl
    16f3:	28 02                	sub    BYTE PTR [edx],al
    16f5:	00 00                	add    BYTE PTR [eax],al
    16f7:	02 91 00 07 73 72    	add    dl,BYTE PTR [ecx+0x72730700]
    16fd:	63 00                	arpl   WORD PTR [eax],ax
    16ff:	01 30                	add    DWORD PTR [eax],esi
    1701:	23 7d 01             	and    edi,DWORD PTR [ebp+0x1]
    1704:	00 00                	add    BYTE PTR [eax],al
    1706:	02 91 04 08 69 00    	add    dl,BYTE PTR [ecx+0x690804]
    170c:	01 32                	add    DWORD PTR [edx],esi
    170e:	09 ea                	or     edx,ebp
    1710:	00 00                	add    BYTE PTR [eax],al
    1712:	00 02                	add    BYTE PTR [edx],al
    1714:	91                   	xchg   ecx,eax
    1715:	78 00                	js     1717 <.debug_info+0x500>
    1717:	06                   	push   es
    1718:	73 74                	jae    178e <.debug_info+0x577>
    171a:	72 6e                	jb     178a <.debug_info+0x573>
    171c:	63 70 79             	arpl   WORD PTR [eax+0x79],si
    171f:	00 01                	add    BYTE PTR [ecx],al
    1721:	14 07                	adc    al,0x7
    1723:	7d 01                	jge    1726 <.debug_info+0x50f>
    1725:	00 00                	add    BYTE PTR [eax],al
    1727:	f0 07                	lock pop es
    1729:	10 00                	adc    BYTE PTR [eax],al
    172b:	97                   	xchg   edi,eax
    172c:	00 00                	add    BYTE PTR [eax],al
    172e:	00 01                	add    BYTE PTR [ecx],al
    1730:	9c                   	pushf  
    1731:	73 05                	jae    1738 <.debug_info+0x521>
    1733:	00 00                	add    BYTE PTR [eax],al
    1735:	07                   	pop    es
    1736:	64 65 73 74          	fs gs jae 17ae <.debug_info+0x597>
    173a:	53                   	push   ebx
    173b:	74 72                	je     17af <.debug_info+0x598>
    173d:	69 6e 67 00 01 14 15 	imul   ebp,DWORD PTR [esi+0x67],0x15140100
    1744:	7d 01                	jge    1747 <.debug_info+0x530>
    1746:	00 00                	add    BYTE PTR [eax],al
    1748:	02 91 00 07 73 6f    	add    dl,BYTE PTR [ecx+0x6f730700]
    174e:	75 72                	jne    17c2 <.debug_info+0x5ab>
    1750:	63 65 53             	arpl   WORD PTR [ebp+0x53],sp
    1753:	74 72                	je     17c7 <.debug_info+0x5b0>
    1755:	69 6e 67 00 01 14 2d 	imul   ebp,DWORD PTR [esi+0x67],0x2d140100
    175c:	28 02                	sub    BYTE PTR [edx],al
    175e:	00 00                	add    BYTE PTR [eax],al
    1760:	02 91 04 07 6d 61    	add    dl,BYTE PTR [ecx+0x616d0704]
    1766:	78 4c                	js     17b4 <.debug_info+0x59d>
    1768:	65 6e                	outs   dx,BYTE PTR gs:[esi]
    176a:	67 74 68             	addr16 je 17d5 <.debug_info+0x5be>
    176d:	00 01                	add    BYTE PTR [ecx],al
    176f:	14 3e                	adc    al,0x3e
    1771:	ea 00 00 00 02 91 08 	jmp    0x891:0x2000000
    1778:	08 63 6f             	or     BYTE PTR [ebx+0x6f],ah
    177b:	75 6e                	jne    17eb <.debug_info+0x5d4>
    177d:	74 00                	je     177f <.debug_info+0x568>
    177f:	01 16                	add    DWORD PTR [esi],edx
    1781:	0e                   	push   cs
    1782:	3a 01                	cmp    al,BYTE PTR [ecx]
    1784:	00 00                	add    BYTE PTR [eax],al
    1786:	02 91 78 00 06 73    	add    dl,BYTE PTR [ecx+0x73060078]
    178c:	74 72                	je     1800 <.debug_info+0x5e9>
    178e:	6e                   	outs   dx,BYTE PTR ds:[esi]
    178f:	6c                   	ins    BYTE PTR es:[edi],dx
    1790:	65 6e                	outs   dx,BYTE PTR gs:[esi]
    1792:	00 01                	add    BYTE PTR [ecx],al
    1794:	0c 05                	or     al,0x5
    1796:	ea 00 00 00 b8 07 10 	jmp    0x1007:0xb8000000
    179d:	00 38                	add    BYTE PTR [eax],bh
    179f:	00 00                	add    BYTE PTR [eax],al
    17a1:	00 01                	add    BYTE PTR [ecx],al
    17a3:	9c                   	pushf  
    17a4:	be 05 00 00 07       	mov    esi,0x7000005
    17a9:	73 00                	jae    17ab <.debug_info+0x594>
    17ab:	01 0c 1a             	add    DWORD PTR [edx+ebx*1],ecx
    17ae:	28 02                	sub    BYTE PTR [edx],al
    17b0:	00 00                	add    BYTE PTR [eax],al
    17b2:	02 91 00 07 63 6f    	add    dl,BYTE PTR [ecx+0x6f630700]
    17b8:	75 6e                	jne    1828 <.debug_info+0x1c>
    17ba:	74 00                	je     17bc <.debug_info+0x5a5>
    17bc:	01 0c 21             	add    DWORD PTR [ecx+eiz*1],ecx
    17bf:	ea 00 00 00 02 91 04 	jmp    0x491:0x2000000
    17c6:	08 73 63             	or     BYTE PTR [ebx+0x63],dh
    17c9:	00 01                	add    BYTE PTR [ecx],al
    17cb:	0d 11 28 02 00       	or     eax,0x22811
    17d0:	00 02                	add    BYTE PTR [edx],al
    17d2:	91                   	xchg   ecx,eax
    17d3:	78 00                	js     17d5 <.debug_info+0x5be>
    17d5:	0f 73                	(bad)  
    17d7:	74 72                	je     184b <.debug_info+0x3f>
    17d9:	6c                   	ins    BYTE PTR es:[edi],dx
    17da:	65 6e                	outs   dx,BYTE PTR gs:[esi]
    17dc:	00 01                	add    BYTE PTR [ecx],al
    17de:	05 05 ea 00 00       	add    eax,0xea05
    17e3:	00 8c 07 10 00 2c 00 	add    BYTE PTR [edi+eax*1+0x2c0010],cl
    17ea:	00 00                	add    BYTE PTR [eax],al
    17ec:	01 9c 07 73 00 01 05 	add    DWORD PTR [edi+eax*1+0x5010073],ebx
    17f3:	19 28                	sbb    DWORD PTR [eax],ebp
    17f5:	02 00                	add    al,BYTE PTR [eax]
    17f7:	00 02                	add    BYTE PTR [edx],al
    17f9:	91                   	xchg   ecx,eax
    17fa:	00 08                	add    BYTE PTR [eax],cl
    17fc:	6c                   	ins    BYTE PTR es:[edi],dx
    17fd:	65 6e                	outs   dx,BYTE PTR gs:[esi]
    17ff:	00 01                	add    BYTE PTR [ecx],al
    1801:	06                   	push   es
    1802:	09 ea                	or     edx,ebp
    1804:	00 00                	add    BYTE PTR [eax],al
    1806:	00 02                	add    BYTE PTR [edx],al
    1808:	91                   	xchg   ecx,eax
    1809:	78 00                	js     180b <.debug_info+0x5f4>
	...

0000180c <.debug_info>:
    180c:	6d                   	ins    DWORD PTR es:[edi],dx
    180d:	05 00 00 04 00       	add    eax,0x40000
    1812:	67 04 00             	addr16 add al,0x0
    1815:	00 04 01             	add    BYTE PTR [ecx+eax*1],al
    1818:	47                   	inc    edi
    1819:	4e                   	dec    esi
    181a:	55                   	push   ebp
    181b:	20 43 39             	and    BYTE PTR [ebx+0x39],al
    181e:	39 20                	cmp    DWORD PTR [eax],esp
    1820:	39 2e                	cmp    DWORD PTR [esi],ebp
    1822:	33 2d 77 69 6e 33    	xor    ebp,DWORD PTR ds:0x336e6977
    1828:	32 20                	xor    ah,BYTE PTR [eax]
    182a:	32 30                	xor    dh,BYTE PTR [eax]
    182c:	32 30                	xor    dh,BYTE PTR [eax]
    182e:	30 33                	xor    BYTE PTR [ebx],dh
    1830:	32 30                	xor    dh,BYTE PTR [eax]
    1832:	20 2d 6d 33 32 20    	and    BYTE PTR ds:0x2032336d,ch
    1838:	2d 6d 74 75 6e       	sub    eax,0x6e75746d
    183d:	65 3d 67 65 6e 65    	gs cmp eax,0x656e6567
    1843:	72 69                	jb     18ae <.debug_info+0xa2>
    1845:	63 20                	arpl   WORD PTR [eax],sp
    1847:	2d 6d 61 72 63       	sub    eax,0x6372616d
    184c:	68 3d 78 38 36       	push   0x3638783d
    1851:	2d 36 34 20 2d       	sub    eax,0x2d203436
    1856:	67 20 2d             	and    BYTE PTR [di],ch
    1859:	67 67 64 62 20       	addr16 bound esp,QWORD PTR fs:[bx+si]
    185e:	2d 73 74 64 3d       	sub    eax,0x3d647473
    1863:	67 6e                	outs   dx,BYTE PTR ds:[si]
    1865:	75 39                	jne    18a0 <.debug_info+0x94>
    1867:	39 20                	cmp    DWORD PTR [eax],esp
    1869:	2d 66 6f 6d 69       	sub    eax,0x696d6f66
    186e:	74 2d                	je     189d <.debug_info+0x91>
    1870:	66 72 61             	data16 jb 18d4 <.debug_info+0xc8>
    1873:	6d                   	ins    DWORD PTR es:[edi],dx
    1874:	65 2d 70 6f 69 6e    	gs sub eax,0x6e696f70
    187a:	74 65                	je     18e1 <.debug_info+0xd5>
    187c:	72 20                	jb     189e <.debug_info+0x92>
    187e:	2d 66 69 6e 6c       	sub    eax,0x6c6e6966
    1883:	69 6e 65 2d 66 75 6e 	imul   ebp,DWORD PTR [esi+0x65],0x6e75662d
    188a:	63 74 69 6f          	arpl   WORD PTR [ecx+ebp*2+0x6f],si
    188e:	6e                   	outs   dx,BYTE PTR ds:[esi]
    188f:	73 20                	jae    18b1 <.debug_info+0xa5>
    1891:	2d 66 66 72 65       	sub    eax,0x65726666
    1896:	65 73 74             	gs jae 190d <.debug_info+0x101>
    1899:	61                   	popa   
    189a:	6e                   	outs   dx,BYTE PTR ds:[esi]
    189b:	64 69 6e 67 00 0c 73 	imul   ebp,DWORD PTR fs:[esi+0x67],0x72730c00
    18a2:	72 
    18a3:	63 2f                	arpl   WORD PTR [edi],bp
    18a5:	6b 65 72 6e          	imul   esp,DWORD PTR [ebp+0x72],0x6e
    18a9:	65 6c                	gs ins BYTE PTR es:[edi],dx
    18ab:	2f                   	das    
    18ac:	69 6f 2e 63 00 2f 6d 	imul   ebp,DWORD PTR [edi+0x2e],0x6d2f0063
    18b3:	6e                   	outs   dx,BYTE PTR ds:[esi]
    18b4:	74 2f                	je     18e5 <.debug_info+0xd9>
    18b6:	63 2f                	arpl   WORD PTR [edi],bp
    18b8:	70 72                	jo     192c <.debug_info+0x120>
    18ba:	6f                   	outs   dx,DWORD PTR ds:[esi]
    18bb:	6a 65                	push   0x65
    18bd:	63 74 73 2f          	arpl   WORD PTR [ebx+esi*2+0x2f],si
    18c1:	6c                   	ins    BYTE PTR es:[edi],dx
    18c2:	69 6e 75 78 2f 6f 73 	imul   ebp,DWORD PTR [esi+0x75],0x736f2f78
    18c9:	00 e4                	add    ah,ah
    18cb:	0c 10                	or     al,0x10
    18cd:	00 63 08             	add    BYTE PTR [ebx+0x8],ah
    18d0:	00 00                	add    BYTE PTR [eax],al
    18d2:	12 08                	adc    cl,BYTE PTR [eax]
    18d4:	00 00                	add    BYTE PTR [eax],al
    18d6:	02 01                	add    al,BYTE PTR [ecx]
    18d8:	06                   	push   es
    18d9:	73 69                	jae    1944 <.debug_info+0x138>
    18db:	67 6e                	outs   dx,BYTE PTR ds:[si]
    18dd:	65 64 20 63 68       	gs and BYTE PTR fs:[ebx+0x68],ah
    18e2:	61                   	popa   
    18e3:	72 00                	jb     18e5 <.debug_info+0xd9>
    18e5:	02 02                	add    al,BYTE PTR [edx]
    18e7:	05 73 68 6f 72       	add    eax,0x726f6873
    18ec:	74 20                	je     190e <.debug_info+0x102>
    18ee:	69 6e 74 00 02 04 05 	imul   ebp,DWORD PTR [esi+0x74],0x5040200
    18f5:	69 6e 74 00 02 08 05 	imul   ebp,DWORD PTR [esi+0x74],0x5080200
    18fc:	6c                   	ins    BYTE PTR es:[edi],dx
    18fd:	6f                   	outs   dx,DWORD PTR ds:[esi]
    18fe:	6e                   	outs   dx,BYTE PTR ds:[esi]
    18ff:	67 20 6c 6f          	and    BYTE PTR [si+0x6f],ch
    1903:	6e                   	outs   dx,BYTE PTR ds:[esi]
    1904:	67 20 69 6e          	and    BYTE PTR [bx+di+0x6e],ch
    1908:	74 00                	je     190a <.debug_info+0xfe>
    190a:	02 01                	add    al,BYTE PTR [ecx]
    190c:	08 75 6e             	or     BYTE PTR [ebp+0x6e],dh
    190f:	73 69                	jae    197a <.debug_info+0x16e>
    1911:	67 6e                	outs   dx,BYTE PTR ds:[si]
    1913:	65 64 20 63 68       	gs and BYTE PTR fs:[ebx+0x68],ah
    1918:	61                   	popa   
    1919:	72 00                	jb     191b <.debug_info+0x10f>
    191b:	02 02                	add    al,BYTE PTR [edx]
    191d:	07                   	pop    es
    191e:	73 68                	jae    1988 <.debug_info+0x17c>
    1920:	6f                   	outs   dx,DWORD PTR ds:[esi]
    1921:	72 74                	jb     1997 <.debug_info+0x18b>
    1923:	20 75 6e             	and    BYTE PTR [ebp+0x6e],dh
    1926:	73 69                	jae    1991 <.debug_info+0x185>
    1928:	67 6e                	outs   dx,BYTE PTR ds:[si]
    192a:	65 64 20 69 6e       	gs and BYTE PTR fs:[ecx+0x6e],ch
    192f:	74 00                	je     1931 <.debug_info+0x125>
    1931:	02 04 07             	add    al,BYTE PTR [edi+eax*1]
    1934:	75 6e                	jne    19a4 <.debug_info+0x198>
    1936:	73 69                	jae    19a1 <.debug_info+0x195>
    1938:	67 6e                	outs   dx,BYTE PTR ds:[si]
    193a:	65 64 20 69 6e       	gs and BYTE PTR fs:[ecx+0x6e],ch
    193f:	74 00                	je     1941 <.debug_info+0x135>
    1941:	02 08                	add    cl,BYTE PTR [eax]
    1943:	07                   	pop    es
    1944:	6c                   	ins    BYTE PTR es:[edi],dx
    1945:	6f                   	outs   dx,DWORD PTR ds:[esi]
    1946:	6e                   	outs   dx,BYTE PTR ds:[esi]
    1947:	67 20 6c 6f          	and    BYTE PTR [si+0x6f],ch
    194b:	6e                   	outs   dx,BYTE PTR ds:[esi]
    194c:	67 20 75 6e          	and    BYTE PTR [di+0x6e],dh
    1950:	73 69                	jae    19bb <.debug_info+0x1af>
    1952:	67 6e                	outs   dx,BYTE PTR ds:[si]
    1954:	65 64 20 69 6e       	gs and BYTE PTR fs:[ecx+0x6e],ch
    1959:	74 00                	je     195b <.debug_info+0x14f>
    195b:	03 5f 5f             	add    ebx,DWORD PTR [edi+0x5f]
    195e:	67 6e                	outs   dx,BYTE PTR ds:[si]
    1960:	75 63                	jne    19c5 <.debug_info+0x1b9>
    1962:	5f                   	pop    edi
    1963:	76 61                	jbe    19c6 <.debug_info+0x1ba>
    1965:	5f                   	pop    edi
    1966:	6c                   	ins    BYTE PTR es:[edi],dx
    1967:	69 73 74 00 02 18 1d 	imul   esi,DWORD PTR [ebx+0x74],0x1d180200
    196e:	66 01 00             	add    WORD PTR [eax],ax
    1971:	00 04 04             	add    BYTE PTR [esp+eax*1],al
    1974:	5f                   	pop    edi
    1975:	5f                   	pop    edi
    1976:	62 75 69             	bound  esi,QWORD PTR [ebp+0x69]
    1979:	6c                   	ins    BYTE PTR es:[edi],dx
    197a:	74 69                	je     19e5 <.debug_info+0x1d9>
    197c:	6e                   	outs   dx,BYTE PTR ds:[esi]
    197d:	5f                   	pop    edi
    197e:	76 61                	jbe    19e1 <.debug_info+0x1d5>
    1980:	5f                   	pop    edi
    1981:	6c                   	ins    BYTE PTR es:[edi],dx
    1982:	69 73 74 00 7e 01 00 	imul   esi,DWORD PTR [ebx+0x74],0x17e00
    1989:	00 02                	add    BYTE PTR [edx],al
    198b:	01 06                	add    DWORD PTR [esi],eax
    198d:	63 68 61             	arpl   WORD PTR [eax+0x61],bp
    1990:	72 00                	jb     1992 <.debug_info+0x186>
    1992:	05 7e 01 00 00       	add    eax,0x17e
    1997:	03 76 61             	add    esi,DWORD PTR [esi+0x61]
    199a:	5f                   	pop    edi
    199b:	6c                   	ins    BYTE PTR es:[edi],dx
    199c:	69 73 74 00 02 1f 1a 	imul   esi,DWORD PTR [ebx+0x74],0x1a1f0200
    19a3:	4f                   	dec    edi
    19a4:	01 00                	add    DWORD PTR [eax],eax
    19a6:	00 02                	add    BYTE PTR [edx],al
    19a8:	04 05                	add    al,0x5
    19aa:	6c                   	ins    BYTE PTR es:[edi],dx
    19ab:	6f                   	outs   dx,DWORD PTR ds:[esi]
    19ac:	6e                   	outs   dx,BYTE PTR ds:[esi]
    19ad:	67 20 69 6e          	and    BYTE PTR [bx+di+0x6e],ch
    19b1:	74 00                	je     19b3 <.debug_info+0x1a7>
    19b3:	06                   	push   es
    19b4:	04 7e                	add    al,0x7e
    19b6:	01 00                	add    DWORD PTR [eax],eax
    19b8:	00 06                	add    BYTE PTR [esi],al
    19ba:	04 e6                	add    al,0xe6
    19bc:	00 00                	add    BYTE PTR [eax],al
    19be:	00 02                	add    BYTE PTR [edx],al
    19c0:	04 07                	add    al,0x7
    19c2:	6c                   	ins    BYTE PTR es:[edi],dx
    19c3:	6f                   	outs   dx,DWORD PTR ds:[esi]
    19c4:	6e                   	outs   dx,BYTE PTR ds:[esi]
    19c5:	67 20 75 6e          	and    BYTE PTR [di+0x6e],dh
    19c9:	73 69                	jae    1a34 <.debug_info+0x228>
    19cb:	67 6e                	outs   dx,BYTE PTR ds:[si]
    19cd:	65 64 20 69 6e       	gs and BYTE PTR fs:[ecx+0x6e],ch
    19d2:	74 00                	je     19d4 <.debug_info+0x1c8>
    19d4:	07                   	pop    es
    19d5:	6b 70 72 69          	imul   esi,DWORD PTR [eax+0x72],0x69
    19d9:	6e                   	outs   dx,BYTE PTR ds:[esi]
    19da:	74 66                	je     1a42 <.debug_info+0x236>
    19dc:	00 01                	add    BYTE PTR [ecx],al
    19de:	12 01                	adc    al,BYTE PTR [ecx]
    19e0:	05 e6 00 00 00       	add    eax,0xe6
    19e5:	f6 14 10             	not    BYTE PTR [eax+edx*1]
    19e8:	00 51 00             	add    BYTE PTR [ecx+0x0],dl
    19eb:	00 00                	add    BYTE PTR [eax],al
    19ed:	01 9c 37 02 00 00 08 	add    DWORD PTR [edi+esi*1+0x8000002],ebx
    19f4:	66 6d                	ins    WORD PTR es:[edi],dx
    19f6:	74 00                	je     19f8 <.debug_info+0x1ec>
    19f8:	01 12                	add    DWORD PTR [edx],edx
    19fa:	01 19                	add    DWORD PTR [ecx],ebx
    19fc:	37                   	aaa    
    19fd:	02 00                	add    al,BYTE PTR [eax]
    19ff:	00 02                	add    BYTE PTR [edx],al
    1a01:	91                   	xchg   ecx,eax
    1a02:	00 09                	add    BYTE PTR [ecx],cl
    1a04:	0a 70 72             	or     dh,BYTE PTR [eax+0x72]
    1a07:	69 6e 74 66 5f 62 75 	imul   ebp,DWORD PTR [esi+0x74],0x75625f66
    1a0e:	66 00 01             	data16 add BYTE PTR [ecx],al
    1a11:	14 01                	adc    al,0x1
    1a13:	0a 3d 02 00 00 03    	or     bh,BYTE PTR ds:0x3000002
    1a19:	91                   	xchg   ecx,eax
    1a1a:	ec                   	in     al,dx
    1a1b:	77 0a                	ja     1a27 <.debug_info+0x21b>
    1a1d:	61                   	popa   
    1a1e:	72 67                	jb     1a87 <.debug_info+0x27b>
    1a20:	73 00                	jae    1a22 <.debug_info+0x216>
    1a22:	01 15 01 0d 8b 01    	add    DWORD PTR ds:0x18b0d01,edx
    1a28:	00 00                	add    BYTE PTR [eax],al
    1a2a:	03 91 e8 77 0a 70    	add    edx,DWORD PTR [ecx+0x700a77e8]
    1a30:	72 69                	jb     1a9b <.debug_info+0x28f>
    1a32:	6e                   	outs   dx,BYTE PTR ds:[esi]
    1a33:	74 65                	je     1a9a <.debug_info+0x28e>
    1a35:	64 00 01             	add    BYTE PTR fs:[ecx],al
    1a38:	16                   	push   ss
    1a39:	01 09                	add    DWORD PTR [ecx],ecx
    1a3b:	e6 00                	out    0x0,al
    1a3d:	00 00                	add    BYTE PTR [eax],al
    1a3f:	02 91 6c 00 06 04    	add    dl,BYTE PTR [ecx+0x406006c]
    1a45:	86 01                	xchg   BYTE PTR [ecx],al
    1a47:	00 00                	add    BYTE PTR [eax],al
    1a49:	0b 7e 01             	or     edi,DWORD PTR [esi+0x1]
    1a4c:	00 00                	add    BYTE PTR [eax],al
    1a4e:	4e                   	dec    esi
    1a4f:	02 00                	add    al,BYTE PTR [eax]
    1a51:	00 0c 25 01 00 00 ff 	add    BYTE PTR [eiz*1-0xffffff],cl
    1a58:	03 00                	add    eax,DWORD PTR [eax]
    1a5a:	07                   	pop    es
    1a5b:	6b 73 70 72          	imul   esi,DWORD PTR [ebx+0x70],0x72
    1a5f:	69 6e 74 66 00 01 07 	imul   ebp,DWORD PTR [esi+0x74],0x7010066
    1a66:	01 05 e6 00 00 00    	add    DWORD PTR ds:0xe6,eax
    1a6c:	c3                   	ret    
    1a6d:	14 10                	adc    al,0x10
    1a6f:	00 33                	add    BYTE PTR [ebx],dh
    1a71:	00 00                	add    BYTE PTR [eax],al
    1a73:	00 01                	add    BYTE PTR [ecx],al
    1a75:	9c                   	pushf  
    1a76:	af                   	scas   eax,DWORD PTR es:[edi]
    1a77:	02 00                	add    al,BYTE PTR [eax]
    1a79:	00 08                	add    BYTE PTR [eax],cl
    1a7b:	62 75 66             	bound  esi,QWORD PTR [ebp+0x66]
    1a7e:	00 01                	add    BYTE PTR [ecx],al
    1a80:	07                   	pop    es
    1a81:	01 14 a7             	add    DWORD PTR [edi+eiz*4],edx
    1a84:	01 00                	add    DWORD PTR [eax],eax
    1a86:	00 02                	add    BYTE PTR [edx],al
    1a88:	91                   	xchg   ecx,eax
    1a89:	00 08                	add    BYTE PTR [eax],cl
    1a8b:	66 6d                	ins    WORD PTR es:[edi],dx
    1a8d:	74 00                	je     1a8f <.debug_info+0x283>
    1a8f:	01 07                	add    DWORD PTR [edi],eax
    1a91:	01 25 37 02 00 00    	add    DWORD PTR ds:0x237,esp
    1a97:	02 91 04 09 0a 61    	add    dl,BYTE PTR [ecx+0x610a0904]
    1a9d:	72 67                	jb     1b06 <.debug_info+0x2fa>
    1a9f:	73 00                	jae    1aa1 <.debug_info+0x295>
    1aa1:	01 09                	add    DWORD PTR [ecx],ecx
    1aa3:	01 0d 8b 01 00 00    	add    DWORD PTR ds:0x18b,ecx
    1aa9:	02 91 68 0a 69 00    	add    dl,BYTE PTR [ecx+0x690a68]
    1aaf:	01 0a                	add    DWORD PTR [edx],ecx
    1ab1:	01 09                	add    DWORD PTR [ecx],ecx
    1ab3:	e6 00                	out    0x0,al
    1ab5:	00 00                	add    BYTE PTR [eax],al
    1ab7:	02 91 6c 00 0d 6b    	add    dl,BYTE PTR [ecx+0x6b0d006c]
    1abd:	76 73                	jbe    1b32 <.debug_info+0x326>
    1abf:	70 72                	jo     1b33 <.debug_info+0x327>
    1ac1:	69 6e 74 66 00 01 5d 	imul   ebp,DWORD PTR [esi+0x74],0x5d010066
    1ac8:	05 e6 00 00 00       	add    eax,0xe6
    1acd:	db 0f                	fisttp DWORD PTR [edi]
    1acf:	10 00                	adc    BYTE PTR [eax],al
    1ad1:	e8 04 00 00 01       	call   1001ada <___ImageBase+0xc01ada>
    1ad6:	9c                   	pushf  
    1ad7:	e4 03                	in     al,0x3
    1ad9:	00 00                	add    BYTE PTR [eax],al
    1adb:	0e                   	push   cs
    1adc:	62 75 66             	bound  esi,QWORD PTR [ebp+0x66]
    1adf:	00 01                	add    BYTE PTR [ecx],al
    1ae1:	5d                   	pop    ebp
    1ae2:	15 a7 01 00 00       	adc    eax,0x1a7
    1ae7:	02 91 00 0e 66 6d    	add    dl,BYTE PTR [ecx+0x6d660e00]
    1aed:	74 00                	je     1aef <.debug_info+0x2e3>
    1aef:	01 5d 26             	add    DWORD PTR [ebp+0x26],ebx
    1af2:	37                   	aaa    
    1af3:	02 00                	add    al,BYTE PTR [eax]
    1af5:	00 02                	add    BYTE PTR [edx],al
    1af7:	91                   	xchg   ecx,eax
    1af8:	04 0e                	add    al,0xe
    1afa:	61                   	popa   
    1afb:	72 67                	jb     1b64 <.debug_info+0x358>
    1afd:	73 00                	jae    1aff <.debug_info+0x2f3>
    1aff:	01 5d 33             	add    DWORD PTR [ebp+0x33],ebx
    1b02:	8b 01                	mov    eax,DWORD PTR [ecx]
    1b04:	00 00                	add    BYTE PTR [eax],al
    1b06:	02 91 08 0f 6c 65    	add    dl,BYTE PTR [ecx+0x656c0f08]
    1b0c:	6e                   	outs   dx,BYTE PTR ds:[esi]
    1b0d:	00 01                	add    BYTE PTR [ecx],al
    1b0f:	5f                   	pop    edi
    1b10:	09 e6                	or     esi,esp
    1b12:	00 00                	add    BYTE PTR [eax],al
    1b14:	00 02                	add    BYTE PTR [edx],al
    1b16:	91                   	xchg   ecx,eax
    1b17:	48                   	dec    eax
    1b18:	0f 6e 75 6d          	movd   mm6,DWORD PTR [ebp+0x6d]
    1b1c:	00 01                	add    BYTE PTR [ecx],al
    1b1e:	60                   	pusha  
    1b1f:	13 b3 01 00 00 02    	adc    esi,DWORD PTR [ebx+0x2000001]
    1b25:	91                   	xchg   ecx,eax
    1b26:	6c                   	ins    BYTE PTR es:[edi],dx
    1b27:	0f 69 00             	punpckhwd mm0,QWORD PTR [eax]
    1b2a:	01 61 09             	add    DWORD PTR [ecx+0x9],esp
    1b2d:	e6 00                	out    0x0,al
    1b2f:	00 00                	add    BYTE PTR [eax],al
    1b31:	02 91 68 0f 62 61    	add    dl,BYTE PTR [ecx+0x61620f68]
    1b37:	73 65                	jae    1b9e <.debug_info+0x392>
    1b39:	00 01                	add    BYTE PTR [ecx],al
    1b3b:	61                   	popa   
    1b3c:	0c e6                	or     al,0xe6
    1b3e:	00 00                	add    BYTE PTR [eax],al
    1b40:	00 02                	add    BYTE PTR [edx],al
    1b42:	91                   	xchg   ecx,eax
    1b43:	64 0f 73             	fs (bad) 
    1b46:	74 72                	je     1bba <.debug_info+0x3ae>
    1b48:	00 01                	add    BYTE PTR [ecx],al
    1b4a:	62 0b                	bound  ecx,QWORD PTR [ebx]
    1b4c:	a7                   	cmps   DWORD PTR ds:[esi],DWORD PTR es:[edi]
    1b4d:	01 00                	add    DWORD PTR [eax],eax
    1b4f:	00 02                	add    BYTE PTR [edx],al
    1b51:	91                   	xchg   ecx,eax
    1b52:	60                   	pusha  
    1b53:	0f 73                	(bad)  
    1b55:	00 01                	add    BYTE PTR [ecx],al
    1b57:	63 11                	arpl   WORD PTR [ecx],dx
    1b59:	37                   	aaa    
    1b5a:	02 00                	add    al,BYTE PTR [eax]
    1b5c:	00 02                	add    BYTE PTR [edx],al
    1b5e:	91                   	xchg   ecx,eax
    1b5f:	5c                   	pop    esp
    1b60:	0f 66 6c 61 67       	pcmpgtd mm5,QWORD PTR [ecx+eiz*2+0x67]
    1b65:	73 00                	jae    1b67 <.debug_info+0x35b>
    1b67:	01 65 09             	add    DWORD PTR [ebp+0x9],esp
    1b6a:	e6 00                	out    0x0,al
    1b6c:	00 00                	add    BYTE PTR [eax],al
    1b6e:	02 91 58 0f 66 69    	add    dl,BYTE PTR [ecx+0x69660f58]
    1b74:	65 6c                	gs ins BYTE PTR es:[edi],dx
    1b76:	64 5f                	fs pop edi
    1b78:	77 69                	ja     1be3 <.debug_info+0x3d7>
    1b7a:	64 74 68             	fs je  1be5 <.debug_info+0x3d9>
    1b7d:	00 01                	add    BYTE PTR [ecx],al
    1b7f:	67 09 e6             	addr16 or esi,esp
    1b82:	00 00                	add    BYTE PTR [eax],al
    1b84:	00 02                	add    BYTE PTR [edx],al
    1b86:	91                   	xchg   ecx,eax
    1b87:	54                   	push   esp
    1b88:	10 00                	adc    BYTE PTR [eax],al
    1b8a:	00 00                	add    BYTE PTR [eax],al
    1b8c:	00 01                	add    BYTE PTR [ecx],al
    1b8e:	68 09 e6 00 00       	push   0xe609
    1b93:	00 02                	add    BYTE PTR [edx],al
    1b95:	91                   	xchg   ecx,eax
    1b96:	50                   	push   eax
    1b97:	0f 71                	(bad)  
    1b99:	75 61                	jne    1bfc <.debug_info+0x3f0>
    1b9b:	6c                   	ins    BYTE PTR es:[edi],dx
    1b9c:	69 66 69 65 72 00 01 	imul   esp,DWORD PTR [esi+0x69],0x1007265
    1ba3:	6a 09                	push   0x9
    1ba5:	e6 00                	out    0x0,al
    1ba7:	00 00                	add    BYTE PTR [eax],al
    1ba9:	02 91 4c 11 72 65    	add    dl,BYTE PTR [ecx+0x6572114c]
    1baf:	70 65                	jo     1c16 <.debug_info+0x40a>
    1bb1:	61                   	popa   
    1bb2:	74 00                	je     1bb4 <.debug_info+0x3a8>
    1bb4:	01 74 0b 17          	add    DWORD PTR [ebx+ecx*1+0x17],esi
    1bb8:	10 10                	adc    BYTE PTR [eax],dl
    1bba:	00 12                	add    BYTE PTR [edx],dl
    1bbc:	22 13                	and    dl,BYTE PTR [ebx]
    1bbe:	10 00                	adc    BYTE PTR [eax],al
    1bc0:	21 00                	and    DWORD PTR [eax],eax
    1bc2:	00 00                	add    BYTE PTR [eax],al
    1bc4:	cb                   	retf   
    1bc5:	03 00                	add    eax,DWORD PTR [eax]
    1bc7:	00 0f                	add    BYTE PTR [edi],cl
    1bc9:	69 70 00 01 d2 17 e4 	imul   esi,DWORD PTR [eax+0x0],0xe417d201
    1bd0:	03 00                	add    eax,DWORD PTR [eax]
    1bd2:	00 02                	add    BYTE PTR [edx],al
    1bd4:	91                   	xchg   ecx,eax
    1bd5:	40                   	inc    eax
    1bd6:	00 13                	add    BYTE PTR [ebx],dl
    1bd8:	48                   	dec    eax
    1bd9:	13 10                	adc    edx,DWORD PTR [eax]
    1bdb:	00 21                	add    BYTE PTR [ecx],ah
    1bdd:	00 00                	add    BYTE PTR [eax],al
    1bdf:	00 0f                	add    BYTE PTR [edi],cl
    1be1:	69 70 00 01 d5 16 ad 	imul   esi,DWORD PTR [eax+0x0],0xad16d501
    1be8:	01 00                	add    DWORD PTR [eax],eax
    1bea:	00 02                	add    BYTE PTR [edx],al
    1bec:	91                   	xchg   ecx,eax
    1bed:	44                   	inc    esp
    1bee:	00 00                	add    BYTE PTR [eax],al
    1bf0:	06                   	push   es
    1bf1:	04 9b                	add    al,0x9b
    1bf3:	01 00                	add    DWORD PTR [eax],eax
    1bf5:	00 14 6b             	add    BYTE PTR [ebx+ebp*2],dl
    1bf8:	6e                   	outs   dx,BYTE PTR ds:[esi]
    1bf9:	75 6d                	jne    1c68 <.debug_info+0x45c>
    1bfb:	62 65 72             	bound  esp,QWORD PTR [ebp+0x72]
    1bfe:	00 01                	add    BYTE PTR [ecx],al
    1c00:	17                   	pop    ss
    1c01:	0e                   	push   cs
    1c02:	a7                   	cmps   DWORD PTR ds:[esi],DWORD PTR es:[edi]
    1c03:	01 00                	add    DWORD PTR [eax],eax
    1c05:	00 5a 0d             	add    BYTE PTR [edx+0xd],bl
    1c08:	10 00                	adc    BYTE PTR [eax],al
    1c0a:	81 02 00 00 01 9c    	add    DWORD PTR [edx],0x9c010000
    1c10:	e2 04                	loop   1c16 <.debug_info+0x40a>
    1c12:	00 00                	add    BYTE PTR [eax],al
    1c14:	0e                   	push   cs
    1c15:	73 74                	jae    1c8b <.debug_info+0x47f>
    1c17:	72 00                	jb     1c19 <.debug_info+0x40d>
    1c19:	01 17                	add    DWORD PTR [edi],edx
    1c1b:	1c a7                	sbb    al,0xa7
    1c1d:	01 00                	add    DWORD PTR [eax],eax
    1c1f:	00 02                	add    BYTE PTR [edx],al
    1c21:	91                   	xchg   ecx,eax
    1c22:	00 0e                	add    BYTE PTR [esi],cl
    1c24:	6e                   	outs   dx,BYTE PTR ds:[esi]
    1c25:	75 6d                	jne    1c94 <.debug_info+0x488>
    1c27:	00 01                	add    BYTE PTR [ecx],al
    1c29:	17                   	pop    ss
    1c2a:	26 9b                	es fwait
    1c2c:	01 00                	add    DWORD PTR [eax],eax
    1c2e:	00 02                	add    BYTE PTR [edx],al
    1c30:	91                   	xchg   ecx,eax
    1c31:	04 0e                	add    al,0xe
    1c33:	62 61 73             	bound  esp,QWORD PTR [ecx+0x73]
    1c36:	65 00 01             	add    BYTE PTR gs:[ecx],al
    1c39:	17                   	pop    ss
    1c3a:	2f                   	das    
    1c3b:	e6 00                	out    0x0,al
    1c3d:	00 00                	add    BYTE PTR [eax],al
    1c3f:	02 91 08 0e 73 69    	add    dl,BYTE PTR [ecx+0x69730e08]
    1c45:	7a 65                	jp     1cac <.debug_info+0x4a0>
    1c47:	00 01                	add    BYTE PTR [ecx],al
    1c49:	17                   	pop    ss
    1c4a:	39 e6                	cmp    esi,esp
    1c4c:	00 00                	add    BYTE PTR [eax],al
    1c4e:	00 02                	add    BYTE PTR [edx],al
    1c50:	91                   	xchg   ecx,eax
    1c51:	0c 15                	or     al,0x15
    1c53:	00 00                	add    BYTE PTR [eax],al
    1c55:	00 00                	add    BYTE PTR [eax],al
    1c57:	01 17                	add    DWORD PTR [edi],edx
    1c59:	43                   	inc    ebx
    1c5a:	e6 00                	out    0x0,al
    1c5c:	00 00                	add    BYTE PTR [eax],al
    1c5e:	02 91 10 0e 74 79    	add    dl,BYTE PTR [ecx+0x79740e10]
    1c64:	70 65                	jo     1ccb <.debug_info+0x4bf>
    1c66:	00 01                	add    BYTE PTR [ecx],al
    1c68:	17                   	pop    ss
    1c69:	51                   	push   ecx
    1c6a:	e6 00                	out    0x0,al
    1c6c:	00 00                	add    BYTE PTR [eax],al
    1c6e:	02 91 14 0f 64 69    	add    dl,BYTE PTR [ecx+0x69640f14]
    1c74:	67 69 74 73 00 01 19 	imul   esi,DWORD PTR [si+0x73],0x17190100
    1c7b:	17 
    1c7c:	f2 04 00             	repnz add al,0x0
    1c7f:	00 05 03 3c 32 10    	add    BYTE PTR ds:0x10323c03,al
    1c85:	00 0f                	add    BYTE PTR [edi],cl
    1c87:	74 6d                	je     1cf6 <.debug_info+0x4ea>
    1c89:	70 00                	jo     1c8b <.debug_info+0x47f>
    1c8b:	01 1b                	add    DWORD PTR [ebx],ebx
    1c8d:	0a f7                	or     dh,bh
    1c8f:	04 00                	add    al,0x0
    1c91:	00 03                	add    BYTE PTR [ebx],al
    1c93:	91                   	xchg   ecx,eax
    1c94:	aa                   	stos   BYTE PTR es:[edi],al
    1c95:	7f 0f                	jg     1ca6 <.debug_info+0x49a>
    1c97:	63 00                	arpl   WORD PTR [eax],ax
    1c99:	01 1c 0a             	add    DWORD PTR [edx+ecx*1],ebx
    1c9c:	7e 01                	jle    1c9f <.debug_info+0x493>
    1c9e:	00 00                	add    BYTE PTR [eax],al
    1ca0:	02 91 72 0f 73 69    	add    dl,BYTE PTR [ecx+0x69730f72]
    1ca6:	67 6e                	outs   dx,BYTE PTR ds:[si]
    1ca8:	00 01                	add    BYTE PTR [ecx],al
    1caa:	1c 0d                	sbb    al,0xd
    1cac:	7e 01                	jle    1caf <.debug_info+0x4a3>
    1cae:	00 00                	add    BYTE PTR [eax],al
    1cb0:	02 91 7b 0f 6c 6f    	add    dl,BYTE PTR [ecx+0x6f6c0f7b]
    1cb6:	63 61 73             	arpl   WORD PTR [ecx+0x73],sp
    1cb9:	65 00 01             	add    BYTE PTR gs:[ecx],al
    1cbc:	1c 13                	sbb    al,0x13
    1cbe:	7e 01                	jle    1cc1 <.debug_info+0x4b5>
    1cc0:	00 00                	add    BYTE PTR [eax],al
    1cc2:	02 91 73 0f 69 00    	add    dl,BYTE PTR [ecx+0x690f73]
    1cc8:	01 1d 09 e6 00 00    	add    DWORD PTR ds:0xe609,ebx
    1cce:	00 02                	add    BYTE PTR [edx],al
    1cd0:	91                   	xchg   ecx,eax
    1cd1:	74 13                	je     1ce6 <.debug_info+0x4da>
    1cd3:	44                   	inc    esp
    1cd4:	0e                   	push   cs
    1cd5:	10 00                	adc    BYTE PTR [eax],al
    1cd7:	2c 00                	sub    al,0x0
    1cd9:	00 00                	add    BYTE PTR [eax],al
    1cdb:	0f 5f 5f 72          	maxps  xmm3,XMMWORD PTR [edi+0x72]
    1cdf:	65 73 00             	gs jae 1ce2 <.debug_info+0x4d6>
    1ce2:	01 40 20             	add    DWORD PTR [eax+0x20],eax
    1ce5:	e6 00                	out    0x0,al
    1ce7:	00 00                	add    BYTE PTR [eax],al
    1ce9:	02 91 6c 00 00 0b    	add    dl,BYTE PTR [ecx+0xb00006c]
    1cef:	86 01                	xchg   BYTE PTR [ecx],al
    1cf1:	00 00                	add    BYTE PTR [eax],al
    1cf3:	f2 04 00             	repnz add al,0x0
    1cf6:	00 16                	add    BYTE PTR [esi],dl
    1cf8:	25 01 00 00 0f       	and    eax,0xf000001
    1cfd:	00 05 e2 04 00 00    	add    BYTE PTR ds:0x4e2,al
    1d03:	0b 7e 01             	or     edi,DWORD PTR [esi+0x1]
    1d06:	00 00                	add    BYTE PTR [eax],al
    1d08:	07                   	pop    es
    1d09:	05 00 00 16 25       	add    eax,0x25160000
    1d0e:	01 00                	add    DWORD PTR [eax],eax
    1d10:	00 41 00             	add    BYTE PTR [ecx+0x0],al
    1d13:	17                   	pop    ss
    1d14:	73 6b                	jae    1d81 <.debug_info+0x4>
    1d16:	69 70 5f 61 74 6f 69 	imul   esi,DWORD PTR [eax+0x5f],0x696f7461
    1d1d:	00 01                	add    BYTE PTR [ecx],al
    1d1f:	0e                   	push   cs
    1d20:	0c e6                	or     al,0xe6
    1d22:	00 00                	add    BYTE PTR [eax],al
    1d24:	00 fe                	add    dh,bh
    1d26:	0c 10                	or     al,0x10
    1d28:	00 5c 00 00          	add    BYTE PTR [eax+eax*1+0x0],bl
    1d2c:	00 01                	add    BYTE PTR [ecx],al
    1d2e:	9c                   	pushf  
    1d2f:	42                   	inc    edx
    1d30:	05 00 00 0e 73       	add    eax,0x730e0000
    1d35:	00 01                	add    BYTE PTR [ecx],al
    1d37:	0e                   	push   cs
    1d38:	23 42 05             	and    eax,DWORD PTR [edx+0x5]
    1d3b:	00 00                	add    BYTE PTR [eax],al
    1d3d:	02 91 00 0f 69 00    	add    dl,BYTE PTR [ecx+0x690f00]
    1d43:	01 10                	add    DWORD PTR [eax],edx
    1d45:	09 e6                	or     esi,esp
    1d47:	00 00                	add    BYTE PTR [eax],al
    1d49:	00 02                	add    BYTE PTR [edx],al
    1d4b:	91                   	xchg   ecx,eax
    1d4c:	74 00                	je     1d4e <.debug_info+0x542>
    1d4e:	06                   	push   es
    1d4f:	04 37                	add    al,0x37
    1d51:	02 00                	add    al,BYTE PTR [eax]
    1d53:	00 18                	add    BYTE PTR [eax],bl
    1d55:	69 73 64 69 67 69 74 	imul   esi,DWORD PTR [ebx+0x64],0x74696769
    1d5c:	00 01                	add    BYTE PTR [ecx],al
    1d5e:	09 13                	or     DWORD PTR [ebx],edx
    1d60:	e6 00                	out    0x0,al
    1d62:	00 00                	add    BYTE PTR [eax],al
    1d64:	e4 0c                	in     al,0xc
    1d66:	10 00                	adc    BYTE PTR [eax],al
    1d68:	1a 00                	sbb    al,BYTE PTR [eax]
    1d6a:	00 00                	add    BYTE PTR [eax],al
    1d6c:	01 9c 0e 63 00 01 09 	add    DWORD PTR [esi+ecx*1+0x9010063],ebx
    1d73:	1f                   	pop    ds
    1d74:	e6 00                	out    0x0,al
    1d76:	00 00                	add    BYTE PTR [eax],al
    1d78:	02 91 00 00 00     	add    dl,BYTE PTR [ecx+0x75000000]

00001d7d <.debug_info>:
    1d7d:	75 03                	jne    1d82 <.debug_info+0x5>
    1d7f:	00 00                	add    BYTE PTR [eax],al
    1d81:	04 00                	add    al,0x0
    1d83:	e7 05                	out    0x5,eax
    1d85:	00 00                	add    BYTE PTR [eax],al
    1d87:	04 01                	add    al,0x1
    1d89:	47                   	inc    edi
    1d8a:	4e                   	dec    esi
    1d8b:	55                   	push   ebp
    1d8c:	20 43 39             	and    BYTE PTR [ebx+0x39],al
    1d8f:	39 20                	cmp    DWORD PTR [eax],esp
    1d91:	39 2e                	cmp    DWORD PTR [esi],ebp
    1d93:	33 2d 77 69 6e 33    	xor    ebp,DWORD PTR ds:0x336e6977
    1d99:	32 20                	xor    ah,BYTE PTR [eax]
    1d9b:	32 30                	xor    dh,BYTE PTR [eax]
    1d9d:	32 30                	xor    dh,BYTE PTR [eax]
    1d9f:	30 33                	xor    BYTE PTR [ebx],dh
    1da1:	32 30                	xor    dh,BYTE PTR [eax]
    1da3:	20 2d 6d 33 32 20    	and    BYTE PTR ds:0x2032336d,ch
    1da9:	2d 6d 74 75 6e       	sub    eax,0x6e75746d
    1dae:	65 3d 67 65 6e 65    	gs cmp eax,0x656e6567
    1db4:	72 69                	jb     1e1f <.debug_info+0xa2>
    1db6:	63 20                	arpl   WORD PTR [eax],sp
    1db8:	2d 6d 61 72 63       	sub    eax,0x6372616d
    1dbd:	68 3d 78 38 36       	push   0x3638783d
    1dc2:	2d 36 34 20 2d       	sub    eax,0x2d203436
    1dc7:	67 20 2d             	and    BYTE PTR [di],ch
    1dca:	67 67 64 62 20       	addr16 bound esp,QWORD PTR fs:[bx+si]
    1dcf:	2d 73 74 64 3d       	sub    eax,0x3d647473
    1dd4:	67 6e                	outs   dx,BYTE PTR ds:[si]
    1dd6:	75 39                	jne    1e11 <.debug_info+0x94>
    1dd8:	39 20                	cmp    DWORD PTR [eax],esp
    1dda:	2d 66 6f 6d 69       	sub    eax,0x696d6f66
    1ddf:	74 2d                	je     1e0e <.debug_info+0x91>
    1de1:	66 72 61             	data16 jb 1e45 <.debug_info+0xc8>
    1de4:	6d                   	ins    DWORD PTR es:[edi],dx
    1de5:	65 2d 70 6f 69 6e    	gs sub eax,0x6e696f70
    1deb:	74 65                	je     1e52 <.debug_info+0xd5>
    1ded:	72 20                	jb     1e0f <.debug_info+0x92>
    1def:	2d 66 69 6e 6c       	sub    eax,0x6c6e6966
    1df4:	69 6e 65 2d 66 75 6e 	imul   ebp,DWORD PTR [esi+0x65],0x6e75662d
    1dfb:	63 74 69 6f          	arpl   WORD PTR [ecx+ebp*2+0x6f],si
    1dff:	6e                   	outs   dx,BYTE PTR ds:[esi]
    1e00:	73 20                	jae    1e22 <.debug_info+0xa5>
    1e02:	2d 66 66 72 65       	sub    eax,0x65726666
    1e07:	65 73 74             	gs jae 1e7e <.debug_info+0x101>
    1e0a:	61                   	popa   
    1e0b:	6e                   	outs   dx,BYTE PTR ds:[esi]
    1e0c:	64 69 6e 67 00 0c 73 	imul   ebp,DWORD PTR fs:[esi+0x67],0x72730c00
    1e13:	72 
    1e14:	63 2f                	arpl   WORD PTR [edi],bp
    1e16:	6b 65 72 6e          	imul   esp,DWORD PTR [ebp+0x72],0x6e
    1e1a:	65 6c                	gs ins BYTE PTR es:[edi],dx
    1e1c:	2f                   	das    
    1e1d:	67 64 74 2e          	addr16 fs je 1e4f <.debug_info+0xd2>
    1e21:	63 00                	arpl   WORD PTR [eax],ax
    1e23:	2f                   	das    
    1e24:	6d                   	ins    DWORD PTR es:[edi],dx
    1e25:	6e                   	outs   dx,BYTE PTR ds:[esi]
    1e26:	74 2f                	je     1e57 <.debug_info+0xda>
    1e28:	63 2f                	arpl   WORD PTR [edi],bp
    1e2a:	70 72                	jo     1e9e <.debug_info+0x121>
    1e2c:	6f                   	outs   dx,DWORD PTR ds:[esi]
    1e2d:	6a 65                	push   0x65
    1e2f:	63 74 73 2f          	arpl   WORD PTR [ebx+esi*2+0x2f],si
    1e33:	6c                   	ins    BYTE PTR es:[edi],dx
    1e34:	69 6e 75 78 2f 6f 73 	imul   ebp,DWORD PTR [esi+0x75],0x736f2f78
    1e3b:	00 48 15             	add    BYTE PTR [eax+0x15],cl
    1e3e:	10 00                	adc    BYTE PTR [eax],al
    1e40:	b0 01                	mov    al,0x1
    1e42:	00 00                	add    BYTE PTR [eax],al
    1e44:	21 0c 00             	and    DWORD PTR [eax+eax*1],ecx
    1e47:	00 02                	add    BYTE PTR [edx],al
    1e49:	01 06                	add    DWORD PTR [esi],eax
    1e4b:	73 69                	jae    1eb6 <.debug_info+0x139>
    1e4d:	67 6e                	outs   dx,BYTE PTR ds:[si]
    1e4f:	65 64 20 63 68       	gs and BYTE PTR fs:[ebx+0x68],ah
    1e54:	61                   	popa   
    1e55:	72 00                	jb     1e57 <.debug_info+0xda>
    1e57:	02 02                	add    al,BYTE PTR [edx]
    1e59:	05 73 68 6f 72       	add    eax,0x726f6873
    1e5e:	74 20                	je     1e80 <.debug_info+0x103>
    1e60:	69 6e 74 00 02 04 05 	imul   ebp,DWORD PTR [esi+0x74],0x5040200
    1e67:	69 6e 74 00 02 08 05 	imul   ebp,DWORD PTR [esi+0x74],0x5080200
    1e6e:	6c                   	ins    BYTE PTR es:[edi],dx
    1e6f:	6f                   	outs   dx,DWORD PTR ds:[esi]
    1e70:	6e                   	outs   dx,BYTE PTR ds:[esi]
    1e71:	67 20 6c 6f          	and    BYTE PTR [si+0x6f],ch
    1e75:	6e                   	outs   dx,BYTE PTR ds:[esi]
    1e76:	67 20 69 6e          	and    BYTE PTR [bx+di+0x6e],ch
    1e7a:	74 00                	je     1e7c <.debug_info+0xff>
    1e7c:	03 75 69             	add    esi,DWORD PTR [ebp+0x69]
    1e7f:	6e                   	outs   dx,BYTE PTR ds:[esi]
    1e80:	74 38                	je     1eba <.debug_info+0x13d>
    1e82:	5f                   	pop    edi
    1e83:	74 00                	je     1e85 <.debug_info+0x108>
    1e85:	02 2e                	add    ch,BYTE PTR [esi]
    1e87:	18 0f                	sbb    BYTE PTR [edi],cl
    1e89:	01 00                	add    DWORD PTR [eax],eax
    1e8b:	00 02                	add    BYTE PTR [edx],al
    1e8d:	01 08                	add    DWORD PTR [eax],ecx
    1e8f:	75 6e                	jne    1eff <.debug_info+0x182>
    1e91:	73 69                	jae    1efc <.debug_info+0x17f>
    1e93:	67 6e                	outs   dx,BYTE PTR ds:[si]
    1e95:	65 64 20 63 68       	gs and BYTE PTR fs:[ebx+0x68],ah
    1e9a:	61                   	popa   
    1e9b:	72 00                	jb     1e9d <.debug_info+0x120>
    1e9d:	03 75 69             	add    esi,DWORD PTR [ebp+0x69]
    1ea0:	6e                   	outs   dx,BYTE PTR ds:[esi]
    1ea1:	74 31                	je     1ed4 <.debug_info+0x157>
    1ea3:	36 5f                	ss pop edi
    1ea5:	74 00                	je     1ea7 <.debug_info+0x12a>
    1ea7:	02 31                	add    dh,BYTE PTR [ecx]
    1ea9:	19 31                	sbb    DWORD PTR [ecx],esi
    1eab:	01 00                	add    DWORD PTR [eax],eax
    1ead:	00 02                	add    BYTE PTR [edx],al
    1eaf:	02 07                	add    al,BYTE PTR [edi]
    1eb1:	73 68                	jae    1f1b <.debug_info+0x19e>
    1eb3:	6f                   	outs   dx,DWORD PTR ds:[esi]
    1eb4:	72 74                	jb     1f2a <.debug_info+0x1ad>
    1eb6:	20 75 6e             	and    BYTE PTR [ebp+0x6e],dh
    1eb9:	73 69                	jae    1f24 <.debug_info+0x1a7>
    1ebb:	67 6e                	outs   dx,BYTE PTR ds:[si]
    1ebd:	65 64 20 69 6e       	gs and BYTE PTR fs:[ecx+0x6e],ch
    1ec2:	74 00                	je     1ec4 <.debug_info+0x147>
    1ec4:	03 75 69             	add    esi,DWORD PTR [ebp+0x69]
    1ec7:	6e                   	outs   dx,BYTE PTR ds:[esi]
    1ec8:	74 33                	je     1efd <.debug_info+0x180>
    1eca:	32 5f 74             	xor    bl,BYTE PTR [edi+0x74]
    1ecd:	00 02                	add    BYTE PTR [edx],al
    1ecf:	34 19                	xor    al,0x19
    1ed1:	58                   	pop    eax
    1ed2:	01 00                	add    DWORD PTR [eax],eax
    1ed4:	00 02                	add    BYTE PTR [edx],al
    1ed6:	04 07                	add    al,0x7
    1ed8:	75 6e                	jne    1f48 <.debug_info+0x1cb>
    1eda:	73 69                	jae    1f45 <.debug_info+0x1c8>
    1edc:	67 6e                	outs   dx,BYTE PTR ds:[si]
    1ede:	65 64 20 69 6e       	gs and BYTE PTR fs:[ecx+0x6e],ch
    1ee3:	74 00                	je     1ee5 <.debug_info+0x168>
    1ee5:	02 08                	add    cl,BYTE PTR [eax]
    1ee7:	07                   	pop    es
    1ee8:	6c                   	ins    BYTE PTR es:[edi],dx
    1ee9:	6f                   	outs   dx,DWORD PTR ds:[esi]
    1eea:	6e                   	outs   dx,BYTE PTR ds:[esi]
    1eeb:	67 20 6c 6f          	and    BYTE PTR [si+0x6f],ch
    1eef:	6e                   	outs   dx,BYTE PTR ds:[esi]
    1ef0:	67 20 75 6e          	and    BYTE PTR [di+0x6e],dh
    1ef4:	73 69                	jae    1f5f <.debug_info+0x1e2>
    1ef6:	67 6e                	outs   dx,BYTE PTR ds:[si]
    1ef8:	65 64 20 69 6e       	gs and BYTE PTR fs:[ecx+0x6e],ch
    1efd:	74 00                	je     1eff <.debug_info+0x182>
    1eff:	02 01                	add    al,BYTE PTR [ecx]
    1f01:	06                   	push   es
    1f02:	63 68 61             	arpl   WORD PTR [eax+0x61],bp
    1f05:	72 00                	jb     1f07 <.debug_info+0x18a>
    1f07:	02 04 05 6c 6f 6e 67 	add    al,BYTE PTR [eax*1+0x676e6f6c]
    1f0e:	20 69 6e             	and    BYTE PTR [ecx+0x6e],ch
    1f11:	74 00                	je     1f13 <.debug_info+0x196>
    1f13:	02 04 07             	add    al,BYTE PTR [edi+eax*1]
    1f16:	6c                   	ins    BYTE PTR es:[edi],dx
    1f17:	6f                   	outs   dx,DWORD PTR ds:[esi]
    1f18:	6e                   	outs   dx,BYTE PTR ds:[esi]
    1f19:	67 20 75 6e          	and    BYTE PTR [di+0x6e],dh
    1f1d:	73 69                	jae    1f88 <.debug_info+0x20b>
    1f1f:	67 6e                	outs   dx,BYTE PTR ds:[si]
    1f21:	65 64 20 69 6e       	gs and BYTE PTR fs:[ecx+0x6e],ch
    1f26:	74 00                	je     1f28 <.debug_info+0x1ab>
    1f28:	04 67                	add    al,0x67
    1f2a:	64 74 5f             	fs je  1f8c <.debug_info+0x20f>
    1f2d:	65 6e                	outs   dx,BYTE PTR gs:[esi]
    1f2f:	74 72                	je     1fa3 <.debug_info+0x226>
    1f31:	79 00                	jns    1f33 <.debug_info+0x1b6>
    1f33:	08 03                	or     BYTE PTR [ebx],al
    1f35:	07                   	pop    es
    1f36:	10 31                	adc    BYTE PTR [ecx],dh
    1f38:	02 00                	add    al,BYTE PTR [eax]
    1f3a:	00 05 6c 69 6d 69    	add    BYTE PTR ds:0x696d696c,al
    1f40:	74 5f                	je     1fa1 <.debug_info+0x224>
    1f42:	6c                   	ins    BYTE PTR es:[edi],dx
    1f43:	6f                   	outs   dx,DWORD PTR ds:[esi]
    1f44:	77 00                	ja     1f46 <.debug_info+0x1c9>
    1f46:	03 09                	add    ecx,DWORD PTR [ecx]
    1f48:	0e                   	push   cs
    1f49:	20 01                	and    BYTE PTR [ecx],al
    1f4b:	00 00                	add    BYTE PTR [eax],al
    1f4d:	00 05 62 61 73 65    	add    BYTE PTR ds:0x65736162,al
    1f53:	5f                   	pop    edi
    1f54:	6c                   	ins    BYTE PTR es:[edi],dx
    1f55:	6f                   	outs   dx,DWORD PTR ds:[esi]
    1f56:	77 00                	ja     1f58 <.debug_info+0x1db>
    1f58:	03 0a                	add    ecx,DWORD PTR [edx]
    1f5a:	0e                   	push   cs
    1f5b:	20 01                	and    BYTE PTR [ecx],al
    1f5d:	00 00                	add    BYTE PTR [eax],al
    1f5f:	02 05 62 61 73 65    	add    al,BYTE PTR ds:0x65736162
    1f65:	5f                   	pop    edi
    1f66:	6d                   	ins    DWORD PTR es:[edi],dx
    1f67:	69 64 64 6c 65 00 03 	imul   esp,DWORD PTR [esp+eiz*2+0x6c],0xb030065
    1f6e:	0b 
    1f6f:	0e                   	push   cs
    1f70:	ff 00                	inc    DWORD PTR [eax]
    1f72:	00 00                	add    BYTE PTR [eax],al
    1f74:	04 05                	add    al,0x5
    1f76:	61                   	popa   
    1f77:	63 63 65             	arpl   WORD PTR [ebx+0x65],sp
    1f7a:	73 73                	jae    1fef <.debug_info+0x272>
    1f7c:	00 03                	add    BYTE PTR [ebx],al
    1f7e:	0c 0e                	or     al,0xe
    1f80:	ff 00                	inc    DWORD PTR [eax]
    1f82:	00 00                	add    BYTE PTR [eax],al
    1f84:	05 05 67 72 61       	add    eax,0x61726705
    1f89:	6e                   	outs   dx,BYTE PTR ds:[esi]
    1f8a:	75 6c                	jne    1ff8 <.debug_info+0x27b>
    1f8c:	61                   	popa   
    1f8d:	72 69                	jb     1ff8 <.debug_info+0x27b>
    1f8f:	74 79                	je     200a <.debug_info+0x28d>
    1f91:	00 03                	add    BYTE PTR [ebx],al
    1f93:	0d 0e ff 00 00       	or     eax,0xff0e
    1f98:	00 06                	add    BYTE PTR [esi],al
    1f9a:	05 62 61 73 65       	add    eax,0x65736162
    1f9f:	5f                   	pop    edi
    1fa0:	68 69 67 68 00       	push   0x686769
    1fa5:	03 0e                	add    ecx,DWORD PTR [esi]
    1fa7:	0e                   	push   cs
    1fa8:	ff 00                	inc    DWORD PTR [eax]
    1faa:	00 00                	add    BYTE PTR [eax],al
    1fac:	07                   	pop    es
    1fad:	00 03                	add    BYTE PTR [ebx],al
    1faf:	67 64 74 5f          	addr16 fs je 2012 <.debug_info+0x295>
    1fb3:	65 6e                	outs   dx,BYTE PTR gs:[esi]
    1fb5:	74 72                	je     2029 <.debug_info+0x2ac>
    1fb7:	79 5f                	jns    2018 <.debug_info+0x29b>
    1fb9:	74 00                	je     1fbb <.debug_info+0x23e>
    1fbb:	03 0f                	add    ecx,DWORD PTR [edi]
    1fbd:	1b ab 01 00 00 04    	sbb    ebp,DWORD PTR [ebx+0x4000001]
    1fc3:	67 64 74 5f          	addr16 fs je 2026 <.debug_info+0x2a9>
    1fc7:	70 74                	jo     203d <.debug_info+0x2c0>
    1fc9:	72 00                	jb     1fcb <.debug_info+0x24e>
    1fcb:	06                   	push   es
    1fcc:	03 11                	add    edx,DWORD PTR [ecx]
    1fce:	10 74 02 00          	adc    BYTE PTR [edx+eax*1+0x0],dh
    1fd2:	00 05 6c 69 6d 69    	add    BYTE PTR ds:0x696d696c,al
    1fd8:	74 00                	je     1fda <.debug_info+0x25d>
    1fda:	03 13                	add    edx,DWORD PTR [ebx]
    1fdc:	0e                   	push   cs
    1fdd:	20 01                	and    BYTE PTR [ecx],al
    1fdf:	00 00                	add    BYTE PTR [eax],al
    1fe1:	00 05 62 61 73 65    	add    BYTE PTR ds:0x65736162,al
    1fe7:	00 03                	add    BYTE PTR [ebx],al
    1fe9:	14 0e                	adc    al,0xe
    1feb:	47                   	inc    edi
    1fec:	01 00                	add    DWORD PTR [eax],eax
    1fee:	00 02                	add    BYTE PTR [edx],al
    1ff0:	00 03                	add    BYTE PTR [ebx],al
    1ff2:	67 64 74 5f          	addr16 fs je 2055 <.debug_info+0x2d8>
    1ff6:	70 74                	jo     206c <.debug_info+0x2ef>
    1ff8:	72 5f                	jb     2059 <.debug_info+0x2dc>
    1ffa:	74 00                	je     1ffc <.debug_info+0x27f>
    1ffc:	03 15 1b 45 02 00    	add    edx,DWORD PTR ds:0x2451b
    2002:	00 06                	add    BYTE PTR [esi],al
    2004:	31 02                	xor    DWORD PTR [edx],eax
    2006:	00 00                	add    BYTE PTR [eax],al
    2008:	96                   	xchg   esi,eax
    2009:	02 00                	add    al,BYTE PTR [eax]
    200b:	00 07                	add    BYTE PTR [edi],al
    200d:	58                   	pop    eax
    200e:	01 00                	add    DWORD PTR [eax],eax
    2010:	00 07                	add    BYTE PTR [edi],al
    2012:	00 08                	add    BYTE PTR [eax],cl
    2014:	67 64 74 5f          	addr16 fs je 2077 <.debug_info+0x2fa>
    2018:	65 6e                	outs   dx,BYTE PTR gs:[esi]
    201a:	74 72                	je     208e <.debug_info+0x311>
    201c:	69 65 73 00 03 19 14 	imul   esp,DWORD PTR [ebp+0x73],0x14190300
    2023:	86 02                	xchg   BYTE PTR [edx],al
    2025:	00 00                	add    BYTE PTR [eax],al
    2027:	08 67 64             	or     BYTE PTR [edi+0x64],ah
    202a:	74 5f                	je     208b <.debug_info+0x30e>
    202c:	70 74                	jo     20a2 <.debug_info+0x325>
    202e:	72 00                	jb     2030 <.debug_info+0x2b3>
    2030:	03 1a                	add    ebx,DWORD PTR [edx]
    2032:	14 74                	adc    al,0x74
    2034:	02 00                	add    al,BYTE PTR [eax]
    2036:	00 09                	add    BYTE PTR [ecx],cl
    2038:	96                   	xchg   esi,eax
    2039:	02 00                	add    al,BYTE PTR [eax]
    203b:	00 01                	add    BYTE PTR [ecx],al
    203d:	03 0d 05 03 20 80    	add    ecx,DWORD PTR ds:0x80200305
    2043:	10 00                	adc    BYTE PTR [eax],al
    2045:	09 aa 02 00 00 01    	or     DWORD PTR [edx+0x1000002],ebp
    204b:	04 0d                	add    al,0xd
    204d:	05 03 60 80 10       	add    eax,0x10806003
    2052:	00 0a                	add    BYTE PTR [edx],cl
    2054:	67 64 74 5f          	addr16 fs je 20b7 <.debug_info+0x33a>
    2058:	69 6e 69 74 00 01 11 	imul   ebp,DWORD PTR [esi+0x69],0x11010074
    205f:	06                   	push   es
    2060:	e5 15                	in     eax,0x15
    2062:	10 00                	adc    BYTE PTR [eax],al
    2064:	13 01                	adc    eax,DWORD PTR [ecx]
    2066:	00 00                	add    BYTE PTR [eax],al
    2068:	01 9c 0b 67 64 74 5f 	add    DWORD PTR [ebx+ecx*1+0x5f746467],ebx
    206f:	73 65                	jae    20d6 <.debug_info+0x359>
    2071:	74 5f                	je     20d2 <.debug_info+0x355>
    2073:	65 6e                	outs   dx,BYTE PTR gs:[esi]
    2075:	74 72                	je     20e9 <.debug_info+0x36c>
    2077:	79 00                	jns    2079 <.debug_info+0x2fc>
    2079:	01 06                	add    DWORD PTR [esi],eax
    207b:	06                   	push   es
    207c:	48                   	dec    eax
    207d:	15 10 00 9d 00       	adc    eax,0x9d0010
    2082:	00 00                	add    BYTE PTR [eax],al
    2084:	01 9c 72 03 00 00 0c 	add    DWORD PTR [edx+esi*2+0xc000003],ebx
    208b:	69 6e 64 65 78 00 01 	imul   ebp,DWORD PTR [esi+0x64],0x1007865
    2092:	06                   	push   es
    2093:	18 e7                	sbb    bh,ah
    2095:	00 00                	add    BYTE PTR [eax],al
    2097:	00 02                	add    BYTE PTR [edx],al
    2099:	91                   	xchg   ecx,eax
    209a:	00 0c 62             	add    BYTE PTR [edx+eiz*2],cl
    209d:	61                   	popa   
    209e:	73 65                	jae    2105 <.debug_info+0xf>
    20a0:	00 01                	add    BYTE PTR [ecx],al
    20a2:	06                   	push   es
    20a3:	28 47 01             	sub    BYTE PTR [edi+0x1],al
    20a6:	00 00                	add    BYTE PTR [eax],al
    20a8:	02 91 04 0c 6c 69    	add    dl,BYTE PTR [ecx+0x696c0c04]
    20ae:	6d                   	ins    DWORD PTR es:[edi],dx
    20af:	69 74 00 01 06 37 47 	imul   esi,DWORD PTR [eax+eax*1+0x1],0x1473706
    20b6:	01 
    20b7:	00 00                	add    BYTE PTR [eax],al
    20b9:	02 91 08 0c 61 63    	add    dl,BYTE PTR [ecx+0x63610c08]
    20bf:	63 65 73             	arpl   WORD PTR [ebp+0x73],sp
    20c2:	73 00                	jae    20c4 <.debug_info+0x347>
    20c4:	01 06                	add    DWORD PTR [esi],eax
    20c6:	46                   	inc    esi
    20c7:	ff 00                	inc    DWORD PTR [eax]
    20c9:	00 00                	add    BYTE PTR [eax],al
    20cb:	02 91 68 0c 67 72    	add    dl,BYTE PTR [ecx+0x72670c68]
    20d1:	61                   	popa   
    20d2:	6e                   	outs   dx,BYTE PTR ds:[esi]
    20d3:	00 01                	add    BYTE PTR [ecx],al
    20d5:	06                   	push   es
    20d6:	56                   	push   esi
    20d7:	ff 00                	inc    DWORD PTR [eax]
    20d9:	00 00                	add    BYTE PTR [eax],al
    20db:	02 91 64 0d 74 68    	add    dl,BYTE PTR [ecx+0x68740d64]
    20e1:	69 73 00 01 07 13 72 	imul   esi,DWORD PTR [ebx+0x0],0x72130701
    20e8:	03 00                	add    eax,DWORD PTR [eax]
    20ea:	00 02                	add    BYTE PTR [edx],al
    20ec:	91                   	xchg   ecx,eax
    20ed:	78 00                	js     20ef <.debug_info+0x372>
    20ef:	0e                   	push   cs
    20f0:	04 31                	add    al,0x31
    20f2:	02 00                	add    al,BYTE PTR [eax]
	...

000020f6 <.debug_info>:
    20f6:	00 06                	add    BYTE PTR [esi],al
    20f8:	00 00                	add    BYTE PTR [eax],al
    20fa:	04 00                	add    al,0x0
    20fc:	ca 06 00             	retf   0x6
    20ff:	00 04 01             	add    BYTE PTR [ecx+eax*1],al
    2102:	47                   	inc    edi
    2103:	4e                   	dec    esi
    2104:	55                   	push   ebp
    2105:	20 43 39             	and    BYTE PTR [ebx+0x39],al
    2108:	39 20                	cmp    DWORD PTR [eax],esp
    210a:	39 2e                	cmp    DWORD PTR [esi],ebp
    210c:	33 2d 77 69 6e 33    	xor    ebp,DWORD PTR ds:0x336e6977
    2112:	32 20                	xor    ah,BYTE PTR [eax]
    2114:	32 30                	xor    dh,BYTE PTR [eax]
    2116:	32 30                	xor    dh,BYTE PTR [eax]
    2118:	30 33                	xor    BYTE PTR [ebx],dh
    211a:	32 30                	xor    dh,BYTE PTR [eax]
    211c:	20 2d 6d 33 32 20    	and    BYTE PTR ds:0x2032336d,ch
    2122:	2d 6d 74 75 6e       	sub    eax,0x6e75746d
    2127:	65 3d 67 65 6e 65    	gs cmp eax,0x656e6567
    212d:	72 69                	jb     2198 <.debug_info+0xa2>
    212f:	63 20                	arpl   WORD PTR [eax],sp
    2131:	2d 6d 61 72 63       	sub    eax,0x6372616d
    2136:	68 3d 78 38 36       	push   0x3638783d
    213b:	2d 36 34 20 2d       	sub    eax,0x2d203436
    2140:	67 20 2d             	and    BYTE PTR [di],ch
    2143:	67 67 64 62 20       	addr16 bound esp,QWORD PTR fs:[bx+si]
    2148:	2d 73 74 64 3d       	sub    eax,0x3d647473
    214d:	67 6e                	outs   dx,BYTE PTR ds:[si]
    214f:	75 39                	jne    218a <.debug_info+0x94>
    2151:	39 20                	cmp    DWORD PTR [eax],esp
    2153:	2d 66 6f 6d 69       	sub    eax,0x696d6f66
    2158:	74 2d                	je     2187 <.debug_info+0x91>
    215a:	66 72 61             	data16 jb 21be <.debug_info+0xc8>
    215d:	6d                   	ins    DWORD PTR es:[edi],dx
    215e:	65 2d 70 6f 69 6e    	gs sub eax,0x6e696f70
    2164:	74 65                	je     21cb <.debug_info+0xd5>
    2166:	72 20                	jb     2188 <.debug_info+0x92>
    2168:	2d 66 69 6e 6c       	sub    eax,0x6c6e6966
    216d:	69 6e 65 2d 66 75 6e 	imul   ebp,DWORD PTR [esi+0x65],0x6e75662d
    2174:	63 74 69 6f          	arpl   WORD PTR [ecx+ebp*2+0x6f],si
    2178:	6e                   	outs   dx,BYTE PTR ds:[esi]
    2179:	73 20                	jae    219b <.debug_info+0xa5>
    217b:	2d 66 66 72 65       	sub    eax,0x65726666
    2180:	65 73 74             	gs jae 21f7 <.debug_info+0x101>
    2183:	61                   	popa   
    2184:	6e                   	outs   dx,BYTE PTR ds:[esi]
    2185:	64 69 6e 67 00 0c 73 	imul   ebp,DWORD PTR fs:[esi+0x67],0x72730c00
    218c:	72 
    218d:	63 2f                	arpl   WORD PTR [edi],bp
    218f:	6b 65 72 6e          	imul   esp,DWORD PTR [ebp+0x72],0x6e
    2193:	65 6c                	gs ins BYTE PTR es:[edi],dx
    2195:	2f                   	das    
    2196:	69 64 74 2e 63 00 2f 	imul   esp,DWORD PTR [esp+esi*2+0x2e],0x6d2f0063
    219d:	6d 
    219e:	6e                   	outs   dx,BYTE PTR ds:[esi]
    219f:	74 2f                	je     21d0 <.debug_info+0xda>
    21a1:	63 2f                	arpl   WORD PTR [edi],bp
    21a3:	70 72                	jo     2217 <.debug_info+0x121>
    21a5:	6f                   	outs   dx,DWORD PTR ds:[esi]
    21a6:	6a 65                	push   0x65
    21a8:	63 74 73 2f          	arpl   WORD PTR [ebx+esi*2+0x2f],si
    21ac:	6c                   	ins    BYTE PTR es:[edi],dx
    21ad:	69 6e 75 78 2f 6f 73 	imul   ebp,DWORD PTR [esi+0x75],0x736f2f78
    21b4:	00 f8                	add    al,bh
    21b6:	16                   	push   ss
    21b7:	10 00                	adc    BYTE PTR [eax],al
    21b9:	b6 09                	mov    dh,0x9
    21bb:	00 00                	add    BYTE PTR [eax],al
    21bd:	09 0d 00 00 02 01    	or     DWORD PTR ds:0x1020000,ecx
    21c3:	06                   	push   es
    21c4:	73 69                	jae    222f <.debug_info+0x139>
    21c6:	67 6e                	outs   dx,BYTE PTR ds:[si]
    21c8:	65 64 20 63 68       	gs and BYTE PTR fs:[ebx+0x68],ah
    21cd:	61                   	popa   
    21ce:	72 00                	jb     21d0 <.debug_info+0xda>
    21d0:	02 02                	add    al,BYTE PTR [edx]
    21d2:	05 73 68 6f 72       	add    eax,0x726f6873
    21d7:	74 20                	je     21f9 <.debug_info+0x103>
    21d9:	69 6e 74 00 02 04 05 	imul   ebp,DWORD PTR [esi+0x74],0x5040200
    21e0:	69 6e 74 00 02 08 05 	imul   ebp,DWORD PTR [esi+0x74],0x5080200
    21e7:	6c                   	ins    BYTE PTR es:[edi],dx
    21e8:	6f                   	outs   dx,DWORD PTR ds:[esi]
    21e9:	6e                   	outs   dx,BYTE PTR ds:[esi]
    21ea:	67 20 6c 6f          	and    BYTE PTR [si+0x6f],ch
    21ee:	6e                   	outs   dx,BYTE PTR ds:[esi]
    21ef:	67 20 69 6e          	and    BYTE PTR [bx+di+0x6e],ch
    21f3:	74 00                	je     21f5 <.debug_info+0xff>
    21f5:	03 75 69             	add    esi,DWORD PTR [ebp+0x69]
    21f8:	6e                   	outs   dx,BYTE PTR ds:[esi]
    21f9:	74 38                	je     2233 <.debug_info+0x13d>
    21fb:	5f                   	pop    edi
    21fc:	74 00                	je     21fe <.debug_info+0x108>
    21fe:	02 2e                	add    ch,BYTE PTR [esi]
    2200:	18 0f                	sbb    BYTE PTR [edi],cl
    2202:	01 00                	add    DWORD PTR [eax],eax
    2204:	00 02                	add    BYTE PTR [edx],al
    2206:	01 08                	add    DWORD PTR [eax],ecx
    2208:	75 6e                	jne    2278 <.debug_info+0x182>
    220a:	73 69                	jae    2275 <.debug_info+0x17f>
    220c:	67 6e                	outs   dx,BYTE PTR ds:[si]
    220e:	65 64 20 63 68       	gs and BYTE PTR fs:[ebx+0x68],ah
    2213:	61                   	popa   
    2214:	72 00                	jb     2216 <.debug_info+0x120>
    2216:	03 75 69             	add    esi,DWORD PTR [ebp+0x69]
    2219:	6e                   	outs   dx,BYTE PTR ds:[esi]
    221a:	74 31                	je     224d <.debug_info+0x157>
    221c:	36 5f                	ss pop edi
    221e:	74 00                	je     2220 <.debug_info+0x12a>
    2220:	02 31                	add    dh,BYTE PTR [ecx]
    2222:	19 31                	sbb    DWORD PTR [ecx],esi
    2224:	01 00                	add    DWORD PTR [eax],eax
    2226:	00 02                	add    BYTE PTR [edx],al
    2228:	02 07                	add    al,BYTE PTR [edi]
    222a:	73 68                	jae    2294 <.debug_info+0x19e>
    222c:	6f                   	outs   dx,DWORD PTR ds:[esi]
    222d:	72 74                	jb     22a3 <.debug_info+0x1ad>
    222f:	20 75 6e             	and    BYTE PTR [ebp+0x6e],dh
    2232:	73 69                	jae    229d <.debug_info+0x1a7>
    2234:	67 6e                	outs   dx,BYTE PTR ds:[si]
    2236:	65 64 20 69 6e       	gs and BYTE PTR fs:[ecx+0x6e],ch
    223b:	74 00                	je     223d <.debug_info+0x147>
    223d:	03 75 69             	add    esi,DWORD PTR [ebp+0x69]
    2240:	6e                   	outs   dx,BYTE PTR ds:[esi]
    2241:	74 33                	je     2276 <.debug_info+0x180>
    2243:	32 5f 74             	xor    bl,BYTE PTR [edi+0x74]
    2246:	00 02                	add    BYTE PTR [edx],al
    2248:	34 19                	xor    al,0x19
    224a:	58                   	pop    eax
    224b:	01 00                	add    DWORD PTR [eax],eax
    224d:	00 02                	add    BYTE PTR [edx],al
    224f:	04 07                	add    al,0x7
    2251:	75 6e                	jne    22c1 <.debug_info+0x1cb>
    2253:	73 69                	jae    22be <.debug_info+0x1c8>
    2255:	67 6e                	outs   dx,BYTE PTR ds:[si]
    2257:	65 64 20 69 6e       	gs and BYTE PTR fs:[ecx+0x6e],ch
    225c:	74 00                	je     225e <.debug_info+0x168>
    225e:	02 08                	add    cl,BYTE PTR [eax]
    2260:	07                   	pop    es
    2261:	6c                   	ins    BYTE PTR es:[edi],dx
    2262:	6f                   	outs   dx,DWORD PTR ds:[esi]
    2263:	6e                   	outs   dx,BYTE PTR ds:[esi]
    2264:	67 20 6c 6f          	and    BYTE PTR [si+0x6f],ch
    2268:	6e                   	outs   dx,BYTE PTR ds:[esi]
    2269:	67 20 75 6e          	and    BYTE PTR [di+0x6e],dh
    226d:	73 69                	jae    22d8 <.debug_info+0x1e2>
    226f:	67 6e                	outs   dx,BYTE PTR ds:[si]
    2271:	65 64 20 69 6e       	gs and BYTE PTR fs:[ecx+0x6e],ch
    2276:	74 00                	je     2278 <.debug_info+0x182>
    2278:	02 01                	add    al,BYTE PTR [ecx]
    227a:	06                   	push   es
    227b:	63 68 61             	arpl   WORD PTR [eax+0x61],bp
    227e:	72 00                	jb     2280 <.debug_info+0x18a>
    2280:	02 04 05 6c 6f 6e 67 	add    al,BYTE PTR [eax*1+0x676e6f6c]
    2287:	20 69 6e             	and    BYTE PTR [ecx+0x6e],ch
    228a:	74 00                	je     228c <.debug_info+0x196>
    228c:	04 04                	add    al,0x4
    228e:	82 01 00             	add    BYTE PTR [ecx],0x0
    2291:	00 02                	add    BYTE PTR [edx],al
    2293:	04 07                	add    al,0x7
    2295:	6c                   	ins    BYTE PTR es:[edi],dx
    2296:	6f                   	outs   dx,DWORD PTR ds:[esi]
    2297:	6e                   	outs   dx,BYTE PTR ds:[esi]
    2298:	67 20 75 6e          	and    BYTE PTR [di+0x6e],dh
    229c:	73 69                	jae    2307 <.debug_info+0x211>
    229e:	67 6e                	outs   dx,BYTE PTR ds:[si]
    22a0:	65 64 20 69 6e       	gs and BYTE PTR fs:[ecx+0x6e],ch
    22a5:	74 00                	je     22a7 <.debug_info+0x1b1>
    22a7:	05 69 64 74 5f       	add    eax,0x5f746469
    22ac:	65 6e                	outs   dx,BYTE PTR gs:[esi]
    22ae:	74 72                	je     2322 <.debug_info+0x22c>
    22b0:	79 00                	jns    22b2 <.debug_info+0x1bc>
    22b2:	08 03                	or     BYTE PTR [ebx],al
    22b4:	07                   	pop    es
    22b5:	10 14 02             	adc    BYTE PTR [edx+eax*1],dl
    22b8:	00 00                	add    BYTE PTR [eax],al
    22ba:	06                   	push   es
    22bb:	62 61 73             	bound  esp,QWORD PTR [ecx+0x73]
    22be:	65 5f                	gs pop edi
    22c0:	6c                   	ins    BYTE PTR es:[edi],dx
    22c1:	6f                   	outs   dx,DWORD PTR ds:[esi]
    22c2:	00 03                	add    BYTE PTR [ebx],al
    22c4:	08 0e                	or     BYTE PTR [esi],cl
    22c6:	20 01                	and    BYTE PTR [ecx],al
    22c8:	00 00                	add    BYTE PTR [eax],al
    22ca:	00 06                	add    BYTE PTR [esi],al
    22cc:	73 65                	jae    2333 <.debug_info+0x23d>
    22ce:	6c                   	ins    BYTE PTR es:[edi],dx
    22cf:	00 03                	add    BYTE PTR [ebx],al
    22d1:	09 0e                	or     DWORD PTR [esi],ecx
    22d3:	20 01                	and    BYTE PTR [ecx],al
    22d5:	00 00                	add    BYTE PTR [eax],al
    22d7:	02 06                	add    al,BYTE PTR [esi]
    22d9:	61                   	popa   
    22da:	6c                   	ins    BYTE PTR es:[edi],dx
    22db:	77 61                	ja     233e <.debug_info+0x248>
    22dd:	79 73                	jns    2352 <.debug_info+0x25c>
    22df:	30 00                	xor    BYTE PTR [eax],al
    22e1:	03 0a                	add    ecx,DWORD PTR [edx]
    22e3:	0d ff 00 00 00       	or     eax,0xff
    22e8:	04 06                	add    al,0x6
    22ea:	66 6c                	data16 ins BYTE PTR es:[edi],dx
    22ec:	61                   	popa   
    22ed:	67 73 00             	addr16 jae 22f0 <.debug_info+0x1fa>
    22f0:	03 0b                	add    ecx,DWORD PTR [ebx]
    22f2:	0d ff 00 00 00       	or     eax,0xff
    22f7:	05 06 62 61 73       	add    eax,0x73616206
    22fc:	65 5f                	gs pop edi
    22fe:	68 69 00 03 0c       	push   0xc030069
    2303:	0e                   	push   cs
    2304:	20 01                	and    BYTE PTR [ecx],al
    2306:	00 00                	add    BYTE PTR [eax],al
    2308:	06                   	push   es
    2309:	00 03                	add    BYTE PTR [ebx],al
    230b:	69 64 74 5f 65 6e 74 	imul   esp,DWORD PTR [esp+esi*2+0x5f],0x72746e65
    2312:	72 
    2313:	79 5f                	jns    2374 <.debug_info+0x27e>
    2315:	74 00                	je     2317 <.debug_info+0x221>
    2317:	03 0d 1b b1 01 00    	add    ecx,DWORD PTR ds:0x1b11b
    231d:	00 05 69 64 74 5f    	add    BYTE PTR ds:0x5f746469,al
    2323:	70 74                	jo     2399 <.debug_info+0x2a3>
    2325:	72 00                	jb     2327 <.debug_info+0x231>
    2327:	06                   	push   es
    2328:	03 0f                	add    ecx,DWORD PTR [edi]
    232a:	10 57 02             	adc    BYTE PTR [edi+0x2],dl
    232d:	00 00                	add    BYTE PTR [eax],al
    232f:	06                   	push   es
    2330:	6c                   	ins    BYTE PTR es:[edi],dx
    2331:	69 6d 69 74 00 03 10 	imul   ebp,DWORD PTR [ebp+0x69],0x10030074
    2338:	0e                   	push   cs
    2339:	20 01                	and    BYTE PTR [ecx],al
    233b:	00 00                	add    BYTE PTR [eax],al
    233d:	00 06                	add    BYTE PTR [esi],al
    233f:	62 61 73             	bound  esp,QWORD PTR [ecx+0x73]
    2342:	65 00 03             	add    BYTE PTR gs:[ebx],al
    2345:	11 0e                	adc    DWORD PTR [esi],ecx
    2347:	47                   	inc    edi
    2348:	01 00                	add    DWORD PTR [eax],eax
    234a:	00 02                	add    BYTE PTR [edx],al
    234c:	00 03                	add    BYTE PTR [ebx],al
    234e:	69 64 74 5f 70 74 72 	imul   esp,DWORD PTR [esp+esi*2+0x5f],0x5f727470
    2355:	5f 
    2356:	74 00                	je     2358 <.debug_info+0x262>
    2358:	03 12                	add    edx,DWORD PTR [edx]
    235a:	1b 28                	sbb    ebp,DWORD PTR [eax]
    235c:	02 00                	add    al,BYTE PTR [eax]
    235e:	00 05 72 65 67 69    	add    BYTE PTR ds:0x69676572,al
    2364:	73 74                	jae    23da <.debug_info+0x2e4>
    2366:	65 72 73             	gs jb  23dc <.debug_info+0x2e6>
    2369:	00 40 03             	add    BYTE PTR [eax+0x3],al
    236c:	14 10                	adc    al,0x10
    236e:	59                   	pop    ecx
    236f:	03 00                	add    eax,DWORD PTR [eax]
    2371:	00 06                	add    BYTE PTR [esi],al
    2373:	64 73 00             	fs jae 2376 <.debug_info+0x280>
    2376:	03 16                	add    edx,DWORD PTR [esi]
    2378:	0e                   	push   cs
    2379:	47                   	inc    edi
    237a:	01 00                	add    DWORD PTR [eax],eax
    237c:	00 00                	add    BYTE PTR [eax],al
    237e:	06                   	push   es
    237f:	65 64 69 00 03 17 0e 	gs imul eax,DWORD PTR fs:[eax],0x470e1703
    2386:	47 
    2387:	01 00                	add    DWORD PTR [eax],eax
    2389:	00 04 06             	add    BYTE PTR [esi+eax*1],al
    238c:	65 73 69             	gs jae 23f8 <.debug_info+0x302>
    238f:	00 03                	add    BYTE PTR [ebx],al
    2391:	17                   	pop    ss
    2392:	13 47 01             	adc    eax,DWORD PTR [edi+0x1]
    2395:	00 00                	add    BYTE PTR [eax],al
    2397:	08 06                	or     BYTE PTR [esi],al
    2399:	65 62 70 00          	bound  esi,QWORD PTR gs:[eax+0x0]
    239d:	03 17                	add    edx,DWORD PTR [edi]
    239f:	18 47 01             	sbb    BYTE PTR [edi+0x1],al
    23a2:	00 00                	add    BYTE PTR [eax],al
    23a4:	0c 06                	or     al,0x6
    23a6:	65 73 70             	gs jae 2419 <.debug_info+0x323>
    23a9:	00 03                	add    BYTE PTR [ebx],al
    23ab:	17                   	pop    ss
    23ac:	1d 47 01 00 00       	sbb    eax,0x147
    23b1:	10 06                	adc    BYTE PTR [esi],al
    23b3:	65 62 78 00          	bound  edi,QWORD PTR gs:[eax+0x0]
    23b7:	03 17                	add    edx,DWORD PTR [edi]
    23b9:	22 47 01             	and    al,BYTE PTR [edi+0x1]
    23bc:	00 00                	add    BYTE PTR [eax],al
    23be:	14 06                	adc    al,0x6
    23c0:	65 64 78 00          	gs fs js 23c4 <.debug_info+0x2ce>
    23c4:	03 17                	add    edx,DWORD PTR [edi]
    23c6:	27                   	daa    
    23c7:	47                   	inc    edi
    23c8:	01 00                	add    DWORD PTR [eax],eax
    23ca:	00 18                	add    BYTE PTR [eax],bl
    23cc:	06                   	push   es
    23cd:	65 63 78 00          	arpl   WORD PTR gs:[eax+0x0],di
    23d1:	03 17                	add    edx,DWORD PTR [edi]
    23d3:	2c 47                	sub    al,0x47
    23d5:	01 00                	add    DWORD PTR [eax],eax
    23d7:	00 1c 06             	add    BYTE PTR [esi+eax*1],bl
    23da:	65 61                	gs popa 
    23dc:	78 00                	js     23de <.debug_info+0x2e8>
    23de:	03 17                	add    edx,DWORD PTR [edi]
    23e0:	31 47 01             	xor    DWORD PTR [edi+0x1],eax
    23e3:	00 00                	add    BYTE PTR [eax],al
    23e5:	20 06                	and    BYTE PTR [esi],al
    23e7:	69 6e 74 5f 6e 6f 00 	imul   ebp,DWORD PTR [esi+0x74],0x6f6e5f
    23ee:	03 18                	add    ebx,DWORD PTR [eax]
    23f0:	0e                   	push   cs
    23f1:	47                   	inc    edi
    23f2:	01 00                	add    DWORD PTR [eax],eax
    23f4:	00 24 06             	add    BYTE PTR [esi+eax*1],ah
    23f7:	65 72 72             	gs jb  246c <.debug_info+0x376>
    23fa:	5f                   	pop    edi
    23fb:	63 6f 64             	arpl   WORD PTR [edi+0x64],bp
    23fe:	65 00 03             	add    BYTE PTR gs:[ebx],al
    2401:	18 16                	sbb    BYTE PTR [esi],dl
    2403:	47                   	inc    edi
    2404:	01 00                	add    DWORD PTR [eax],eax
    2406:	00 28                	add    BYTE PTR [eax],ch
    2408:	06                   	push   es
    2409:	65 69 70 00 03 19 0e 	imul   esi,DWORD PTR gs:[eax+0x0],0x470e1903
    2410:	47 
    2411:	01 00                	add    DWORD PTR [eax],eax
    2413:	00 2c 06             	add    BYTE PTR [esi+eax*1],ch
    2416:	63 73 00             	arpl   WORD PTR [ebx+0x0],si
    2419:	03 19                	add    ebx,DWORD PTR [ecx]
    241b:	13 47 01             	adc    eax,DWORD PTR [edi+0x1]
    241e:	00 00                	add    BYTE PTR [eax],al
    2420:	30 06                	xor    BYTE PTR [esi],al
    2422:	65 66 6c             	gs data16 ins BYTE PTR es:[edi],dx
    2425:	61                   	popa   
    2426:	67 73 00             	addr16 jae 2429 <.debug_info+0x333>
    2429:	03 19                	add    ebx,DWORD PTR [ecx]
    242b:	17                   	pop    ss
    242c:	47                   	inc    edi
    242d:	01 00                	add    DWORD PTR [eax],eax
    242f:	00 34 06             	add    BYTE PTR [esi+eax*1],dh
    2432:	75 73                	jne    24a7 <.debug_info+0x3b1>
    2434:	65 72 65             	gs jb  249c <.debug_info+0x3a6>
    2437:	73 70                	jae    24a9 <.debug_info+0x3b3>
    2439:	00 03                	add    BYTE PTR [ebx],al
    243b:	19 1f                	sbb    DWORD PTR [edi],ebx
    243d:	47                   	inc    edi
    243e:	01 00                	add    DWORD PTR [eax],eax
    2440:	00 38                	add    BYTE PTR [eax],bh
    2442:	06                   	push   es
    2443:	73 73                	jae    24b8 <.debug_info+0x3c2>
    2445:	00 03                	add    BYTE PTR [ebx],al
    2447:	19 28                	sbb    DWORD PTR [eax],ebp
    2449:	47                   	inc    edi
    244a:	01 00                	add    DWORD PTR [eax],eax
    244c:	00 3c 00             	add    BYTE PTR [eax+eax*1],bh
    244f:	03 72 65             	add    esi,DWORD PTR [edx+0x65]
    2452:	67 69 73 74 65 72 5f 	imul   esi,DWORD PTR [bp+di+0x74],0x745f7265
    2459:	74 
    245a:	00 03                	add    BYTE PTR [ebx],al
    245c:	1a 02                	sbb    al,BYTE PTR [edx]
    245e:	69 02 00 00 03 69    	imul   eax,DWORD PTR [edx],0x69030000
    2464:	73 72                	jae    24d8 <.debug_info+0x3e2>
    2466:	5f                   	pop    edi
    2467:	74 00                	je     2469 <.debug_info+0x373>
    2469:	03 50 10             	add    edx,DWORD PTR [eax+0x10]
    246c:	7a 03                	jp     2471 <.debug_info+0x37b>
    246e:	00 00                	add    BYTE PTR [eax],al
    2470:	04 04                	add    al,0x4
    2472:	80 03 00             	add    BYTE PTR [ebx],0x0
    2475:	00 07                	add    BYTE PTR [edi],al
    2477:	8b 03                	mov    eax,DWORD PTR [ebx]
    2479:	00 00                	add    BYTE PTR [eax],al
    247b:	08 8b 03 00 00 00    	or     BYTE PTR [ebx+0x3],cl
    2481:	04 04                	add    al,0x4
    2483:	59                   	pop    ecx
    2484:	03 00                	add    eax,DWORD PTR [eax]
    2486:	00 09                	add    BYTE PTR [ecx],cl
    2488:	14 02                	adc    al,0x2
    248a:	00 00                	add    BYTE PTR [eax],al
    248c:	a1 03 00 00 0a       	mov    eax,ds:0xa000003
    2491:	58                   	pop    eax
    2492:	01 00                	add    DWORD PTR [eax],eax
    2494:	00 ff                	add    bh,bh
    2496:	00 0b                	add    BYTE PTR [ebx],cl
    2498:	69 64 74 5f 65 6e 74 	imul   esp,DWORD PTR [esp+esi*2+0x5f],0x72746e65
    249f:	72 
    24a0:	69 65 73 00 03 5f 14 	imul   esp,DWORD PTR [ebp+0x73],0x145f0300
    24a7:	91                   	xchg   ecx,eax
    24a8:	03 00                	add    eax,DWORD PTR [eax]
    24aa:	00 0b                	add    BYTE PTR [ebx],cl
    24ac:	69 64 74 5f 70 74 72 	imul   esp,DWORD PTR [esp+esi*2+0x5f],0x727470
    24b3:	00 
    24b4:	03 60 12             	add    esp,DWORD PTR [eax+0x12]
    24b7:	57                   	push   edi
    24b8:	02 00                	add    al,BYTE PTR [eax]
    24ba:	00 09                	add    BYTE PTR [ecx],cl
    24bc:	6c                   	ins    BYTE PTR es:[edi],dx
    24bd:	03 00                	add    eax,DWORD PTR [eax]
    24bf:	00 d5                	add    ch,dl
    24c1:	03 00                	add    eax,DWORD PTR [eax]
    24c3:	00 0a                	add    BYTE PTR [edx],cl
    24c5:	58                   	pop    eax
    24c6:	01 00                	add    DWORD PTR [eax],eax
    24c8:	00 ff                	add    bh,bh
    24ca:	00 0b                	add    BYTE PTR [ebx],cl
    24cc:	69 6e 74 65 72 72 75 	imul   ebp,DWORD PTR [esi+0x74],0x75727265
    24d3:	70 74                	jo     2549 <.debug_info+0x453>
    24d5:	5f                   	pop    edi
    24d6:	68 61 6e 64 6c       	push   0x6c646e61
    24db:	65 72 73             	gs jb  2551 <.debug_info+0x45b>
    24de:	00 03                	add    BYTE PTR [ebx],al
    24e0:	61                   	popa   
    24e1:	0e                   	push   cs
    24e2:	c5 03                	lds    eax,FWORD PTR [ebx]
    24e4:	00 00                	add    BYTE PTR [eax],al
    24e6:	0c a1                	or     al,0xa1
    24e8:	03 00                	add    eax,DWORD PTR [eax]
    24ea:	00 01                	add    BYTE PTR [ecx],al
    24ec:	05 0d 05 03 a0       	add    eax,0xa003050d
    24f1:	84 10                	test   BYTE PTR [eax],dl
    24f3:	00 0c b5 03 00 00 01 	add    BYTE PTR [esi*4+0x1000003],cl
    24fa:	06                   	push   es
    24fb:	0b 05 03 80 84 10    	or     eax,DWORD PTR ds:0x10848003
    2501:	00 0c d5 03 00 00 01 	add    BYTE PTR [edx*8+0x1000003],cl
    2508:	07                   	pop    es
    2509:	07                   	pop    es
    250a:	05 03 80 80 10       	add    eax,0x10808003
    250f:	00 09                	add    BYTE PTR [ecx],cl
    2511:	96                   	xchg   esi,eax
    2512:	01 00                	add    DWORD PTR [eax],eax
    2514:	00 2a                	add    BYTE PTR [edx],ch
    2516:	04 00                	add    al,0x0
    2518:	00 0a                	add    BYTE PTR [edx],cl
    251a:	58                   	pop    eax
    251b:	01 00                	add    DWORD PTR [eax],eax
    251d:	00 1f                	add    BYTE PTR [edi],bl
    251f:	00 0d 65 78 63 65    	add    BYTE PTR ds:0x65637865,cl
    2525:	70 74                	jo     259b <.debug_info+0x4a5>
    2527:	69 6f 6e 5f 6d 65 73 	imul   ebp,DWORD PTR [edi+0x6e],0x73656d5f
    252e:	73 61                	jae    2591 <.debug_info+0x49b>
    2530:	67 65 73 00          	addr16 gs jae 2534 <.debug_info+0x43e>
    2534:	01 09                	add    DWORD PTR [ecx],ecx
    2536:	07                   	pop    es
    2537:	1a 04 00             	sbb    al,BYTE PTR [eax+eax*1]
    253a:	00 05 03 00 40 10    	add    BYTE PTR ds:0x10400003,al
    2540:	00 0e                	add    BYTE PTR [esi],cl
    2542:	66 69 6e 61 6c 5f    	imul   bp,WORD PTR [esi+0x61],0x5f6c
    2548:	69 72 71 5f 68 61 6e 	imul   esi,DWORD PTR [edx+0x71],0x6e61685f
    254f:	64 6c                	fs ins BYTE PTR es:[edi],dx
    2551:	65 72 00             	gs jb  2554 <.debug_info+0x45e>
    2554:	01 a4 06 63 20 10 00 	add    DWORD PTR [esi+eax*1+0x102063],esp
    255b:	4b                   	dec    ebx
    255c:	00 00                	add    BYTE PTR [eax],al
    255e:	00 01                	add    BYTE PTR [ecx],al
    2560:	9c                   	pushf  
    2561:	98                   	cwde   
    2562:	04 00                	add    al,0x0
    2564:	00 0f                	add    BYTE PTR [edi],cl
    2566:	72 65                	jb     25cd <.debug_info+0x4d7>
    2568:	67 00 01             	add    BYTE PTR [bx+di],al
    256b:	a4                   	movs   BYTE PTR es:[edi],BYTE PTR ds:[esi]
    256c:	25 8b 03 00 00       	and    eax,0x38b
    2571:	02 91 00 10 78 20    	add    dl,BYTE PTR [ecx+0x20781000]
    2577:	10 00                	adc    BYTE PTR [eax],al
    2579:	1f                   	pop    ds
    257a:	00 00                	add    BYTE PTR [eax],al
    257c:	00 11                	add    BYTE PTR [ecx],dl
    257e:	0a 00                	or     al,BYTE PTR [eax]
    2580:	00 00                	add    BYTE PTR [eax],al
    2582:	01 a6 0f 6c 03 00    	add    DWORD PTR [esi+0x36c0f],esp
    2588:	00 02                	add    BYTE PTR [edx],al
    258a:	91                   	xchg   ecx,eax
    258b:	6c                   	ins    BYTE PTR es:[edi],dx
    258c:	00 00                	add    BYTE PTR [eax],al
    258e:	0e                   	push   cs
    258f:	66 69 6e 61 6c 5f    	imul   bp,WORD PTR [esi+0x61],0x5f6c
    2595:	65 78 63             	gs js  25fb <.debug_info+0x505>
    2598:	65 70 74             	gs jo  260f <.debug_info+0x519>
    259b:	69 6f 6e 5f 68 61 6e 	imul   ebp,DWORD PTR [edi+0x6e],0x6e61685f
    25a2:	64 6c                	fs ins BYTE PTR es:[edi],dx
    25a4:	65 72 00             	gs jb  25a7 <.debug_info+0x4b1>
    25a7:	01 99 06 02 20 10    	add    DWORD PTR [ecx+0x10200206],ebx
    25ad:	00 61 00             	add    BYTE PTR [ecx+0x0],ah
    25b0:	00 00                	add    BYTE PTR [eax],al
    25b2:	01 9c eb 04 00 00 0f 	add    DWORD PTR [ebx+ebp*8+0xf000004],ebx
    25b9:	72 65                	jb     2620 <.debug_info+0x52a>
    25bb:	67 00 01             	add    BYTE PTR [bx+di],al
    25be:	99                   	cdq    
    25bf:	29 59 03             	sub    DWORD PTR [ecx+0x3],ebx
    25c2:	00 00                	add    BYTE PTR [eax],al
    25c4:	02 91 00 10 42 20    	add    dl,BYTE PTR [ecx+0x20421000]
    25ca:	10 00                	adc    BYTE PTR [eax],al
    25cc:	1c 00                	sbb    al,0x0
    25ce:	00 00                	add    BYTE PTR [eax],al
    25d0:	11 0a                	adc    DWORD PTR [edx],ecx
    25d2:	00 00                	add    BYTE PTR [eax],al
    25d4:	00 01                	add    BYTE PTR [ecx],al
    25d6:	9f                   	lahf   
    25d7:	10 6c 03 00          	adc    BYTE PTR [ebx+eax*1+0x0],ch
    25db:	00 02                	add    BYTE PTR [edx],al
    25dd:	91                   	xchg   ecx,eax
    25de:	6c                   	ins    BYTE PTR es:[edi],dx
    25df:	00 00                	add    BYTE PTR [eax],al
    25e1:	12 69 64             	adc    ch,BYTE PTR [ecx+0x64]
    25e4:	74 5f                	je     2645 <.debug_info+0x54f>
    25e6:	69 6e 69 74 00 01 5b 	imul   ebp,DWORD PTR [esi+0x69],0x5b010074
    25ed:	06                   	push   es
    25ee:	a9 18 10 00 59       	test   eax,0x59001018
    25f3:	07                   	pop    es
    25f4:	00 00                	add    BYTE PTR [eax],al
    25f6:	01 9c 0e 69 72 71 5f 	add    DWORD PTR [esi+ecx*1+0x5f717269],ebx
    25fd:	61                   	popa   
    25fe:	63 6b 00             	arpl   WORD PTR [ebx+0x0],bp
    2601:	01 55 06             	add    DWORD PTR [ebp+0x6],edx
    2604:	6a 18                	push   0x18
    2606:	10 00                	adc    BYTE PTR [eax],al
    2608:	3f                   	aas    
    2609:	00 00                	add    BYTE PTR [eax],al
    260b:	00 01                	add    BYTE PTR [ecx],al
    260d:	9c                   	pushf  
    260e:	2c 05                	sub    al,0x5
    2610:	00 00                	add    BYTE PTR [eax],al
    2612:	0f 69 72 71          	punpckhwd mm6,QWORD PTR [edx+0x71]
    2616:	00 01                	add    BYTE PTR [ecx],al
    2618:	55                   	push   ebp
    2619:	16                   	push   ss
    261a:	ff 00                	inc    DWORD PTR [eax]
    261c:	00 00                	add    BYTE PTR [eax],al
    261e:	02 91 6c 00 12 70    	add    dl,BYTE PTR [ecx+0x7012006c]
    2624:	69 63 5f 69 6e 69 74 	imul   esp,DWORD PTR [ebx+0x5f],0x74696e69
    262b:	00 01                	add    BYTE PTR [ecx],al
    262d:	3f                   	aas    
    262e:	06                   	push   es
    262f:	9a 17 10 00 d0 00 00 	call   0x0:0xd0001017
    2636:	00 01                	add    BYTE PTR [ecx],al
    2638:	9c                   	pushf  
    2639:	13 69 64             	adc    ebp,DWORD PTR [ecx+0x64]
    263c:	74 5f                	je     269d <.debug_info+0x5a7>
    263e:	73 65                	jae    26a5 <.debug_info+0x5af>
    2640:	74 5f                	je     26a1 <.debug_info+0x5ab>
    2642:	65 6e                	outs   dx,BYTE PTR gs:[esi]
    2644:	74 72                	je     26b8 <.debug_info+0x5c2>
    2646:	79 00                	jns    2648 <.debug_info+0x552>
    2648:	01 32                	add    DWORD PTR [edx],esi
    264a:	06                   	push   es
    264b:	2d 17 10 00 6d       	sub    eax,0x6d001017
    2650:	00 00                	add    BYTE PTR [eax],al
    2652:	00 01                	add    BYTE PTR [ecx],al
    2654:	9c                   	pushf  
    2655:	b5 05                	mov    ch,0x5
    2657:	00 00                	add    BYTE PTR [eax],al
    2659:	0f 69 6e 64          	punpckhwd mm5,QWORD PTR [esi+0x64]
    265d:	65 78 00             	gs js  2660 <.debug_info+0x56a>
    2660:	01 32                	add    DWORD PTR [edx],esi
    2662:	18 e7                	sbb    bh,ah
    2664:	00 00                	add    BYTE PTR [eax],al
    2666:	00 02                	add    BYTE PTR [edx],al
    2668:	91                   	xchg   ecx,eax
    2669:	00 0f                	add    BYTE PTR [edi],cl
    266b:	62 61 73             	bound  esp,QWORD PTR [ecx+0x73]
    266e:	65 00 01             	add    BYTE PTR gs:[ecx],al
    2671:	32 28                	xor    ch,BYTE PTR [eax]
    2673:	47                   	inc    edi
    2674:	01 00                	add    DWORD PTR [eax],eax
    2676:	00 02                	add    BYTE PTR [edx],al
    2678:	91                   	xchg   ecx,eax
    2679:	04 0f                	add    al,0xf
    267b:	73 65                	jae    26e2 <.debug_info+0x5ec>
    267d:	6c                   	ins    BYTE PTR es:[edi],dx
    267e:	00 01                	add    BYTE PTR [ecx],al
    2680:	32 37                	xor    dh,BYTE PTR [edi]
    2682:	20 01                	and    BYTE PTR [ecx],al
    2684:	00 00                	add    BYTE PTR [eax],al
    2686:	02 91 68 0f 66 6c    	add    dl,BYTE PTR [ecx+0x6c660f68]
    268c:	61                   	popa   
    268d:	67 73 00             	addr16 jae 2690 <.debug_info+0x59a>
    2690:	01 32                	add    DWORD PTR [edx],esi
    2692:	44                   	inc    esp
    2693:	ff 00                	inc    DWORD PTR [eax]
    2695:	00 00                	add    BYTE PTR [eax],al
    2697:	02 91 64 14 74 68    	add    dl,BYTE PTR [ecx+0x68741464]
    269d:	69 73 00 01 33 13 b5 	imul   esi,DWORD PTR [ebx+0x0],0xb5133301
    26a4:	05 00 00 02 91       	add    eax,0x91020000
    26a9:	78 00                	js     26ab <.debug_info+0x5b5>
    26ab:	04 04                	add    al,0x4
    26ad:	14 02                	adc    al,0x2
    26af:	00 00                	add    BYTE PTR [eax],al
    26b1:	15 72 65 67 69       	adc    eax,0x69676572
    26b6:	73 74                	jae    272c <.debug_info+0x32>
    26b8:	65 72 5f             	gs jb  271a <.debug_info+0x20>
    26bb:	69 6e 74 65 72 72 75 	imul   ebp,DWORD PTR [esi+0x74],0x75727265
    26c2:	70 74                	jo     2738 <.debug_info+0x3e>
    26c4:	5f                   	pop    edi
    26c5:	68 61 6e 64 6c       	push   0x6c646e61
    26ca:	65 72 00             	gs jb  26cd <.debug_info+0x5d7>
    26cd:	01 2c 06             	add    DWORD PTR [esi+eax*1],ebp
    26d0:	f8                   	clc    
    26d1:	16                   	push   ss
    26d2:	10 00                	adc    BYTE PTR [eax],al
    26d4:	35 00 00 00 01       	xor    eax,0x1000000
    26d9:	9c                   	pushf  
    26da:	0f 6e 75 6d          	movd   mm6,DWORD PTR [ebp+0x6d]
    26de:	00 01                	add    BYTE PTR [ecx],al
    26e0:	2c 25                	sub    al,0x25
    26e2:	e7 00                	out    0x0,eax
    26e4:	00 00                	add    BYTE PTR [eax],al
    26e6:	02 91 00 16 0a 00    	add    dl,BYTE PTR [ecx+0xa1600]
    26ec:	00 00                	add    BYTE PTR [eax],al
    26ee:	01 2c 30             	add    DWORD PTR [eax+esi*1],ebp
    26f1:	6c                   	ins    BYTE PTR es:[edi],dx
    26f2:	03 00                	add    eax,DWORD PTR [eax]
    26f4:	00 02                	add    BYTE PTR [edx],al
    26f6:	91                   	xchg   ecx,eax
    26f7:	04 00                	add    al,0x0
	...

000026fa <.debug_info>:
    26fa:	fc                   	cld    
    26fb:	04 00                	add    al,0x0
    26fd:	00 04 00             	add    BYTE PTR [eax+eax*1],al
    2700:	31 08                	xor    DWORD PTR [eax],ecx
    2702:	00 00                	add    BYTE PTR [eax],al
    2704:	04 01                	add    al,0x1
    2706:	47                   	inc    edi
    2707:	4e                   	dec    esi
    2708:	55                   	push   ebp
    2709:	20 43 39             	and    BYTE PTR [ebx+0x39],al
    270c:	39 20                	cmp    DWORD PTR [eax],esp
    270e:	39 2e                	cmp    DWORD PTR [esi],ebp
    2710:	33 2d 77 69 6e 33    	xor    ebp,DWORD PTR ds:0x336e6977
    2716:	32 20                	xor    ah,BYTE PTR [eax]
    2718:	32 30                	xor    dh,BYTE PTR [eax]
    271a:	32 30                	xor    dh,BYTE PTR [eax]
    271c:	30 33                	xor    BYTE PTR [ebx],dh
    271e:	32 30                	xor    dh,BYTE PTR [eax]
    2720:	20 2d 6d 33 32 20    	and    BYTE PTR ds:0x2032336d,ch
    2726:	2d 6d 74 75 6e       	sub    eax,0x6e75746d
    272b:	65 3d 67 65 6e 65    	gs cmp eax,0x656e6567
    2731:	72 69                	jb     279c <.debug_info+0xa2>
    2733:	63 20                	arpl   WORD PTR [eax],sp
    2735:	2d 6d 61 72 63       	sub    eax,0x6372616d
    273a:	68 3d 78 38 36       	push   0x3638783d
    273f:	2d 36 34 20 2d       	sub    eax,0x2d203436
    2744:	67 20 2d             	and    BYTE PTR [di],ch
    2747:	67 67 64 62 20       	addr16 bound esp,QWORD PTR fs:[bx+si]
    274c:	2d 73 74 64 3d       	sub    eax,0x3d647473
    2751:	67 6e                	outs   dx,BYTE PTR ds:[si]
    2753:	75 39                	jne    278e <.debug_info+0x94>
    2755:	39 20                	cmp    DWORD PTR [eax],esp
    2757:	2d 66 6f 6d 69       	sub    eax,0x696d6f66
    275c:	74 2d                	je     278b <.debug_info+0x91>
    275e:	66 72 61             	data16 jb 27c2 <.debug_info+0xc8>
    2761:	6d                   	ins    DWORD PTR es:[edi],dx
    2762:	65 2d 70 6f 69 6e    	gs sub eax,0x6e696f70
    2768:	74 65                	je     27cf <.debug_info+0xd5>
    276a:	72 20                	jb     278c <.debug_info+0x92>
    276c:	2d 66 69 6e 6c       	sub    eax,0x6c6e6966
    2771:	69 6e 65 2d 66 75 6e 	imul   ebp,DWORD PTR [esi+0x65],0x6e75662d
    2778:	63 74 69 6f          	arpl   WORD PTR [ecx+ebp*2+0x6f],si
    277c:	6e                   	outs   dx,BYTE PTR ds:[esi]
    277d:	73 20                	jae    279f <.debug_info+0xa5>
    277f:	2d 66 66 72 65       	sub    eax,0x65726666
    2784:	65 73 74             	gs jae 27fb <.debug_info+0x101>
    2787:	61                   	popa   
    2788:	6e                   	outs   dx,BYTE PTR ds:[esi]
    2789:	64 69 6e 67 00 0c 73 	imul   ebp,DWORD PTR fs:[esi+0x67],0x72730c00
    2790:	72 
    2791:	63 2f                	arpl   WORD PTR [edi],bp
    2793:	6b 65 72 6e          	imul   esp,DWORD PTR [ebp+0x72],0x6e
    2797:	65 6c                	gs ins BYTE PTR es:[edi],dx
    2799:	2f                   	das    
    279a:	74 73                	je     280f <.debug_info+0x115>
    279c:	73 2e                	jae    27cc <.debug_info+0xd2>
    279e:	63 00                	arpl   WORD PTR [eax],ax
    27a0:	2f                   	das    
    27a1:	6d                   	ins    DWORD PTR es:[edi],dx
    27a2:	6e                   	outs   dx,BYTE PTR ds:[esi]
    27a3:	74 2f                	je     27d4 <.debug_info+0xda>
    27a5:	63 2f                	arpl   WORD PTR [edi],bp
    27a7:	70 72                	jo     281b <.debug_info+0x121>
    27a9:	6f                   	outs   dx,DWORD PTR ds:[esi]
    27aa:	6a 65                	push   0x65
    27ac:	63 74 73 2f          	arpl   WORD PTR [ebx+esi*2+0x2f],si
    27b0:	6c                   	ins    BYTE PTR es:[edi],dx
    27b1:	69 6e 75 78 2f 6f 73 	imul   ebp,DWORD PTR [esi+0x75],0x736f2f78
    27b8:	00 b0 20 10 00 c4    	add    BYTE PTR [eax-0x3bffefe0],dh
    27be:	00 00                	add    BYTE PTR [eax],al
    27c0:	00 e8                	add    al,ch
    27c2:	0e                   	push   cs
    27c3:	00 00                	add    BYTE PTR [eax],al
    27c5:	02 01                	add    al,BYTE PTR [ecx]
    27c7:	06                   	push   es
    27c8:	73 69                	jae    2833 <.debug_info+0x139>
    27ca:	67 6e                	outs   dx,BYTE PTR ds:[si]
    27cc:	65 64 20 63 68       	gs and BYTE PTR fs:[ebx+0x68],ah
    27d1:	61                   	popa   
    27d2:	72 00                	jb     27d4 <.debug_info+0xda>
    27d4:	02 02                	add    al,BYTE PTR [edx]
    27d6:	05 73 68 6f 72       	add    eax,0x726f6873
    27db:	74 20                	je     27fd <.debug_info+0x103>
    27dd:	69 6e 74 00 02 04 05 	imul   ebp,DWORD PTR [esi+0x74],0x5040200
    27e4:	69 6e 74 00 02 08 05 	imul   ebp,DWORD PTR [esi+0x74],0x5080200
    27eb:	6c                   	ins    BYTE PTR es:[edi],dx
    27ec:	6f                   	outs   dx,DWORD PTR ds:[esi]
    27ed:	6e                   	outs   dx,BYTE PTR ds:[esi]
    27ee:	67 20 6c 6f          	and    BYTE PTR [si+0x6f],ch
    27f2:	6e                   	outs   dx,BYTE PTR ds:[esi]
    27f3:	67 20 69 6e          	and    BYTE PTR [bx+di+0x6e],ch
    27f7:	74 00                	je     27f9 <.debug_info+0xff>
    27f9:	03 75 69             	add    esi,DWORD PTR [ebp+0x69]
    27fc:	6e                   	outs   dx,BYTE PTR ds:[esi]
    27fd:	74 38                	je     2837 <.debug_info+0x13d>
    27ff:	5f                   	pop    edi
    2800:	74 00                	je     2802 <.debug_info+0x108>
    2802:	02 2e                	add    ch,BYTE PTR [esi]
    2804:	18 0f                	sbb    BYTE PTR [edi],cl
    2806:	01 00                	add    DWORD PTR [eax],eax
    2808:	00 02                	add    BYTE PTR [edx],al
    280a:	01 08                	add    DWORD PTR [eax],ecx
    280c:	75 6e                	jne    287c <.debug_info+0x182>
    280e:	73 69                	jae    2879 <.debug_info+0x17f>
    2810:	67 6e                	outs   dx,BYTE PTR ds:[si]
    2812:	65 64 20 63 68       	gs and BYTE PTR fs:[ebx+0x68],ah
    2817:	61                   	popa   
    2818:	72 00                	jb     281a <.debug_info+0x120>
    281a:	03 75 69             	add    esi,DWORD PTR [ebp+0x69]
    281d:	6e                   	outs   dx,BYTE PTR ds:[esi]
    281e:	74 31                	je     2851 <.debug_info+0x157>
    2820:	36 5f                	ss pop edi
    2822:	74 00                	je     2824 <.debug_info+0x12a>
    2824:	02 31                	add    dh,BYTE PTR [ecx]
    2826:	19 31                	sbb    DWORD PTR [ecx],esi
    2828:	01 00                	add    DWORD PTR [eax],eax
    282a:	00 02                	add    BYTE PTR [edx],al
    282c:	02 07                	add    al,BYTE PTR [edi]
    282e:	73 68                	jae    2898 <.debug_info+0x19e>
    2830:	6f                   	outs   dx,DWORD PTR ds:[esi]
    2831:	72 74                	jb     28a7 <.debug_info+0x1ad>
    2833:	20 75 6e             	and    BYTE PTR [ebp+0x6e],dh
    2836:	73 69                	jae    28a1 <.debug_info+0x1a7>
    2838:	67 6e                	outs   dx,BYTE PTR ds:[si]
    283a:	65 64 20 69 6e       	gs and BYTE PTR fs:[ecx+0x6e],ch
    283f:	74 00                	je     2841 <.debug_info+0x147>
    2841:	03 75 69             	add    esi,DWORD PTR [ebp+0x69]
    2844:	6e                   	outs   dx,BYTE PTR ds:[esi]
    2845:	74 33                	je     287a <.debug_info+0x180>
    2847:	32 5f 74             	xor    bl,BYTE PTR [edi+0x74]
    284a:	00 02                	add    BYTE PTR [edx],al
    284c:	34 19                	xor    al,0x19
    284e:	58                   	pop    eax
    284f:	01 00                	add    DWORD PTR [eax],eax
    2851:	00 02                	add    BYTE PTR [edx],al
    2853:	04 07                	add    al,0x7
    2855:	75 6e                	jne    28c5 <.debug_info+0x1cb>
    2857:	73 69                	jae    28c2 <.debug_info+0x1c8>
    2859:	67 6e                	outs   dx,BYTE PTR ds:[si]
    285b:	65 64 20 69 6e       	gs and BYTE PTR fs:[ecx+0x6e],ch
    2860:	74 00                	je     2862 <.debug_info+0x168>
    2862:	02 08                	add    cl,BYTE PTR [eax]
    2864:	07                   	pop    es
    2865:	6c                   	ins    BYTE PTR es:[edi],dx
    2866:	6f                   	outs   dx,DWORD PTR ds:[esi]
    2867:	6e                   	outs   dx,BYTE PTR ds:[esi]
    2868:	67 20 6c 6f          	and    BYTE PTR [si+0x6f],ch
    286c:	6e                   	outs   dx,BYTE PTR ds:[esi]
    286d:	67 20 75 6e          	and    BYTE PTR [di+0x6e],dh
    2871:	73 69                	jae    28dc <.debug_info+0x1e2>
    2873:	67 6e                	outs   dx,BYTE PTR ds:[si]
    2875:	65 64 20 69 6e       	gs and BYTE PTR fs:[ecx+0x6e],ch
    287a:	74 00                	je     287c <.debug_info+0x182>
    287c:	02 01                	add    al,BYTE PTR [ecx]
    287e:	06                   	push   es
    287f:	63 68 61             	arpl   WORD PTR [eax+0x61],bp
    2882:	72 00                	jb     2884 <.debug_info+0x18a>
    2884:	02 04 05 6c 6f 6e 67 	add    al,BYTE PTR [eax*1+0x676e6f6c]
    288b:	20 69 6e             	and    BYTE PTR [ecx+0x6e],ch
    288e:	74 00                	je     2890 <.debug_info+0x196>
    2890:	02 04 07             	add    al,BYTE PTR [edi+eax*1]
    2893:	6c                   	ins    BYTE PTR es:[edi],dx
    2894:	6f                   	outs   dx,DWORD PTR ds:[esi]
    2895:	6e                   	outs   dx,BYTE PTR ds:[esi]
    2896:	67 20 75 6e          	and    BYTE PTR [di+0x6e],dh
    289a:	73 69                	jae    2905 <.debug_info+0x20b>
    289c:	67 6e                	outs   dx,BYTE PTR ds:[si]
    289e:	65 64 20 69 6e       	gs and BYTE PTR fs:[ecx+0x6e],ch
    28a3:	74 00                	je     28a5 <.debug_info+0x1ab>
    28a5:	04 67                	add    al,0x67
    28a7:	64 74 5f             	fs je  2909 <.debug_info+0x20f>
    28aa:	65 6e                	outs   dx,BYTE PTR gs:[esi]
    28ac:	74 72                	je     2920 <.debug_info+0x226>
    28ae:	79 00                	jns    28b0 <.debug_info+0x1b6>
    28b0:	08 03                	or     BYTE PTR [ebx],al
    28b2:	07                   	pop    es
    28b3:	10 31                	adc    BYTE PTR [ecx],dh
    28b5:	02 00                	add    al,BYTE PTR [eax]
    28b7:	00 05 6c 69 6d 69    	add    BYTE PTR ds:0x696d696c,al
    28bd:	74 5f                	je     291e <.debug_info+0x224>
    28bf:	6c                   	ins    BYTE PTR es:[edi],dx
    28c0:	6f                   	outs   dx,DWORD PTR ds:[esi]
    28c1:	77 00                	ja     28c3 <.debug_info+0x1c9>
    28c3:	03 09                	add    ecx,DWORD PTR [ecx]
    28c5:	0e                   	push   cs
    28c6:	20 01                	and    BYTE PTR [ecx],al
    28c8:	00 00                	add    BYTE PTR [eax],al
    28ca:	00 05 62 61 73 65    	add    BYTE PTR ds:0x65736162,al
    28d0:	5f                   	pop    edi
    28d1:	6c                   	ins    BYTE PTR es:[edi],dx
    28d2:	6f                   	outs   dx,DWORD PTR ds:[esi]
    28d3:	77 00                	ja     28d5 <.debug_info+0x1db>
    28d5:	03 0a                	add    ecx,DWORD PTR [edx]
    28d7:	0e                   	push   cs
    28d8:	20 01                	and    BYTE PTR [ecx],al
    28da:	00 00                	add    BYTE PTR [eax],al
    28dc:	02 05 62 61 73 65    	add    al,BYTE PTR ds:0x65736162
    28e2:	5f                   	pop    edi
    28e3:	6d                   	ins    DWORD PTR es:[edi],dx
    28e4:	69 64 64 6c 65 00 03 	imul   esp,DWORD PTR [esp+eiz*2+0x6c],0xb030065
    28eb:	0b 
    28ec:	0e                   	push   cs
    28ed:	ff 00                	inc    DWORD PTR [eax]
    28ef:	00 00                	add    BYTE PTR [eax],al
    28f1:	04 05                	add    al,0x5
    28f3:	61                   	popa   
    28f4:	63 63 65             	arpl   WORD PTR [ebx+0x65],sp
    28f7:	73 73                	jae    296c <.debug_info+0x272>
    28f9:	00 03                	add    BYTE PTR [ebx],al
    28fb:	0c 0e                	or     al,0xe
    28fd:	ff 00                	inc    DWORD PTR [eax]
    28ff:	00 00                	add    BYTE PTR [eax],al
    2901:	05 05 67 72 61       	add    eax,0x61726705
    2906:	6e                   	outs   dx,BYTE PTR ds:[esi]
    2907:	75 6c                	jne    2975 <.debug_info+0x27b>
    2909:	61                   	popa   
    290a:	72 69                	jb     2975 <.debug_info+0x27b>
    290c:	74 79                	je     2987 <.debug_info+0x28d>
    290e:	00 03                	add    BYTE PTR [ebx],al
    2910:	0d 0e ff 00 00       	or     eax,0xff0e
    2915:	00 06                	add    BYTE PTR [esi],al
    2917:	05 62 61 73 65       	add    eax,0x65736162
    291c:	5f                   	pop    edi
    291d:	68 69 67 68 00       	push   0x686769
    2922:	03 0e                	add    ecx,DWORD PTR [esi]
    2924:	0e                   	push   cs
    2925:	ff 00                	inc    DWORD PTR [eax]
    2927:	00 00                	add    BYTE PTR [eax],al
    2929:	07                   	pop    es
    292a:	00 03                	add    BYTE PTR [ebx],al
    292c:	67 64 74 5f          	addr16 fs je 298f <.debug_info+0x295>
    2930:	65 6e                	outs   dx,BYTE PTR gs:[esi]
    2932:	74 72                	je     29a6 <.debug_info+0x2ac>
    2934:	79 5f                	jns    2995 <.debug_info+0x29b>
    2936:	74 00                	je     2938 <.debug_info+0x23e>
    2938:	03 0f                	add    ecx,DWORD PTR [edi]
    293a:	1b ab 01 00 00 04    	sbb    ebp,DWORD PTR [ebx+0x4000001]
    2940:	67 64 74 5f          	addr16 fs je 29a3 <.debug_info+0x2a9>
    2944:	70 74                	jo     29ba <.debug_info+0x2c0>
    2946:	72 00                	jb     2948 <.debug_info+0x24e>
    2948:	06                   	push   es
    2949:	03 11                	add    edx,DWORD PTR [ecx]
    294b:	10 74 02 00          	adc    BYTE PTR [edx+eax*1+0x0],dh
    294f:	00 05 6c 69 6d 69    	add    BYTE PTR ds:0x696d696c,al
    2955:	74 00                	je     2957 <.debug_info+0x25d>
    2957:	03 13                	add    edx,DWORD PTR [ebx]
    2959:	0e                   	push   cs
    295a:	20 01                	and    BYTE PTR [ecx],al
    295c:	00 00                	add    BYTE PTR [eax],al
    295e:	00 05 62 61 73 65    	add    BYTE PTR ds:0x65736162,al
    2964:	00 03                	add    BYTE PTR [ebx],al
    2966:	14 0e                	adc    al,0xe
    2968:	47                   	inc    edi
    2969:	01 00                	add    DWORD PTR [eax],eax
    296b:	00 02                	add    BYTE PTR [edx],al
    296d:	00 03                	add    BYTE PTR [ebx],al
    296f:	67 64 74 5f          	addr16 fs je 29d2 <.debug_info+0x2d8>
    2973:	70 74                	jo     29e9 <.debug_info+0x2ef>
    2975:	72 5f                	jb     29d6 <.debug_info+0x2dc>
    2977:	74 00                	je     2979 <.debug_info+0x27f>
    2979:	03 15 1b 45 02 00    	add    edx,DWORD PTR ds:0x2451b
    297f:	00 06                	add    BYTE PTR [esi],al
    2981:	31 02                	xor    DWORD PTR [edx],eax
    2983:	00 00                	add    BYTE PTR [eax],al
    2985:	96                   	xchg   esi,eax
    2986:	02 00                	add    al,BYTE PTR [eax]
    2988:	00 07                	add    BYTE PTR [edi],al
    298a:	58                   	pop    eax
    298b:	01 00                	add    DWORD PTR [eax],eax
    298d:	00 07                	add    BYTE PTR [edi],al
    298f:	00 08                	add    BYTE PTR [eax],cl
    2991:	67 64 74 5f          	addr16 fs je 29f4 <.debug_info+0x2fa>
    2995:	65 6e                	outs   dx,BYTE PTR gs:[esi]
    2997:	74 72                	je     2a0b <.debug_info+0x311>
    2999:	69 65 73 00 03 19 14 	imul   esp,DWORD PTR [ebp+0x73],0x14190300
    29a0:	86 02                	xchg   BYTE PTR [edx],al
    29a2:	00 00                	add    BYTE PTR [eax],al
    29a4:	08 67 64             	or     BYTE PTR [edi+0x64],ah
    29a7:	74 5f                	je     2a08 <.debug_info+0x30e>
    29a9:	70 74                	jo     2a1f <.debug_info+0x325>
    29ab:	72 00                	jb     29ad <.debug_info+0x2b3>
    29ad:	03 1a                	add    ebx,DWORD PTR [edx]
    29af:	14 74                	adc    al,0x74
    29b1:	02 00                	add    al,BYTE PTR [eax]
    29b3:	00 04 74             	add    BYTE PTR [esp+esi*2],al
    29b6:	73 73                	jae    2a2b <.debug_info+0x331>
    29b8:	5f                   	pop    edi
    29b9:	65 6e                	outs   dx,BYTE PTR gs:[esi]
    29bb:	74 72                	je     2a2f <.debug_info+0x335>
    29bd:	79 00                	jns    29bf <.debug_info+0x2c5>
    29bf:	68 04 08 10 34       	push   0x34100804
    29c4:	04 00                	add    al,0x0
    29c6:	00 05 70 72 65 76    	add    BYTE PTR ds:0x76657270,al
    29cc:	54                   	push   esp
    29cd:	73 73                	jae    2a42 <.debug_info+0x348>
    29cf:	00 04 09             	add    BYTE PTR [ecx+ecx*1],al
    29d2:	0e                   	push   cs
    29d3:	47                   	inc    edi
    29d4:	01 00                	add    DWORD PTR [eax],eax
    29d6:	00 00                	add    BYTE PTR [eax],al
    29d8:	05 65 73 70 30       	add    eax,0x30707365
    29dd:	00 04 0a             	add    BYTE PTR [edx+ecx*1],al
    29e0:	0e                   	push   cs
    29e1:	47                   	inc    edi
    29e2:	01 00                	add    DWORD PTR [eax],eax
    29e4:	00 04 05 73 73 30 00 	add    BYTE PTR [eax*1+0x307373],al
    29eb:	04 0b                	add    al,0xb
    29ed:	0e                   	push   cs
    29ee:	47                   	inc    edi
    29ef:	01 00                	add    DWORD PTR [eax],eax
    29f1:	00 08                	add    BYTE PTR [eax],cl
    29f3:	05 65 73 70 31       	add    eax,0x31707365
    29f8:	00 04 0c             	add    BYTE PTR [esp+ecx*1],al
    29fb:	0e                   	push   cs
    29fc:	47                   	inc    edi
    29fd:	01 00                	add    DWORD PTR [eax],eax
    29ff:	00 0c 05 73 73 31 00 	add    BYTE PTR [eax*1+0x317373],cl
    2a06:	04 0d                	add    al,0xd
    2a08:	0e                   	push   cs
    2a09:	47                   	inc    edi
    2a0a:	01 00                	add    DWORD PTR [eax],eax
    2a0c:	00 10                	add    BYTE PTR [eax],dl
    2a0e:	05 65 73 70 32       	add    eax,0x32707365
    2a13:	00 04 0e             	add    BYTE PTR [esi+ecx*1],al
    2a16:	0e                   	push   cs
    2a17:	47                   	inc    edi
    2a18:	01 00                	add    DWORD PTR [eax],eax
    2a1a:	00 14 05 73 73 32 00 	add    BYTE PTR [eax*1+0x327373],dl
    2a21:	04 0f                	add    al,0xf
    2a23:	0e                   	push   cs
    2a24:	47                   	inc    edi
    2a25:	01 00                	add    DWORD PTR [eax],eax
    2a27:	00 18                	add    BYTE PTR [eax],bl
    2a29:	05 63 72 33 00       	add    eax,0x337263
    2a2e:	04 10                	add    al,0x10
    2a30:	0e                   	push   cs
    2a31:	47                   	inc    edi
    2a32:	01 00                	add    DWORD PTR [eax],eax
    2a34:	00 1c 05 65 69 70 00 	add    BYTE PTR [eax*1+0x706965],bl
    2a3b:	04 11                	add    al,0x11
    2a3d:	0e                   	push   cs
    2a3e:	47                   	inc    edi
    2a3f:	01 00                	add    DWORD PTR [eax],eax
    2a41:	00 20                	add    BYTE PTR [eax],ah
    2a43:	05 65 66 6c 61       	add    eax,0x616c6665
    2a48:	67 73 00             	addr16 jae 2a4b <.debug_info+0x351>
    2a4b:	04 12                	add    al,0x12
    2a4d:	0e                   	push   cs
    2a4e:	47                   	inc    edi
    2a4f:	01 00                	add    DWORD PTR [eax],eax
    2a51:	00 24 05 65 61 78 00 	add    BYTE PTR [eax*1+0x786165],ah
    2a58:	04 13                	add    al,0x13
    2a5a:	0e                   	push   cs
    2a5b:	47                   	inc    edi
    2a5c:	01 00                	add    DWORD PTR [eax],eax
    2a5e:	00 28                	add    BYTE PTR [eax],ch
    2a60:	05 65 63 78 00       	add    eax,0x786365
    2a65:	04 14                	add    al,0x14
    2a67:	0e                   	push   cs
    2a68:	47                   	inc    edi
    2a69:	01 00                	add    DWORD PTR [eax],eax
    2a6b:	00 2c 05 65 64 78 00 	add    BYTE PTR [eax*1+0x786465],ch
    2a72:	04 15                	add    al,0x15
    2a74:	0e                   	push   cs
    2a75:	47                   	inc    edi
    2a76:	01 00                	add    DWORD PTR [eax],eax
    2a78:	00 30                	add    BYTE PTR [eax],dh
    2a7a:	05 65 62 78 00       	add    eax,0x786265
    2a7f:	04 16                	add    al,0x16
    2a81:	0e                   	push   cs
    2a82:	47                   	inc    edi
    2a83:	01 00                	add    DWORD PTR [eax],eax
    2a85:	00 34 05 65 73 70 00 	add    BYTE PTR [eax*1+0x707365],dh
    2a8c:	04 17                	add    al,0x17
    2a8e:	0e                   	push   cs
    2a8f:	47                   	inc    edi
    2a90:	01 00                	add    DWORD PTR [eax],eax
    2a92:	00 38                	add    BYTE PTR [eax],bh
    2a94:	05 65 62 70 00       	add    eax,0x706265
    2a99:	04 18                	add    al,0x18
    2a9b:	0e                   	push   cs
    2a9c:	47                   	inc    edi
    2a9d:	01 00                	add    DWORD PTR [eax],eax
    2a9f:	00 3c 05 65 73 69 00 	add    BYTE PTR [eax*1+0x697365],bh
    2aa6:	04 19                	add    al,0x19
    2aa8:	0e                   	push   cs
    2aa9:	47                   	inc    edi
    2aaa:	01 00                	add    DWORD PTR [eax],eax
    2aac:	00 40 05             	add    BYTE PTR [eax+0x5],al
    2aaf:	65 64 69 00 04 1a 0e 	gs imul eax,DWORD PTR fs:[eax],0x470e1a04
    2ab6:	47 
    2ab7:	01 00                	add    DWORD PTR [eax],eax
    2ab9:	00 44 05 65          	add    BYTE PTR [ebp+eax*1+0x65],al
    2abd:	73 00                	jae    2abf <.debug_info+0x3c5>
    2abf:	04 1b                	add    al,0x1b
    2ac1:	0e                   	push   cs
    2ac2:	47                   	inc    edi
    2ac3:	01 00                	add    DWORD PTR [eax],eax
    2ac5:	00 48 05             	add    BYTE PTR [eax+0x5],cl
    2ac8:	63 73 00             	arpl   WORD PTR [ebx+0x0],si
    2acb:	04 1c                	add    al,0x1c
    2acd:	0e                   	push   cs
    2ace:	47                   	inc    edi
    2acf:	01 00                	add    DWORD PTR [eax],eax
    2ad1:	00 4c 05 73          	add    BYTE PTR [ebp+eax*1+0x73],cl
    2ad5:	73 00                	jae    2ad7 <.debug_info+0x3dd>
    2ad7:	04 1d                	add    al,0x1d
    2ad9:	0e                   	push   cs
    2ada:	47                   	inc    edi
    2adb:	01 00                	add    DWORD PTR [eax],eax
    2add:	00 50 05             	add    BYTE PTR [eax+0x5],dl
    2ae0:	64 73 00             	fs jae 2ae3 <.debug_info+0x3e9>
    2ae3:	04 1e                	add    al,0x1e
    2ae5:	0e                   	push   cs
    2ae6:	47                   	inc    edi
    2ae7:	01 00                	add    DWORD PTR [eax],eax
    2ae9:	00 54 05 66          	add    BYTE PTR [ebp+eax*1+0x66],dl
    2aed:	73 00                	jae    2aef <.debug_info+0x3f5>
    2aef:	04 1f                	add    al,0x1f
    2af1:	0e                   	push   cs
    2af2:	47                   	inc    edi
    2af3:	01 00                	add    DWORD PTR [eax],eax
    2af5:	00 58 05             	add    BYTE PTR [eax+0x5],bl
    2af8:	67 73 00             	addr16 jae 2afb <.debug_info+0x401>
    2afb:	04 20                	add    al,0x20
    2afd:	0e                   	push   cs
    2afe:	47                   	inc    edi
    2aff:	01 00                	add    DWORD PTR [eax],eax
    2b01:	00 5c 05 6c          	add    BYTE PTR [ebp+eax*1+0x6c],bl
    2b05:	64 74 00             	fs je  2b08 <.debug_info+0x40e>
    2b08:	04 21                	add    al,0x21
    2b0a:	0e                   	push   cs
    2b0b:	47                   	inc    edi
    2b0c:	01 00                	add    DWORD PTR [eax],eax
    2b0e:	00 60 05             	add    BYTE PTR [eax+0x5],ah
    2b11:	74 72                	je     2b85 <.debug_info+0x48b>
    2b13:	61                   	popa   
    2b14:	70 00                	jo     2b16 <.debug_info+0x41c>
    2b16:	04 22                	add    al,0x22
    2b18:	0e                   	push   cs
    2b19:	20 01                	and    BYTE PTR [ecx],al
    2b1b:	00 00                	add    BYTE PTR [eax],al
    2b1d:	64 05 69 6f 6d 61    	fs add eax,0x616d6f69
    2b23:	70 00                	jo     2b25 <.debug_info+0x42b>
    2b25:	04 23                	add    al,0x23
    2b27:	0e                   	push   cs
    2b28:	20 01                	and    BYTE PTR [ecx],al
    2b2a:	00 00                	add    BYTE PTR [eax],al
    2b2c:	66 00 03             	data16 add BYTE PTR [ebx],al
    2b2f:	74 73                	je     2ba4 <.debug_info+0x4aa>
    2b31:	73 5f                	jae    2b92 <.debug_info+0x498>
    2b33:	65 6e                	outs   dx,BYTE PTR gs:[esi]
    2b35:	74 72                	je     2ba9 <.debug_info+0x4af>
    2b37:	79 5f                	jns    2b98 <.debug_info+0x49e>
    2b39:	74 00                	je     2b3b <.debug_info+0x441>
    2b3b:	04 24                	add    al,0x24
    2b3d:	1b ba 02 00 00 08    	sbb    edi,DWORD PTR [edx+0x8000002]
    2b43:	6b 65 72 6e          	imul   esp,DWORD PTR [ebp+0x72],0x6e
    2b47:	65 6c                	gs ins BYTE PTR es:[edi],dx
    2b49:	5f                   	pop    edi
    2b4a:	74 73                	je     2bbf <.debug_info+0x4c5>
    2b4c:	73 00                	jae    2b4e <.debug_info+0x454>
    2b4e:	04 26                	add    al,0x26
    2b50:	14 34                	adc    al,0x34
    2b52:	04 00                	add    al,0x0
    2b54:	00 09                	add    BYTE PTR [ecx],cl
    2b56:	48                   	dec    eax
    2b57:	04 00                	add    al,0x0
    2b59:	00 01                	add    BYTE PTR [ecx],al
    2b5b:	03 0d 05 03 a0 8c    	add    ecx,DWORD PTR ds:0x8ca00305
    2b61:	10 00                	adc    BYTE PTR [eax],al
    2b63:	0a 74 73 73          	or     dh,BYTE PTR [ebx+esi*2+0x73]
    2b67:	5f                   	pop    edi
    2b68:	73 65                	jae    2bcf <.debug_info+0x4d5>
    2b6a:	74 5f                	je     2bcb <.debug_info+0x4d1>
    2b6c:	73 74                	jae    2be2 <.debug_info+0x4e8>
    2b6e:	61                   	popa   
    2b6f:	63 6b 00             	arpl   WORD PTR [ebx+0x0],bp
    2b72:	01 17                	add    DWORD PTR [edi],edx
    2b74:	06                   	push   es
    2b75:	60                   	pusha  
    2b76:	21 10                	and    DWORD PTR [eax],edx
    2b78:	00 14 00             	add    BYTE PTR [eax+eax*1],dl
    2b7b:	00 00                	add    BYTE PTR [eax],al
    2b7d:	01 9c a9 04 00 00 0b 	add    DWORD PTR [ecx+ebp*4+0xb000004],ebx
    2b84:	6b 73 73 00          	imul   esi,DWORD PTR [ebx+0x73],0x0
    2b88:	01 17                	add    DWORD PTR [edi],edx
    2b8a:	1d 47 01 00 00       	sbb    eax,0x147
    2b8f:	02 91 00 0b 6b 65    	add    dl,BYTE PTR [ecx+0x656b0b00]
    2b95:	73 70                	jae    2c07 <.debug_info+0xd>
    2b97:	00 01                	add    BYTE PTR [ecx],al
    2b99:	17                   	pop    ss
    2b9a:	2b 47 01             	sub    eax,DWORD PTR [edi+0x1]
    2b9d:	00 00                	add    BYTE PTR [eax],al
    2b9f:	02 91 04 00 0c 74    	add    dl,BYTE PTR [ecx+0x740c0004]
    2ba5:	73 73                	jae    2c1a <.debug_info+0x20>
    2ba7:	5f                   	pop    edi
    2ba8:	69 6e 69 74 00 01 05 	imul   ebp,DWORD PTR [esi+0x69],0x5010074
    2baf:	06                   	push   es
    2bb0:	b0 20                	mov    al,0x20
    2bb2:	10 00                	adc    BYTE PTR [eax],al
    2bb4:	b0 00                	mov    al,0x0
    2bb6:	00 00                	add    BYTE PTR [eax],al
    2bb8:	01 9c 0b 69 64 78 00 	add    DWORD PTR [ebx+ecx*1+0x786469],ebx
    2bbf:	01 05 18 47 01 00    	add    DWORD PTR ds:0x14718,eax
    2bc5:	00 02                	add    BYTE PTR [edx],al
    2bc7:	91                   	xchg   ecx,eax
    2bc8:	00 0b                	add    BYTE PTR [ebx],cl
    2bca:	6b 73 73 00          	imul   esi,DWORD PTR [ebx+0x73],0x0
    2bce:	01 05 26 47 01 00    	add    DWORD PTR ds:0x14726,eax
    2bd4:	00 02                	add    BYTE PTR [edx],al
    2bd6:	91                   	xchg   ecx,eax
    2bd7:	04 0b                	add    al,0xb
    2bd9:	6b 65 73 70          	imul   esp,DWORD PTR [ebp+0x73],0x70
    2bdd:	00 01                	add    BYTE PTR [ecx],al
    2bdf:	05 34 47 01 00       	add    eax,0x14734
    2be4:	00 02                	add    BYTE PTR [edx],al
    2be6:	91                   	xchg   ecx,eax
    2be7:	08 0d 62 61 73 65    	or     BYTE PTR ds:0x65736162,cl
    2bed:	00 01                	add    BYTE PTR [ecx],al
    2bef:	06                   	push   es
    2bf0:	0e                   	push   cs
    2bf1:	47                   	inc    edi
    2bf2:	01 00                	add    DWORD PTR [eax],eax
    2bf4:	00 02                	add    BYTE PTR [edx],al
    2bf6:	91                   	xchg   ecx,eax
    2bf7:	6c                   	ins    BYTE PTR es:[edi],dx
	...

00002bfa <.debug_info>:
    2bfa:	b8 02 00 00 04       	mov    eax,0x4000002
    2bff:	00 0d 09 00 00 04    	add    BYTE PTR ds:0x4000009,cl
    2c05:	01 47 4e             	add    DWORD PTR [edi+0x4e],eax
    2c08:	55                   	push   ebp
    2c09:	20 43 39             	and    BYTE PTR [ebx+0x39],al
    2c0c:	39 20                	cmp    DWORD PTR [eax],esp
    2c0e:	39 2e                	cmp    DWORD PTR [esi],ebp
    2c10:	33 2d 77 69 6e 33    	xor    ebp,DWORD PTR ds:0x336e6977
    2c16:	32 20                	xor    ah,BYTE PTR [eax]
    2c18:	32 30                	xor    dh,BYTE PTR [eax]
    2c1a:	32 30                	xor    dh,BYTE PTR [eax]
    2c1c:	30 33                	xor    BYTE PTR [ebx],dh
    2c1e:	32 30                	xor    dh,BYTE PTR [eax]
    2c20:	20 2d 6d 33 32 20    	and    BYTE PTR ds:0x2032336d,ch
    2c26:	2d 6d 74 75 6e       	sub    eax,0x6e75746d
    2c2b:	65 3d 67 65 6e 65    	gs cmp eax,0x656e6567
    2c31:	72 69                	jb     2c9c <.debug_info+0xa2>
    2c33:	63 20                	arpl   WORD PTR [eax],sp
    2c35:	2d 6d 61 72 63       	sub    eax,0x6372616d
    2c3a:	68 3d 78 38 36       	push   0x3638783d
    2c3f:	2d 36 34 20 2d       	sub    eax,0x2d203436
    2c44:	67 20 2d             	and    BYTE PTR [di],ch
    2c47:	67 67 64 62 20       	addr16 bound esp,QWORD PTR fs:[bx+si]
    2c4c:	2d 73 74 64 3d       	sub    eax,0x3d647473
    2c51:	67 6e                	outs   dx,BYTE PTR ds:[si]
    2c53:	75 39                	jne    2c8e <.debug_info+0x94>
    2c55:	39 20                	cmp    DWORD PTR [eax],esp
    2c57:	2d 66 6f 6d 69       	sub    eax,0x696d6f66
    2c5c:	74 2d                	je     2c8b <.debug_info+0x91>
    2c5e:	66 72 61             	data16 jb 2cc2 <.debug_info+0xc8>
    2c61:	6d                   	ins    DWORD PTR es:[edi],dx
    2c62:	65 2d 70 6f 69 6e    	gs sub eax,0x6e696f70
    2c68:	74 65                	je     2ccf <.debug_info+0xd5>
    2c6a:	72 20                	jb     2c8c <.debug_info+0x92>
    2c6c:	2d 66 69 6e 6c       	sub    eax,0x6c6e6966
    2c71:	69 6e 65 2d 66 75 6e 	imul   ebp,DWORD PTR [esi+0x65],0x6e75662d
    2c78:	63 74 69 6f          	arpl   WORD PTR [ecx+ebp*2+0x6f],si
    2c7c:	6e                   	outs   dx,BYTE PTR ds:[esi]
    2c7d:	73 20                	jae    2c9f <.debug_info+0xa5>
    2c7f:	2d 66 66 72 65       	sub    eax,0x65726666
    2c84:	65 73 74             	gs jae 2cfb <.debug_info+0x101>
    2c87:	61                   	popa   
    2c88:	6e                   	outs   dx,BYTE PTR ds:[esi]
    2c89:	64 69 6e 67 00 0c 73 	imul   ebp,DWORD PTR fs:[esi+0x67],0x72730c00
    2c90:	72 
    2c91:	63 2f                	arpl   WORD PTR [edi],bp
    2c93:	6b 65 72 6e          	imul   esp,DWORD PTR [ebp+0x72],0x6e
    2c97:	65 6c                	gs ins BYTE PTR es:[edi],dx
    2c99:	2f                   	das    
    2c9a:	63 70 75             	arpl   WORD PTR [eax+0x75],si
    2c9d:	69 64 2e 63 00 2f 6d 	imul   esp,DWORD PTR [esi+ebp*1+0x63],0x6e6d2f00
    2ca4:	6e 
    2ca5:	74 2f                	je     2cd6 <.debug_info+0xdc>
    2ca7:	63 2f                	arpl   WORD PTR [edi],bp
    2ca9:	70 72                	jo     2d1d <.debug_info+0x123>
    2cab:	6f                   	outs   dx,DWORD PTR ds:[esi]
    2cac:	6a 65                	push   0x65
    2cae:	63 74 73 2f          	arpl   WORD PTR [ebx+esi*2+0x2f],si
    2cb2:	6c                   	ins    BYTE PTR es:[edi],dx
    2cb3:	69 6e 75 78 2f 6f 73 	imul   ebp,DWORD PTR [esi+0x75],0x736f2f78
    2cba:	00 74 21 10          	add    BYTE PTR [ecx+eiz*1+0x10],dh
    2cbe:	00 60 01             	add    BYTE PTR [eax+0x1],ah
    2cc1:	00 00                	add    BYTE PTR [eax],al
    2cc3:	b0 0f                	mov    al,0xf
    2cc5:	00 00                	add    BYTE PTR [eax],al
    2cc7:	02 01                	add    al,BYTE PTR [ecx]
    2cc9:	06                   	push   es
    2cca:	73 69                	jae    2d35 <.debug_info+0x13b>
    2ccc:	67 6e                	outs   dx,BYTE PTR ds:[si]
    2cce:	65 64 20 63 68       	gs and BYTE PTR fs:[ebx+0x68],ah
    2cd3:	61                   	popa   
    2cd4:	72 00                	jb     2cd6 <.debug_info+0xdc>
    2cd6:	02 02                	add    al,BYTE PTR [edx]
    2cd8:	05 73 68 6f 72       	add    eax,0x726f6873
    2cdd:	74 20                	je     2cff <.debug_info+0x105>
    2cdf:	69 6e 74 00 02 04 05 	imul   ebp,DWORD PTR [esi+0x74],0x5040200
    2ce6:	69 6e 74 00 02 08 05 	imul   ebp,DWORD PTR [esi+0x74],0x5080200
    2ced:	6c                   	ins    BYTE PTR es:[edi],dx
    2cee:	6f                   	outs   dx,DWORD PTR ds:[esi]
    2cef:	6e                   	outs   dx,BYTE PTR ds:[esi]
    2cf0:	67 20 6c 6f          	and    BYTE PTR [si+0x6f],ch
    2cf4:	6e                   	outs   dx,BYTE PTR ds:[esi]
    2cf5:	67 20 69 6e          	and    BYTE PTR [bx+di+0x6e],ch
    2cf9:	74 00                	je     2cfb <.debug_info+0x101>
    2cfb:	02 01                	add    al,BYTE PTR [ecx]
    2cfd:	08 75 6e             	or     BYTE PTR [ebp+0x6e],dh
    2d00:	73 69                	jae    2d6b <.debug_info+0x171>
    2d02:	67 6e                	outs   dx,BYTE PTR ds:[si]
    2d04:	65 64 20 63 68       	gs and BYTE PTR fs:[ebx+0x68],ah
    2d09:	61                   	popa   
    2d0a:	72 00                	jb     2d0c <.debug_info+0x112>
    2d0c:	02 02                	add    al,BYTE PTR [edx]
    2d0e:	07                   	pop    es
    2d0f:	73 68                	jae    2d79 <.debug_info+0x17f>
    2d11:	6f                   	outs   dx,DWORD PTR ds:[esi]
    2d12:	72 74                	jb     2d88 <.debug_info+0x18e>
    2d14:	20 75 6e             	and    BYTE PTR [ebp+0x6e],dh
    2d17:	73 69                	jae    2d82 <.debug_info+0x188>
    2d19:	67 6e                	outs   dx,BYTE PTR ds:[si]
    2d1b:	65 64 20 69 6e       	gs and BYTE PTR fs:[ecx+0x6e],ch
    2d20:	74 00                	je     2d22 <.debug_info+0x128>
    2d22:	02 04 07             	add    al,BYTE PTR [edi+eax*1]
    2d25:	75 6e                	jne    2d95 <.debug_info+0x19b>
    2d27:	73 69                	jae    2d92 <.debug_info+0x198>
    2d29:	67 6e                	outs   dx,BYTE PTR ds:[si]
    2d2b:	65 64 20 69 6e       	gs and BYTE PTR fs:[ecx+0x6e],ch
    2d30:	74 00                	je     2d32 <.debug_info+0x138>
    2d32:	02 08                	add    cl,BYTE PTR [eax]
    2d34:	07                   	pop    es
    2d35:	6c                   	ins    BYTE PTR es:[edi],dx
    2d36:	6f                   	outs   dx,DWORD PTR ds:[esi]
    2d37:	6e                   	outs   dx,BYTE PTR ds:[esi]
    2d38:	67 20 6c 6f          	and    BYTE PTR [si+0x6f],ch
    2d3c:	6e                   	outs   dx,BYTE PTR ds:[esi]
    2d3d:	67 20 75 6e          	and    BYTE PTR [di+0x6e],dh
    2d41:	73 69                	jae    2dac <.debug_info+0x1b2>
    2d43:	67 6e                	outs   dx,BYTE PTR ds:[si]
    2d45:	65 64 20 69 6e       	gs and BYTE PTR fs:[ecx+0x6e],ch
    2d4a:	74 00                	je     2d4c <.debug_info+0x152>
    2d4c:	02 01                	add    al,BYTE PTR [ecx]
    2d4e:	06                   	push   es
    2d4f:	63 68 61             	arpl   WORD PTR [eax+0x61],bp
    2d52:	72 00                	jb     2d54 <.debug_info+0x15a>
    2d54:	02 04 05 6c 6f 6e 67 	add    al,BYTE PTR [eax*1+0x676e6f6c]
    2d5b:	20 69 6e             	and    BYTE PTR [ecx+0x6e],ch
    2d5e:	74 00                	je     2d60 <.debug_info+0x166>
    2d60:	03 04 e9             	add    eax,DWORD PTR [ecx+ebp*8]
    2d63:	00 00                	add    BYTE PTR [eax],al
    2d65:	00 02                	add    BYTE PTR [edx],al
    2d67:	04 07                	add    al,0x7
    2d69:	6c                   	ins    BYTE PTR es:[edi],dx
    2d6a:	6f                   	outs   dx,DWORD PTR ds:[esi]
    2d6b:	6e                   	outs   dx,BYTE PTR ds:[esi]
    2d6c:	67 20 75 6e          	and    BYTE PTR [di+0x6e],dh
    2d70:	73 69                	jae    2ddb <.debug_info+0x1e1>
    2d72:	67 6e                	outs   dx,BYTE PTR ds:[si]
    2d74:	65 64 20 69 6e       	gs and BYTE PTR fs:[ecx+0x6e],ch
    2d79:	74 00                	je     2d7b <.debug_info+0x181>
    2d7b:	04 55                	add    al,0x55
    2d7d:	4c                   	dec    esp
    2d7e:	4f                   	dec    edi
    2d7f:	4e                   	dec    esi
    2d80:	47                   	inc    edi
    2d81:	00 02                	add    BYTE PTR [edx],al
    2d83:	0c 17                	or     al,0x17
    2d85:	6c                   	ins    BYTE PTR es:[edi],dx
    2d86:	01 00                	add    DWORD PTR [eax],eax
    2d88:	00 05 64 65 74 65    	add    BYTE PTR ds:0x65746564,al
    2d8e:	63 74 48 61          	arpl   WORD PTR [eax+ecx*2+0x61],si
    2d92:	72 64                	jb     2df8 <.debug_info+0x1fe>
    2d94:	77 61                	ja     2df7 <.debug_info+0x1fd>
    2d96:	72 65                	jb     2dfd <.debug_info+0x203>
    2d98:	00 01                	add    BYTE PTR [ecx],al
    2d9a:	2b 06                	sub    eax,DWORD PTR [esi]
    2d9c:	c7                   	(bad)  
    2d9d:	22 10                	and    dl,BYTE PTR [eax]
    2d9f:	00 0d 00 00 00 01    	add    BYTE PTR ds:0x1000000,cl
    2da5:	9c                   	pushf  
    2da6:	06                   	push   es
    2da7:	64 65 74 65          	fs gs je 2e10 <.debug_info+0x216>
    2dab:	63 74 43 50          	arpl   WORD PTR [ebx+eax*2+0x50],si
    2daf:	55                   	push   ebp
    2db0:	00 01                	add    BYTE PTR [ecx],al
    2db2:	0c 06                	or     al,0x6
    2db4:	fa                   	cli    
    2db5:	21 10                	and    DWORD PTR [eax],edx
    2db7:	00 cd                	add    ch,cl
    2db9:	00 00                	add    BYTE PTR [eax],al
    2dbb:	00 01                	add    BYTE PTR [ecx],al
    2dbd:	9c                   	pushf  
    2dbe:	1f                   	pop    ds
    2dbf:	02 00                	add    al,BYTE PTR [eax]
    2dc1:	00 07                	add    BYTE PTR [edi],al
    2dc3:	43                   	inc    ebx
    2dc4:	70 75                	jo     2e3b <.debug_info+0x241>
    2dc6:	49                   	dec    ecx
    2dc7:	6e                   	outs   dx,BYTE PTR ds:[esi]
    2dc8:	66 6f                	outs   dx,WORD PTR ds:[esi]
    2dca:	72 6d                	jb     2e39 <.debug_info+0x23f>
    2dcc:	61                   	popa   
    2dcd:	74 69                	je     2e38 <.debug_info+0x23e>
    2dcf:	6f                   	outs   dx,DWORD PTR ds:[esi]
    2dd0:	6e                   	outs   dx,BYTE PTR ds:[esi]
    2dd1:	00 01                	add    BYTE PTR [ecx],al
    2dd3:	0d 09 1f 02 00       	or     eax,0x21f09
    2dd8:	00 02                	add    BYTE PTR [edx],al
    2dda:	91                   	xchg   ecx,eax
    2ddb:	58                   	pop    eax
    2ddc:	07                   	pop    es
    2ddd:	4e                   	dec    esi
    2dde:	75 6d                	jne    2e4d <.debug_info+0x253>
    2de0:	62 65 72             	bound  esp,QWORD PTR [ebp+0x72]
    2de3:	4f                   	dec    edi
    2de4:	66 49                	dec    cx
    2de6:	64 73 00             	fs jae 2de9 <.debug_info+0x1ef>
    2de9:	01 0e                	add    DWORD PTR [esi],ecx
    2deb:	0b 81 01 00 00 02    	or     eax,DWORD PTR [ecx+0x2000001]
    2df1:	91                   	xchg   ecx,eax
    2df2:	6c                   	ins    BYTE PTR es:[edi],dx
    2df3:	08 5b 22             	or     BYTE PTR [ebx+0x22],bl
    2df6:	10 00                	adc    BYTE PTR [eax],al
    2df8:	67 00 00             	add    BYTE PTR [bx+si],al
    2dfb:	00 07                	add    BYTE PTR [edi],al
    2dfd:	50                   	push   eax
    2dfe:	72 6f                	jb     2e6f <.debug_info+0x275>
    2e00:	63 65 73             	arpl   WORD PTR [ebp+0x73],sp
    2e03:	73 6f                	jae    2e74 <.debug_info+0x27a>
    2e05:	72 46                	jb     2e4d <.debug_info+0x253>
    2e07:	61                   	popa   
    2e08:	6d                   	ins    DWORD PTR es:[edi],dx
    2e09:	69 6c 79 00 01 1a 0d 	imul   ebp,DWORD PTR [ecx+edi*2+0x0],0xe90d1a01
    2e10:	e9 
    2e11:	00 00                	add    BYTE PTR [eax],al
    2e13:	00 02                	add    BYTE PTR [edx],al
    2e15:	91                   	xchg   ecx,eax
    2e16:	68 00 00 09 e9       	push   0xe9090000
    2e1b:	00 00                	add    BYTE PTR [eax],al
    2e1d:	00 2f                	add    BYTE PTR [edi],ch
    2e1f:	02 00                	add    al,BYTE PTR [eax]
    2e21:	00 0a                	add    BYTE PTR [edx],cl
    2e23:	28 01                	sub    BYTE PTR [ecx],al
    2e25:	00 00                	add    BYTE PTR [eax],al
    2e27:	03 00                	add    eax,DWORD PTR [eax]
    2e29:	0b 5f 5f             	or     ebx,DWORD PTR [edi+0x5f]
    2e2c:	63 70 75             	arpl   WORD PTR [eax+0x75],si
    2e2f:	69 64 65 78 00 01 08 	imul   esp,DWORD PTR [ebp+eiz*2+0x78],0x6080100
    2e36:	06 
    2e37:	b4 21                	mov    ah,0x21
    2e39:	10 00                	adc    BYTE PTR [eax],al
    2e3b:	46                   	inc    esi
    2e3c:	00 00                	add    BYTE PTR [eax],al
    2e3e:	00 01                	add    BYTE PTR [ecx],al
    2e40:	9c                   	pushf  
    2e41:	82 02 00             	add    BYTE PTR [edx],0x0
    2e44:	00 0c 43             	add    BYTE PTR [ebx+eax*2],cl
    2e47:	50                   	push   eax
    2e48:	55                   	push   ebp
    2e49:	49                   	dec    ecx
    2e4a:	6e                   	outs   dx,BYTE PTR ds:[esi]
    2e4b:	66 6f                	outs   dx,WORD PTR ds:[esi]
    2e4d:	00 01                	add    BYTE PTR [ecx],al
    2e4f:	08 14 66             	or     BYTE PTR [esi+eiz*2],dl
    2e52:	01 00                	add    DWORD PTR [eax],eax
    2e54:	00 02                	add    BYTE PTR [edx],al
    2e56:	91                   	xchg   ecx,eax
    2e57:	00 0d 12 00 00 00    	add    BYTE PTR ds:0x12,cl
    2e5d:	01 08                	add    DWORD PTR [eax],ecx
    2e5f:	24 e9                	and    al,0xe9
    2e61:	00 00                	add    BYTE PTR [eax],al
    2e63:	00 02                	add    BYTE PTR [edx],al
    2e65:	91                   	xchg   ecx,eax
    2e66:	04 0c                	add    al,0xc
    2e68:	45                   	inc    ebp
    2e69:	43                   	inc    ebx
    2e6a:	58                   	pop    eax
    2e6b:	56                   	push   esi
    2e6c:	61                   	popa   
    2e6d:	6c                   	ins    BYTE PTR es:[edi],dx
    2e6e:	75 65                	jne    2ed5 <.debug_info+0x1f>
    2e70:	00 01                	add    BYTE PTR [ecx],al
    2e72:	08 32                	or     BYTE PTR [edx],dh
    2e74:	e9 00 00 00 02       	jmp    2002e79 <___ImageBase+0x1c02e79>
    2e79:	91                   	xchg   ecx,eax
    2e7a:	08 00                	or     BYTE PTR [eax],al
    2e7c:	0e                   	push   cs
    2e7d:	5f                   	pop    edi
    2e7e:	5f                   	pop    edi
    2e7f:	63 70 75             	arpl   WORD PTR [eax+0x75],si
    2e82:	69 64 00 01 04 06 74 	imul   esp,DWORD PTR [eax+eax*1+0x1],0x21740604
    2e89:	21 
    2e8a:	10 00                	adc    BYTE PTR [eax],al
    2e8c:	40                   	inc    eax
    2e8d:	00 00                	add    BYTE PTR [eax],al
    2e8f:	00 01                	add    BYTE PTR [ecx],al
    2e91:	9c                   	pushf  
    2e92:	0c 43                	or     al,0x43
    2e94:	50                   	push   eax
    2e95:	55                   	push   ebp
    2e96:	49                   	dec    ecx
    2e97:	6e                   	outs   dx,BYTE PTR ds:[esi]
    2e98:	66 6f                	outs   dx,WORD PTR ds:[esi]
    2e9a:	00 01                	add    BYTE PTR [ecx],al
    2e9c:	04 12                	add    al,0x12
    2e9e:	66 01 00             	add    WORD PTR [eax],ax
    2ea1:	00 02                	add    BYTE PTR [edx],al
    2ea3:	91                   	xchg   ecx,eax
    2ea4:	00 0d 12 00 00 00    	add    BYTE PTR ds:0x12,cl
    2eaa:	01 04 22             	add    DWORD PTR [edx+eiz*1],eax
    2ead:	e9 00 00 00 02       	jmp    2002eb2 <___ImageBase+0x1c02eb2>
    2eb2:	91                   	xchg   ecx,eax
    2eb3:	04 00                	add    al,0x0
	...

00002eb6 <.debug_info>:
    2eb6:	57                   	push   edi
    2eb7:	02 00                	add    al,BYTE PTR [eax]
    2eb9:	00 04 00             	add    BYTE PTR [eax+eax*1],al
    2ebc:	fa                   	cli    
    2ebd:	09 00                	or     DWORD PTR [eax],eax
    2ebf:	00 04 01             	add    BYTE PTR [ecx+eax*1],al
    2ec2:	47                   	inc    edi
    2ec3:	4e                   	dec    esi
    2ec4:	55                   	push   ebp
    2ec5:	20 43 39             	and    BYTE PTR [ebx+0x39],al
    2ec8:	39 20                	cmp    DWORD PTR [eax],esp
    2eca:	39 2e                	cmp    DWORD PTR [esi],ebp
    2ecc:	33 2d 77 69 6e 33    	xor    ebp,DWORD PTR ds:0x336e6977
    2ed2:	32 20                	xor    ah,BYTE PTR [eax]
    2ed4:	32 30                	xor    dh,BYTE PTR [eax]
    2ed6:	32 30                	xor    dh,BYTE PTR [eax]
    2ed8:	30 33                	xor    BYTE PTR [ebx],dh
    2eda:	32 30                	xor    dh,BYTE PTR [eax]
    2edc:	20 2d 6d 33 32 20    	and    BYTE PTR ds:0x2032336d,ch
    2ee2:	2d 6d 74 75 6e       	sub    eax,0x6e75746d
    2ee7:	65 3d 67 65 6e 65    	gs cmp eax,0x656e6567
    2eed:	72 69                	jb     2f58 <.debug_info+0xa2>
    2eef:	63 20                	arpl   WORD PTR [eax],sp
    2ef1:	2d 6d 61 72 63       	sub    eax,0x6372616d
    2ef6:	68 3d 78 38 36       	push   0x3638783d
    2efb:	2d 36 34 20 2d       	sub    eax,0x2d203436
    2f00:	67 20 2d             	and    BYTE PTR [di],ch
    2f03:	67 67 64 62 20       	addr16 bound esp,QWORD PTR fs:[bx+si]
    2f08:	2d 73 74 64 3d       	sub    eax,0x3d647473
    2f0d:	67 6e                	outs   dx,BYTE PTR ds:[si]
    2f0f:	75 39                	jne    2f4a <.debug_info+0x94>
    2f11:	39 20                	cmp    DWORD PTR [eax],esp
    2f13:	2d 66 6f 6d 69       	sub    eax,0x696d6f66
    2f18:	74 2d                	je     2f47 <.debug_info+0x91>
    2f1a:	66 72 61             	data16 jb 2f7e <.debug_info+0xc8>
    2f1d:	6d                   	ins    DWORD PTR es:[edi],dx
    2f1e:	65 2d 70 6f 69 6e    	gs sub eax,0x6e696f70
    2f24:	74 65                	je     2f8b <.debug_info+0xd5>
    2f26:	72 20                	jb     2f48 <.debug_info+0x92>
    2f28:	2d 66 69 6e 6c       	sub    eax,0x6c6e6966
    2f2d:	69 6e 65 2d 66 75 6e 	imul   ebp,DWORD PTR [esi+0x65],0x6e75662d
    2f34:	63 74 69 6f          	arpl   WORD PTR [ecx+ebp*2+0x6f],si
    2f38:	6e                   	outs   dx,BYTE PTR ds:[esi]
    2f39:	73 20                	jae    2f5b <.debug_info+0xa5>
    2f3b:	2d 66 66 72 65       	sub    eax,0x65726666
    2f40:	65 73 74             	gs jae 2fb7 <.debug_info+0x101>
    2f43:	61                   	popa   
    2f44:	6e                   	outs   dx,BYTE PTR ds:[esi]
    2f45:	64 69 6e 67 00 0c 73 	imul   ebp,DWORD PTR fs:[esi+0x67],0x72730c00
    2f4c:	72 
    2f4d:	63 2f                	arpl   WORD PTR [edi],bp
    2f4f:	6b 65 72 6e          	imul   esp,DWORD PTR [ebp+0x72],0x6e
    2f53:	65 6c                	gs ins BYTE PTR es:[edi],dx
    2f55:	2f                   	das    
    2f56:	70 6d                	jo     2fc5 <.debug_info+0x10f>
    2f58:	6d                   	ins    DWORD PTR es:[edi],dx
    2f59:	2e 63 00             	arpl   WORD PTR cs:[eax],ax
    2f5c:	2f                   	das    
    2f5d:	6d                   	ins    DWORD PTR es:[edi],dx
    2f5e:	6e                   	outs   dx,BYTE PTR ds:[esi]
    2f5f:	74 2f                	je     2f90 <.debug_info+0xda>
    2f61:	63 2f                	arpl   WORD PTR [edi],bp
    2f63:	70 72                	jo     2fd7 <.debug_info+0x121>
    2f65:	6f                   	outs   dx,DWORD PTR ds:[esi]
    2f66:	6a 65                	push   0x65
    2f68:	63 74 73 2f          	arpl   WORD PTR [ebx+esi*2+0x2f],si
    2f6c:	6c                   	ins    BYTE PTR es:[edi],dx
    2f6d:	69 6e 75 78 2f 6f 73 	imul   ebp,DWORD PTR [esi+0x75],0x736f2f78
    2f74:	00 d4                	add    ah,dl
    2f76:	22 10                	and    dl,BYTE PTR [eax]
    2f78:	00 ea                	add    dl,ch
    2f7a:	00 00                	add    BYTE PTR [eax],al
    2f7c:	00 6c 10 00          	add    BYTE PTR [eax+edx*1+0x0],ch
    2f80:	00 02                	add    BYTE PTR [edx],al
    2f82:	01 06                	add    DWORD PTR [esi],eax
    2f84:	73 69                	jae    2fef <.debug_info+0x139>
    2f86:	67 6e                	outs   dx,BYTE PTR ds:[si]
    2f88:	65 64 20 63 68       	gs and BYTE PTR fs:[ebx+0x68],ah
    2f8d:	61                   	popa   
    2f8e:	72 00                	jb     2f90 <.debug_info+0xda>
    2f90:	02 02                	add    al,BYTE PTR [edx]
    2f92:	05 73 68 6f 72       	add    eax,0x726f6873
    2f97:	74 20                	je     2fb9 <.debug_info+0x103>
    2f99:	69 6e 74 00 02 04 05 	imul   ebp,DWORD PTR [esi+0x74],0x5040200
    2fa0:	69 6e 74 00 02 08 05 	imul   ebp,DWORD PTR [esi+0x74],0x5080200
    2fa7:	6c                   	ins    BYTE PTR es:[edi],dx
    2fa8:	6f                   	outs   dx,DWORD PTR ds:[esi]
    2fa9:	6e                   	outs   dx,BYTE PTR ds:[esi]
    2faa:	67 20 6c 6f          	and    BYTE PTR [si+0x6f],ch
    2fae:	6e                   	outs   dx,BYTE PTR ds:[esi]
    2faf:	67 20 69 6e          	and    BYTE PTR [bx+di+0x6e],ch
    2fb3:	74 00                	je     2fb5 <.debug_info+0xff>
    2fb5:	03 75 69             	add    esi,DWORD PTR [ebp+0x69]
    2fb8:	6e                   	outs   dx,BYTE PTR ds:[esi]
    2fb9:	74 38                	je     2ff3 <.debug_info+0x13d>
    2fbb:	5f                   	pop    edi
    2fbc:	74 00                	je     2fbe <.debug_info+0x108>
    2fbe:	02 2e                	add    ch,BYTE PTR [esi]
    2fc0:	18 0f                	sbb    BYTE PTR [edi],cl
    2fc2:	01 00                	add    DWORD PTR [eax],eax
    2fc4:	00 02                	add    BYTE PTR [edx],al
    2fc6:	01 08                	add    DWORD PTR [eax],ecx
    2fc8:	75 6e                	jne    3038 <.debug_info+0x182>
    2fca:	73 69                	jae    3035 <.debug_info+0x17f>
    2fcc:	67 6e                	outs   dx,BYTE PTR ds:[si]
    2fce:	65 64 20 63 68       	gs and BYTE PTR fs:[ebx+0x68],ah
    2fd3:	61                   	popa   
    2fd4:	72 00                	jb     2fd6 <.debug_info+0x120>
    2fd6:	02 02                	add    al,BYTE PTR [edx]
    2fd8:	07                   	pop    es
    2fd9:	73 68                	jae    3043 <.debug_info+0x18d>
    2fdb:	6f                   	outs   dx,DWORD PTR ds:[esi]
    2fdc:	72 74                	jb     3052 <.debug_info+0x19c>
    2fde:	20 75 6e             	and    BYTE PTR [ebp+0x6e],dh
    2fe1:	73 69                	jae    304c <.debug_info+0x196>
    2fe3:	67 6e                	outs   dx,BYTE PTR ds:[si]
    2fe5:	65 64 20 69 6e       	gs and BYTE PTR fs:[ecx+0x6e],ch
    2fea:	74 00                	je     2fec <.debug_info+0x136>
    2fec:	03 75 69             	add    esi,DWORD PTR [ebp+0x69]
    2fef:	6e                   	outs   dx,BYTE PTR ds:[esi]
    2ff0:	74 33                	je     3025 <.debug_info+0x16f>
    2ff2:	32 5f 74             	xor    bl,BYTE PTR [edi+0x74]
    2ff5:	00 02                	add    BYTE PTR [edx],al
    2ff7:	34 19                	xor    al,0x19
    2ff9:	47                   	inc    edi
    2ffa:	01 00                	add    DWORD PTR [eax],eax
    2ffc:	00 02                	add    BYTE PTR [edx],al
    2ffe:	04 07                	add    al,0x7
    3000:	75 6e                	jne    3070 <.debug_info+0x1ba>
    3002:	73 69                	jae    306d <.debug_info+0x1b7>
    3004:	67 6e                	outs   dx,BYTE PTR ds:[si]
    3006:	65 64 20 69 6e       	gs and BYTE PTR fs:[ecx+0x6e],ch
    300b:	74 00                	je     300d <.debug_info+0x157>
    300d:	02 08                	add    cl,BYTE PTR [eax]
    300f:	07                   	pop    es
    3010:	6c                   	ins    BYTE PTR es:[edi],dx
    3011:	6f                   	outs   dx,DWORD PTR ds:[esi]
    3012:	6e                   	outs   dx,BYTE PTR ds:[esi]
    3013:	67 20 6c 6f          	and    BYTE PTR [si+0x6f],ch
    3017:	6e                   	outs   dx,BYTE PTR ds:[esi]
    3018:	67 20 75 6e          	and    BYTE PTR [di+0x6e],dh
    301c:	73 69                	jae    3087 <.debug_info+0x1d1>
    301e:	67 6e                	outs   dx,BYTE PTR ds:[si]
    3020:	65 64 20 69 6e       	gs and BYTE PTR fs:[ecx+0x6e],ch
    3025:	74 00                	je     3027 <.debug_info+0x171>
    3027:	04 65                	add    al,0x65
    3029:	6e                   	outs   dx,BYTE PTR ds:[esi]
    302a:	64 00 03             	add    BYTE PTR fs:[ebx],al
    302d:	14 11                	adc    al,0x11
    302f:	36 01 00             	add    DWORD PTR ss:[eax],eax
    3032:	00 04 62             	add    BYTE PTR [edx+eiz*2],al
    3035:	69 74 6d 61 70 00 03 	imul   esi,DWORD PTR [ebp+ebp*2+0x61],0x15030070
    303c:	15 
    303d:	12 8c 01 00 00 05 04 	adc    cl,BYTE PTR [ecx+eax*1+0x4050000]
    3044:	ff 00                	inc    DWORD PTR [eax]
    3046:	00 00                	add    BYTE PTR [eax],al
    3048:	04 6d                	add    al,0x6d
    304a:	65 6d                	gs ins DWORD PTR es:[edi],dx
    304c:	5f                   	pop    edi
    304d:	73 74                	jae    30c3 <.debug_info+0x20d>
    304f:	61                   	popa   
    3050:	72 74                	jb     30c6 <.debug_info+0x210>
    3052:	00 03                	add    BYTE PTR [ebx],al
    3054:	16                   	push   ss
    3055:	12 8c 01 00 00 04 74 	adc    cl,BYTE PTR [ecx+eax*1+0x74040000]
    305c:	6f                   	outs   dx,DWORD PTR ds:[esi]
    305d:	74 61                	je     30c0 <.debug_info+0x20a>
    305f:	6c                   	ins    BYTE PTR es:[edi],dx
    3060:	5f                   	pop    edi
    3061:	62 6c 6f 63          	bound  ebp,QWORD PTR [edi+ebp*2+0x63]
    3065:	6b 73 00 03          	imul   esi,DWORD PTR [ebx+0x0],0x3
    3069:	17                   	pop    ss
    306a:	11 36                	adc    DWORD PTR [esi],esi
    306c:	01 00                	add    DWORD PTR [eax],eax
    306e:	00 04 62             	add    BYTE PTR [edx+eiz*2],al
    3071:	69 74 6d 61 70 5f 73 	imul   esi,DWORD PTR [ebp+ebp*2+0x61],0x69735f70
    3078:	69 
    3079:	7a 65                	jp     30e0 <.debug_info+0x22a>
    307b:	00 03                	add    BYTE PTR [ebx],al
    307d:	18 11                	sbb    BYTE PTR [ecx],dl
    307f:	36 01 00             	add    DWORD PTR ss:[eax],eax
    3082:	00 02                	add    BYTE PTR [edx],al
    3084:	01 06                	add    DWORD PTR [esi],eax
    3086:	63 68 61             	arpl   WORD PTR [eax+0x61],bp
    3089:	72 00                	jb     308b <.debug_info+0x1d5>
    308b:	02 04 05 6c 6f 6e 67 	add    al,BYTE PTR [eax*1+0x676e6f6c]
    3092:	20 69 6e             	and    BYTE PTR [ecx+0x6e],ch
    3095:	74 00                	je     3097 <.debug_info+0x1e1>
    3097:	02 04 07             	add    al,BYTE PTR [edi+eax*1]
    309a:	6c                   	ins    BYTE PTR es:[edi],dx
    309b:	6f                   	outs   dx,DWORD PTR ds:[esi]
    309c:	6e                   	outs   dx,BYTE PTR ds:[esi]
    309d:	67 20 75 6e          	and    BYTE PTR [di+0x6e],dh
    30a1:	73 69                	jae    310c <.debug_info+0x256>
    30a3:	67 6e                	outs   dx,BYTE PTR ds:[si]
    30a5:	65 64 20 69 6e       	gs and BYTE PTR fs:[ecx+0x6e],ch
    30aa:	74 00                	je     30ac <.debug_info+0x1f6>
    30ac:	06                   	push   es
    30ad:	7d 01                	jge    30b0 <.debug_info+0x1fa>
    30af:	00 00                	add    BYTE PTR [eax],al
    30b1:	01 05 0b 05 03 80    	add    DWORD PTR ds:0x8003050b,eax
    30b7:	40                   	inc    eax
    30b8:	10 00                	adc    BYTE PTR [eax],al
    30ba:	06                   	push   es
    30bb:	92                   	xchg   edx,eax
    30bc:	01 00                	add    DWORD PTR [eax],eax
    30be:	00 01                	add    BYTE PTR [ecx],al
    30c0:	06                   	push   es
    30c1:	0b 05 03 10 8d 10    	or     eax,DWORD PTR ds:0x108d1003
    30c7:	00 06                	add    BYTE PTR [esi],al
    30c9:	a4                   	movs   BYTE PTR es:[edi],BYTE PTR ds:[esi]
    30ca:	01 00                	add    DWORD PTR [eax],eax
    30cc:	00 01                	add    BYTE PTR [ecx],al
    30ce:	07                   	pop    es
    30cf:	0a 05 03 08 8d 10    	or     al,BYTE PTR ds:0x108d0803
    30d5:	00 06                	add    BYTE PTR [esi],al
    30d7:	b9 01 00 00 01       	mov    ecx,0x1000001
    30dc:	08 0a                	or     BYTE PTR [edx],cl
    30de:	05 03 0c 8d 10       	add    eax,0x108d0c03
    30e3:	00 07                	add    BYTE PTR [edi],al
    30e5:	70 6d                	jo     3154 <.debug_info+0x29e>
    30e7:	6d                   	ins    DWORD PTR es:[edi],dx
    30e8:	5f                   	pop    edi
    30e9:	69 6e 69 74 00 01 0a 	imul   ebp,DWORD PTR [esi+0x69],0xa010074
    30f0:	06                   	push   es
    30f1:	d4 22                	aam    0x22
    30f3:	10 00                	adc    BYTE PTR [eax],al
    30f5:	ea 00 00 00 01 9c 08 	jmp    0x89c:0x1000000
    30fc:	6d                   	ins    DWORD PTR es:[edi],dx
    30fd:	65 6d                	gs ins DWORD PTR es:[edi],dx
    30ff:	5f                   	pop    edi
    3100:	73 69                	jae    316b <.debug_info+0x2b5>
    3102:	7a 65                	jp     3169 <.debug_info+0x2b3>
    3104:	00 01                	add    BYTE PTR [ecx],al
    3106:	0a 18                	or     bl,BYTE PTR [eax]
    3108:	36 01 00             	add    DWORD PTR ss:[eax],eax
    310b:	00 02                	add    BYTE PTR [edx],al
    310d:	91                   	xchg   ecx,eax
    310e:	00 00                	add    BYTE PTR [eax],al
	...

Disassembly of section .debug_abbrev:

00000000 <.debug_abbrev>:
   0:	01 11                	add    DWORD PTR [ecx],edx
   2:	01 25 08 13 0b 03    	add    DWORD PTR ds:0x30b1308,esp
   8:	08 1b                	or     BYTE PTR [ebx],bl
   a:	08 11                	or     BYTE PTR [ecx],dl
   c:	01 12                	add    DWORD PTR [edx],edx
   e:	06                   	push   es
   f:	10 17                	adc    BYTE PTR [edi],dl
  11:	00 00                	add    BYTE PTR [eax],al
  13:	02 24 00             	add    ah,BYTE PTR [eax+eax*1]
  16:	0b 0b                	or     ecx,DWORD PTR [ebx]
  18:	3e 0b 03             	or     eax,DWORD PTR ds:[ebx]
  1b:	08 00                	or     BYTE PTR [eax],al
  1d:	00 03                	add    BYTE PTR [ebx],al
  1f:	16                   	push   ss
  20:	00 03                	add    BYTE PTR [ebx],al
  22:	08 3a                	or     BYTE PTR [edx],bh
  24:	0b 3b                	or     edi,DWORD PTR [ebx]
  26:	0b 39                	or     edi,DWORD PTR [ecx]
  28:	0b 49 13             	or     ecx,DWORD PTR [ecx+0x13]
  2b:	00 00                	add    BYTE PTR [eax],al
  2d:	04 13                	add    al,0x13
  2f:	01 03                	add    DWORD PTR [ebx],eax
  31:	08 0b                	or     BYTE PTR [ebx],cl
  33:	0b 3a                	or     edi,DWORD PTR [edx]
  35:	0b 3b                	or     edi,DWORD PTR [ebx]
  37:	0b 39                	or     edi,DWORD PTR [ecx]
  39:	0b 01                	or     eax,DWORD PTR [ecx]
  3b:	13 00                	adc    eax,DWORD PTR [eax]
  3d:	00 05 0d 00 03 08    	add    BYTE PTR ds:0x803000d,al
  43:	3a 0b                	cmp    cl,BYTE PTR [ebx]
  45:	3b 0b                	cmp    ecx,DWORD PTR [ebx]
  47:	39 0b                	cmp    DWORD PTR [ebx],ecx
  49:	49                   	dec    ecx
  4a:	13 38                	adc    edi,DWORD PTR [eax]
  4c:	0b 00                	or     eax,DWORD PTR [eax]
  4e:	00 06                	add    BYTE PTR [esi],al
  50:	01 01                	add    DWORD PTR [ecx],eax
  52:	49                   	dec    ecx
  53:	13 01                	adc    eax,DWORD PTR [ecx]
  55:	13 00                	adc    eax,DWORD PTR [eax]
  57:	00 07                	add    BYTE PTR [edi],al
  59:	21 00                	and    DWORD PTR [eax],eax
  5b:	49                   	dec    ecx
  5c:	13 2f                	adc    ebp,DWORD PTR [edi]
  5e:	0b 00                	or     eax,DWORD PTR [eax]
  60:	00 08                	add    BYTE PTR [eax],cl
  62:	34 00                	xor    al,0x0
  64:	03 08                	add    ecx,DWORD PTR [eax]
  66:	3a 0b                	cmp    cl,BYTE PTR [ebx]
  68:	3b 0b                	cmp    ecx,DWORD PTR [ebx]
  6a:	39 0b                	cmp    DWORD PTR [ebx],ecx
  6c:	49                   	dec    ecx
  6d:	13 3f                	adc    edi,DWORD PTR [edi]
  6f:	19 3c 19             	sbb    DWORD PTR [ecx+ebx*1],edi
  72:	00 00                	add    BYTE PTR [eax],al
  74:	09 0f                	or     DWORD PTR [edi],ecx
  76:	00 0b                	add    BYTE PTR [ebx],cl
  78:	0b 49 13             	or     ecx,DWORD PTR [ecx+0x13]
  7b:	00 00                	add    BYTE PTR [eax],al
  7d:	0a 15 01 27 19 01    	or     dl,BYTE PTR ds:0x1192701
  83:	13 00                	adc    eax,DWORD PTR [eax]
  85:	00 0b                	add    BYTE PTR [ebx],cl
  87:	05 00 49 13 00       	add    eax,0x134900
  8c:	00 0c 21             	add    BYTE PTR [ecx+eiz*1],cl
  8f:	00 49 13             	add    BYTE PTR [ecx+0x13],cl
  92:	2f                   	das    
  93:	05 00 00 0d 34       	add    eax,0x340d0000
  98:	00 03                	add    BYTE PTR [ebx],al
  9a:	08 3a                	or     BYTE PTR [edx],bh
  9c:	0b 3b                	or     edi,DWORD PTR [ebx]
  9e:	0b 39                	or     edi,DWORD PTR [ecx]
  a0:	0b 49 13             	or     ecx,DWORD PTR [ecx+0x13]
  a3:	3f                   	aas    
  a4:	19 88 01 05 02 18    	sbb    DWORD PTR [eax+0x18020501],ecx
  aa:	00 00                	add    BYTE PTR [eax],al
  ac:	0e                   	push   cs
  ad:	2e 01 3f             	add    DWORD PTR cs:[edi],edi
  b0:	19 03                	sbb    DWORD PTR [ebx],eax
  b2:	08 3a                	or     BYTE PTR [edx],bh
  b4:	0b 3b                	or     edi,DWORD PTR [ebx]
  b6:	0b 39                	or     edi,DWORD PTR [ecx]
  b8:	0b 11                	or     edx,DWORD PTR [ecx]
  ba:	01 12                	add    DWORD PTR [edx],edx
  bc:	06                   	push   es
  bd:	40                   	inc    eax
  be:	18 96 42 19 00 00    	sbb    BYTE PTR [esi+0x1942],dl
  c4:	0f 34                	sysenter 
  c6:	00 03                	add    BYTE PTR [ebx],al
  c8:	08 3a                	or     BYTE PTR [edx],bh
  ca:	0b 3b                	or     edi,DWORD PTR [ebx]
  cc:	0b 39                	or     edi,DWORD PTR [ecx]
  ce:	0b 49 13             	or     ecx,DWORD PTR [ecx+0x13]
  d1:	02 18                	add    bl,BYTE PTR [eax]
  d3:	00 00                	add    BYTE PTR [eax],al
	...

000000d6 <.debug_abbrev>:
  d6:	01 11                	add    DWORD PTR [ecx],edx
  d8:	01 25 08 13 0b 03    	add    DWORD PTR ds:0x30b1308,esp
  de:	08 1b                	or     BYTE PTR [ebx],bl
  e0:	08 11                	or     BYTE PTR [ecx],dl
  e2:	01 12                	add    DWORD PTR [edx],edx
  e4:	06                   	push   es
  e5:	10 17                	adc    BYTE PTR [edi],dl
  e7:	00 00                	add    BYTE PTR [eax],al
  e9:	02 24 00             	add    ah,BYTE PTR [eax+eax*1]
  ec:	0b 0b                	or     ecx,DWORD PTR [ebx]
  ee:	3e 0b 03             	or     eax,DWORD PTR ds:[ebx]
  f1:	08 00                	or     BYTE PTR [eax],al
  f3:	00 03                	add    BYTE PTR [ebx],al
  f5:	26 00 49 13          	add    BYTE PTR es:[ecx+0x13],cl
  f9:	00 00                	add    BYTE PTR [eax],al
  fb:	04 16                	add    al,0x16
  fd:	00 03                	add    BYTE PTR [ebx],al
  ff:	08 3a                	or     BYTE PTR [edx],bh
 101:	0b 3b                	or     edi,DWORD PTR [ebx]
 103:	0b 39                	or     edi,DWORD PTR [ecx]
 105:	0b 49 13             	or     ecx,DWORD PTR [ecx+0x13]
 108:	00 00                	add    BYTE PTR [eax],al
 10a:	05 04 01 3e 0b       	add    eax,0xb3e0104
 10f:	0b 0b                	or     ecx,DWORD PTR [ebx]
 111:	49                   	dec    ecx
 112:	13 3a                	adc    edi,DWORD PTR [edx]
 114:	0b 3b                	or     edi,DWORD PTR [ebx]
 116:	0b 39                	or     edi,DWORD PTR [ecx]
 118:	0b 01                	or     eax,DWORD PTR [ecx]
 11a:	13 00                	adc    eax,DWORD PTR [eax]
 11c:	00 06                	add    BYTE PTR [esi],al
 11e:	28 00                	sub    BYTE PTR [eax],al
 120:	03 08                	add    ecx,DWORD PTR [eax]
 122:	1c 0b                	sbb    al,0xb
 124:	00 00                	add    BYTE PTR [eax],al
 126:	07                   	pop    es
 127:	0f 00 0b             	str    WORD PTR [ebx]
 12a:	0b 49 13             	or     ecx,DWORD PTR [ecx+0x13]
 12d:	00 00                	add    BYTE PTR [eax],al
 12f:	08 34 00             	or     BYTE PTR [eax+eax*1],dh
 132:	03 08                	add    ecx,DWORD PTR [eax]
 134:	3a 0b                	cmp    cl,BYTE PTR [ebx]
 136:	3b 0b                	cmp    ecx,DWORD PTR [ebx]
 138:	39 0b                	cmp    DWORD PTR [ebx],ecx
 13a:	49                   	dec    ecx
 13b:	13 3f                	adc    edi,DWORD PTR [edi]
 13d:	19 02                	sbb    DWORD PTR [edx],eax
 13f:	18 00                	sbb    BYTE PTR [eax],al
 141:	00 09                	add    BYTE PTR [ecx],cl
 143:	2e 01 3f             	add    DWORD PTR cs:[edi],edi
 146:	19 03                	sbb    DWORD PTR [ebx],eax
 148:	08 3a                	or     BYTE PTR [edx],bh
 14a:	0b 3b                	or     edi,DWORD PTR [ebx]
 14c:	0b 39                	or     edi,DWORD PTR [ecx]
 14e:	0b 11                	or     edx,DWORD PTR [ecx]
 150:	01 12                	add    DWORD PTR [edx],edx
 152:	06                   	push   es
 153:	40                   	inc    eax
 154:	18 96 42 19 01 13    	sbb    BYTE PTR [esi+0x13011942],dl
 15a:	00 00                	add    BYTE PTR [eax],al
 15c:	0a 0b                	or     cl,BYTE PTR [ebx]
 15e:	01 11                	add    DWORD PTR [ecx],edx
 160:	01 12                	add    DWORD PTR [edx],edx
 162:	06                   	push   es
 163:	00 00                	add    BYTE PTR [eax],al
 165:	0b 34 00             	or     esi,DWORD PTR [eax+eax*1]
 168:	03 08                	add    ecx,DWORD PTR [eax]
 16a:	3a 0b                	cmp    cl,BYTE PTR [ebx]
 16c:	3b 0b                	cmp    ecx,DWORD PTR [ebx]
 16e:	39 0b                	cmp    DWORD PTR [ebx],ecx
 170:	49                   	dec    ecx
 171:	13 02                	adc    eax,DWORD PTR [edx]
 173:	18 00                	sbb    BYTE PTR [eax],al
 175:	00 0c 2e             	add    BYTE PTR [esi+ebp*1],cl
 178:	01 3f                	add    DWORD PTR [edi],edi
 17a:	19 03                	sbb    DWORD PTR [ebx],eax
 17c:	08 3a                	or     BYTE PTR [edx],bh
 17e:	0b 3b                	or     edi,DWORD PTR [ebx]
 180:	0b 39                	or     edi,DWORD PTR [ecx]
 182:	0b 27                	or     esp,DWORD PTR [edi]
 184:	19 49 13             	sbb    DWORD PTR [ecx+0x13],ecx
 187:	11 01                	adc    DWORD PTR [ecx],eax
 189:	12 06                	adc    al,BYTE PTR [esi]
 18b:	40                   	inc    eax
 18c:	18 96 42 19 01 13    	sbb    BYTE PTR [esi+0x13011942],dl
 192:	00 00                	add    BYTE PTR [eax],al
 194:	0d 05 00 03 08       	or     eax,0x8030005
 199:	3a 0b                	cmp    cl,BYTE PTR [ebx]
 19b:	3b 0b                	cmp    ecx,DWORD PTR [ebx]
 19d:	39 0b                	cmp    DWORD PTR [ebx],ecx
 19f:	49                   	dec    ecx
 1a0:	13 02                	adc    eax,DWORD PTR [edx]
 1a2:	18 00                	sbb    BYTE PTR [eax],al
 1a4:	00 0e                	add    BYTE PTR [esi],cl
 1a6:	2e 00 3f             	add    BYTE PTR cs:[edi],bh
 1a9:	19 03                	sbb    DWORD PTR [ebx],eax
 1ab:	08 3a                	or     BYTE PTR [edx],bh
 1ad:	0b 3b                	or     edi,DWORD PTR [ebx]
 1af:	0b 39                	or     edi,DWORD PTR [ecx]
 1b1:	0b 27                	or     esp,DWORD PTR [edi]
 1b3:	19 11                	sbb    DWORD PTR [ecx],edx
 1b5:	01 12                	add    DWORD PTR [edx],edx
 1b7:	06                   	push   es
 1b8:	40                   	inc    eax
 1b9:	18 96 42 19 00 00    	sbb    BYTE PTR [esi+0x1942],dl
 1bf:	0f 2e 01             	ucomiss xmm0,DWORD PTR [ecx]
 1c2:	3f                   	aas    
 1c3:	19 03                	sbb    DWORD PTR [ebx],eax
 1c5:	08 3a                	or     BYTE PTR [edx],bh
 1c7:	0b 3b                	or     edi,DWORD PTR [ebx]
 1c9:	0b 39                	or     edi,DWORD PTR [ecx]
 1cb:	0b 27                	or     esp,DWORD PTR [edi]
 1cd:	19 49 13             	sbb    DWORD PTR [ecx+0x13],ecx
 1d0:	11 01                	adc    DWORD PTR [ecx],eax
 1d2:	12 06                	adc    al,BYTE PTR [esi]
 1d4:	40                   	inc    eax
 1d5:	18 97 42 19 01 13    	sbb    BYTE PTR [edi+0x13011942],dl
 1db:	00 00                	add    BYTE PTR [eax],al
 1dd:	10 2e                	adc    BYTE PTR [esi],ch
 1df:	01 3f                	add    DWORD PTR [edi],edi
 1e1:	19 03                	sbb    DWORD PTR [ebx],eax
 1e3:	08 3a                	or     BYTE PTR [edx],bh
 1e5:	0b 3b                	or     edi,DWORD PTR [ebx]
 1e7:	0b 39                	or     edi,DWORD PTR [ecx]
 1e9:	0b 27                	or     esp,DWORD PTR [edi]
 1eb:	19 11                	sbb    DWORD PTR [ecx],edx
 1ed:	01 12                	add    DWORD PTR [edx],edx
 1ef:	06                   	push   es
 1f0:	40                   	inc    eax
 1f1:	18 96 42 19 01 13    	sbb    BYTE PTR [esi+0x13011942],dl
 1f7:	00 00                	add    BYTE PTR [eax],al
 1f9:	11 2e                	adc    DWORD PTR [esi],ebp
 1fb:	01 3f                	add    DWORD PTR [edi],edi
 1fd:	19 03                	sbb    DWORD PTR [ebx],eax
 1ff:	08 3a                	or     BYTE PTR [edx],bh
 201:	0b 3b                	or     edi,DWORD PTR [ebx]
 203:	0b 39                	or     edi,DWORD PTR [ecx]
 205:	0b 49 13             	or     ecx,DWORD PTR [ecx+0x13]
 208:	11 01                	adc    DWORD PTR [ecx],eax
 20a:	12 06                	adc    al,BYTE PTR [esi]
 20c:	40                   	inc    eax
 20d:	18 96 42 19 01 13    	sbb    BYTE PTR [esi+0x13011942],dl
 213:	00 00                	add    BYTE PTR [eax],al
 215:	12 2e                	adc    ch,BYTE PTR [esi]
 217:	01 3f                	add    DWORD PTR [edi],edi
 219:	19 03                	sbb    DWORD PTR [ebx],eax
 21b:	08 3a                	or     BYTE PTR [edx],bh
 21d:	0b 3b                	or     edi,DWORD PTR [ebx]
 21f:	0b 39                	or     edi,DWORD PTR [ecx]
 221:	0b 27                	or     esp,DWORD PTR [edi]
 223:	19 49 13             	sbb    DWORD PTR [ecx+0x13],ecx
 226:	11 01                	adc    DWORD PTR [ecx],eax
 228:	12 06                	adc    al,BYTE PTR [esi]
 22a:	40                   	inc    eax
 22b:	18 97 42 19 00 00    	sbb    BYTE PTR [edi+0x1942],dl
	...

00000232 <.debug_abbrev>:
 232:	01 11                	add    DWORD PTR [ecx],edx
 234:	01 25 08 13 0b 03    	add    DWORD PTR ds:0x30b1308,esp
 23a:	08 1b                	or     BYTE PTR [ebx],bl
 23c:	08 11                	or     BYTE PTR [ecx],dl
 23e:	01 12                	add    DWORD PTR [edx],edx
 240:	06                   	push   es
 241:	10 17                	adc    BYTE PTR [edi],dl
 243:	00 00                	add    BYTE PTR [eax],al
 245:	02 24 00             	add    ah,BYTE PTR [eax+eax*1]
 248:	0b 0b                	or     ecx,DWORD PTR [ebx]
 24a:	3e 0b 03             	or     eax,DWORD PTR ds:[ebx]
 24d:	08 00                	or     BYTE PTR [eax],al
 24f:	00 03                	add    BYTE PTR [ebx],al
 251:	16                   	push   ss
 252:	00 03                	add    BYTE PTR [ebx],al
 254:	08 3a                	or     BYTE PTR [edx],bh
 256:	0b 3b                	or     edi,DWORD PTR [ebx]
 258:	0b 39                	or     edi,DWORD PTR [ecx]
 25a:	0b 49 13             	or     ecx,DWORD PTR [ecx+0x13]
 25d:	00 00                	add    BYTE PTR [eax],al
 25f:	04 2e                	add    al,0x2e
 261:	01 3f                	add    DWORD PTR [edi],edi
 263:	19 03                	sbb    DWORD PTR [ebx],eax
 265:	08 3a                	or     BYTE PTR [edx],bh
 267:	0b 3b                	or     edi,DWORD PTR [ebx]
 269:	0b 39                	or     edi,DWORD PTR [ecx]
 26b:	0b 27                	or     esp,DWORD PTR [edi]
 26d:	19 11                	sbb    DWORD PTR [ecx],edx
 26f:	01 12                	add    DWORD PTR [edx],edx
 271:	06                   	push   es
 272:	40                   	inc    eax
 273:	18 97 42 19 01 13    	sbb    BYTE PTR [edi+0x13011942],dl
 279:	00 00                	add    BYTE PTR [eax],al
 27b:	05 05 00 03 08       	add    eax,0x8030005
 280:	3a 0b                	cmp    cl,BYTE PTR [ebx]
 282:	3b 0b                	cmp    ecx,DWORD PTR [ebx]
 284:	39 0b                	cmp    DWORD PTR [ebx],ecx
 286:	49                   	dec    ecx
 287:	13 02                	adc    eax,DWORD PTR [edx]
 289:	18 00                	sbb    BYTE PTR [eax],al
 28b:	00 06                	add    BYTE PTR [esi],al
 28d:	2e 01 3f             	add    DWORD PTR cs:[edi],edi
 290:	19 03                	sbb    DWORD PTR [ebx],eax
 292:	08 3a                	or     BYTE PTR [edx],bh
 294:	0b 3b                	or     edi,DWORD PTR [ebx]
 296:	0b 39                	or     edi,DWORD PTR [ecx]
 298:	0b 27                	or     esp,DWORD PTR [edi]
 29a:	19 49 13             	sbb    DWORD PTR [ecx+0x13],ecx
 29d:	11 01                	adc    DWORD PTR [ecx],eax
 29f:	12 06                	adc    al,BYTE PTR [esi]
 2a1:	40                   	inc    eax
 2a2:	18 97 42 19 01 13    	sbb    BYTE PTR [edi+0x13011942],dl
 2a8:	00 00                	add    BYTE PTR [eax],al
 2aa:	07                   	pop    es
 2ab:	34 00                	xor    al,0x0
 2ad:	03 08                	add    ecx,DWORD PTR [eax]
 2af:	3a 0b                	cmp    cl,BYTE PTR [ebx]
 2b1:	3b 0b                	cmp    ecx,DWORD PTR [ebx]
 2b3:	39 0b                	cmp    DWORD PTR [ebx],ecx
 2b5:	49                   	dec    ecx
 2b6:	13 02                	adc    eax,DWORD PTR [edx]
 2b8:	18 00                	sbb    BYTE PTR [eax],al
 2ba:	00 08                	add    BYTE PTR [eax],cl
 2bc:	2e 01 3f             	add    DWORD PTR cs:[edi],edi
 2bf:	19 03                	sbb    DWORD PTR [ebx],eax
 2c1:	08 3a                	or     BYTE PTR [edx],bh
 2c3:	0b 3b                	or     edi,DWORD PTR [ebx]
 2c5:	0b 39                	or     edi,DWORD PTR [ecx]
 2c7:	0b 27                	or     esp,DWORD PTR [edi]
 2c9:	19 49 13             	sbb    DWORD PTR [ecx+0x13],ecx
 2cc:	11 01                	adc    DWORD PTR [ecx],eax
 2ce:	12 06                	adc    al,BYTE PTR [esi]
 2d0:	40                   	inc    eax
 2d1:	18 97 42 19 00 00    	sbb    BYTE PTR [edi+0x1942],dl
	...

000002d8 <.debug_abbrev>:
 2d8:	01 11                	add    DWORD PTR [ecx],edx
 2da:	01 25 08 13 0b 03    	add    DWORD PTR ds:0x30b1308,esp
 2e0:	08 1b                	or     BYTE PTR [ebx],bl
 2e2:	08 11                	or     BYTE PTR [ecx],dl
 2e4:	01 12                	add    DWORD PTR [edx],edx
 2e6:	06                   	push   es
 2e7:	10 17                	adc    BYTE PTR [edi],dl
 2e9:	00 00                	add    BYTE PTR [eax],al
 2eb:	02 24 00             	add    ah,BYTE PTR [eax+eax*1]
 2ee:	0b 0b                	or     ecx,DWORD PTR [ebx]
 2f0:	3e 0b 03             	or     eax,DWORD PTR ds:[ebx]
 2f3:	08 00                	or     BYTE PTR [eax],al
 2f5:	00 03                	add    BYTE PTR [ebx],al
 2f7:	16                   	push   ss
 2f8:	00 03                	add    BYTE PTR [ebx],al
 2fa:	08 3a                	or     BYTE PTR [edx],bh
 2fc:	0b 3b                	or     edi,DWORD PTR [ebx]
 2fe:	0b 39                	or     edi,DWORD PTR [ecx]
 300:	0b 49 13             	or     ecx,DWORD PTR [ecx+0x13]
 303:	00 00                	add    BYTE PTR [eax],al
 305:	04 2e                	add    al,0x2e
 307:	01 3f                	add    DWORD PTR [edi],edi
 309:	19 03                	sbb    DWORD PTR [ebx],eax
 30b:	08 3a                	or     BYTE PTR [edx],bh
 30d:	0b 3b                	or     edi,DWORD PTR [ebx]
 30f:	0b 39                	or     edi,DWORD PTR [ecx]
 311:	0b 27                	or     esp,DWORD PTR [edi]
 313:	19 49 13             	sbb    DWORD PTR [ecx+0x13],ecx
 316:	11 01                	adc    DWORD PTR [ecx],eax
 318:	12 06                	adc    al,BYTE PTR [esi]
 31a:	40                   	inc    eax
 31b:	18 97 42 19 01 13    	sbb    BYTE PTR [edi+0x13011942],dl
 321:	00 00                	add    BYTE PTR [eax],al
 323:	05 05 00 03 08       	add    eax,0x8030005
 328:	3a 0b                	cmp    cl,BYTE PTR [ebx]
 32a:	3b 0b                	cmp    ecx,DWORD PTR [ebx]
 32c:	39 0b                	cmp    DWORD PTR [ebx],ecx
 32e:	49                   	dec    ecx
 32f:	13 02                	adc    eax,DWORD PTR [edx]
 331:	18 00                	sbb    BYTE PTR [eax],al
 333:	00 06                	add    BYTE PTR [esi],al
 335:	34 00                	xor    al,0x0
 337:	03 08                	add    ecx,DWORD PTR [eax]
 339:	3a 0b                	cmp    cl,BYTE PTR [ebx]
 33b:	3b 0b                	cmp    ecx,DWORD PTR [ebx]
 33d:	39 0b                	cmp    DWORD PTR [ebx],ecx
 33f:	49                   	dec    ecx
 340:	13 02                	adc    eax,DWORD PTR [edx]
 342:	18 00                	sbb    BYTE PTR [eax],al
 344:	00 07                	add    BYTE PTR [edi],al
 346:	0f 00 0b             	str    WORD PTR [ebx]
 349:	0b 00                	or     eax,DWORD PTR [eax]
 34b:	00 08                	add    BYTE PTR [eax],cl
 34d:	26 00 49 13          	add    BYTE PTR es:[ecx+0x13],cl
 351:	00 00                	add    BYTE PTR [eax],al
 353:	09 0f                	or     DWORD PTR [edi],ecx
 355:	00 0b                	add    BYTE PTR [ebx],cl
 357:	0b 49 13             	or     ecx,DWORD PTR [ecx+0x13]
 35a:	00 00                	add    BYTE PTR [eax],al
 35c:	0a 26                	or     ah,BYTE PTR [esi]
 35e:	00 00                	add    BYTE PTR [eax],al
	...

00000362 <.debug_abbrev>:
 362:	01 11                	add    DWORD PTR [ecx],edx
 364:	01 25 08 13 0b 03    	add    DWORD PTR ds:0x30b1308,esp
 36a:	08 1b                	or     BYTE PTR [ebx],bl
 36c:	08 11                	or     BYTE PTR [ecx],dl
 36e:	01 12                	add    DWORD PTR [edx],edx
 370:	06                   	push   es
 371:	10 17                	adc    BYTE PTR [edi],dl
 373:	00 00                	add    BYTE PTR [eax],al
 375:	02 24 00             	add    ah,BYTE PTR [eax+eax*1]
 378:	0b 0b                	or     ecx,DWORD PTR [ebx]
 37a:	3e 0b 03             	or     eax,DWORD PTR ds:[ebx]
 37d:	08 00                	or     BYTE PTR [eax],al
 37f:	00 03                	add    BYTE PTR [ebx],al
 381:	16                   	push   ss
 382:	00 03                	add    BYTE PTR [ebx],al
 384:	08 3a                	or     BYTE PTR [edx],bh
 386:	0b 3b                	or     edi,DWORD PTR [ebx]
 388:	0b 39                	or     edi,DWORD PTR [ecx]
 38a:	0b 49 13             	or     ecx,DWORD PTR [ecx+0x13]
 38d:	00 00                	add    BYTE PTR [eax],al
 38f:	04 26                	add    al,0x26
 391:	00 49 13             	add    BYTE PTR [ecx+0x13],cl
 394:	00 00                	add    BYTE PTR [eax],al
 396:	05 0f 00 0b 0b       	add    eax,0xb0b000f
 39b:	49                   	dec    ecx
 39c:	13 00                	adc    eax,DWORD PTR [eax]
 39e:	00 06                	add    BYTE PTR [esi],al
 3a0:	2e 01 3f             	add    DWORD PTR cs:[edi],edi
 3a3:	19 03                	sbb    DWORD PTR [ebx],eax
 3a5:	08 3a                	or     BYTE PTR [edx],bh
 3a7:	0b 3b                	or     edi,DWORD PTR [ebx]
 3a9:	0b 39                	or     edi,DWORD PTR [ecx]
 3ab:	0b 27                	or     esp,DWORD PTR [edi]
 3ad:	19 49 13             	sbb    DWORD PTR [ecx+0x13],ecx
 3b0:	11 01                	adc    DWORD PTR [ecx],eax
 3b2:	12 06                	adc    al,BYTE PTR [esi]
 3b4:	40                   	inc    eax
 3b5:	18 97 42 19 01 13    	sbb    BYTE PTR [edi+0x13011942],dl
 3bb:	00 00                	add    BYTE PTR [eax],al
 3bd:	07                   	pop    es
 3be:	05 00 03 08 3a       	add    eax,0x3a080300
 3c3:	0b 3b                	or     edi,DWORD PTR [ebx]
 3c5:	0b 39                	or     edi,DWORD PTR [ecx]
 3c7:	0b 49 13             	or     ecx,DWORD PTR [ecx+0x13]
 3ca:	02 18                	add    bl,BYTE PTR [eax]
 3cc:	00 00                	add    BYTE PTR [eax],al
 3ce:	08 34 00             	or     BYTE PTR [eax+eax*1],dh
 3d1:	03 08                	add    ecx,DWORD PTR [eax]
 3d3:	3a 0b                	cmp    cl,BYTE PTR [ebx]
 3d5:	3b 0b                	cmp    ecx,DWORD PTR [ebx]
 3d7:	39 0b                	cmp    DWORD PTR [ebx],ecx
 3d9:	49                   	dec    ecx
 3da:	13 02                	adc    eax,DWORD PTR [edx]
 3dc:	18 00                	sbb    BYTE PTR [eax],al
 3de:	00 09                	add    BYTE PTR [ecx],cl
 3e0:	2e 01 3f             	add    DWORD PTR cs:[edi],edi
 3e3:	19 03                	sbb    DWORD PTR [ebx],eax
 3e5:	08 3a                	or     BYTE PTR [edx],bh
 3e7:	0b 3b                	or     edi,DWORD PTR [ebx]
 3e9:	0b 39                	or     edi,DWORD PTR [ecx]
 3eb:	0b 27                	or     esp,DWORD PTR [edi]
 3ed:	19 49 13             	sbb    DWORD PTR [ecx+0x13],ecx
 3f0:	11 01                	adc    DWORD PTR [ecx],eax
 3f2:	12 06                	adc    al,BYTE PTR [esi]
 3f4:	40                   	inc    eax
 3f5:	18 96 42 19 01 13    	sbb    BYTE PTR [esi+0x13011942],dl
 3fb:	00 00                	add    BYTE PTR [eax],al
 3fd:	0a 2e                	or     ch,BYTE PTR [esi]
 3ff:	01 3f                	add    DWORD PTR [edi],edi
 401:	19 03                	sbb    DWORD PTR [ebx],eax
 403:	08 3a                	or     BYTE PTR [edx],bh
 405:	0b 3b                	or     edi,DWORD PTR [ebx]
 407:	0b 39                	or     edi,DWORD PTR [ecx]
 409:	0b 27                	or     esp,DWORD PTR [edi]
 40b:	19 11                	sbb    DWORD PTR [ecx],edx
 40d:	01 12                	add    DWORD PTR [edx],edx
 40f:	06                   	push   es
 410:	40                   	inc    eax
 411:	18 97 42 19 01 13    	sbb    BYTE PTR [edi+0x13011942],dl
 417:	00 00                	add    BYTE PTR [eax],al
 419:	0b 2e                	or     ebp,DWORD PTR [esi]
 41b:	01 3f                	add    DWORD PTR [edi],edi
 41d:	19 03                	sbb    DWORD PTR [ebx],eax
 41f:	08 3a                	or     BYTE PTR [edx],bh
 421:	0b 3b                	or     edi,DWORD PTR [ebx]
 423:	0b 39                	or     edi,DWORD PTR [ecx]
 425:	0b 27                	or     esp,DWORD PTR [edi]
 427:	19 11                	sbb    DWORD PTR [ecx],edx
 429:	01 12                	add    DWORD PTR [edx],edx
 42b:	06                   	push   es
 42c:	40                   	inc    eax
 42d:	18 96 42 19 01 13    	sbb    BYTE PTR [esi+0x13011942],dl
 433:	00 00                	add    BYTE PTR [eax],al
 435:	0c 0f                	or     al,0xf
 437:	00 0b                	add    BYTE PTR [ebx],cl
 439:	0b 00                	or     eax,DWORD PTR [eax]
 43b:	00 0d 26 00 00 00    	add    BYTE PTR ds:0x26,cl
 441:	0e                   	push   cs
 442:	0b 01                	or     eax,DWORD PTR [ecx]
 444:	11 01                	adc    DWORD PTR [ecx],eax
 446:	12 06                	adc    al,BYTE PTR [esi]
 448:	00 00                	add    BYTE PTR [eax],al
 44a:	0f 2e 01             	ucomiss xmm0,DWORD PTR [ecx]
 44d:	3f                   	aas    
 44e:	19 03                	sbb    DWORD PTR [ebx],eax
 450:	08 3a                	or     BYTE PTR [edx],bh
 452:	0b 3b                	or     edi,DWORD PTR [ebx]
 454:	0b 39                	or     edi,DWORD PTR [ecx]
 456:	0b 27                	or     esp,DWORD PTR [edi]
 458:	19 49 13             	sbb    DWORD PTR [ecx+0x13],ecx
 45b:	11 01                	adc    DWORD PTR [ecx],eax
 45d:	12 06                	adc    al,BYTE PTR [esi]
 45f:	40                   	inc    eax
 460:	18 97 42 19 00 00    	sbb    BYTE PTR [edi+0x1942],dl
	...

00000467 <.debug_abbrev>:
 467:	01 11                	add    DWORD PTR [ecx],edx
 469:	01 25 08 13 0b 03    	add    DWORD PTR ds:0x30b1308,esp
 46f:	08 1b                	or     BYTE PTR [ebx],bl
 471:	08 11                	or     BYTE PTR [ecx],dl
 473:	01 12                	add    DWORD PTR [edx],edx
 475:	06                   	push   es
 476:	10 17                	adc    BYTE PTR [edi],dl
 478:	00 00                	add    BYTE PTR [eax],al
 47a:	02 24 00             	add    ah,BYTE PTR [eax+eax*1]
 47d:	0b 0b                	or     ecx,DWORD PTR [ebx]
 47f:	3e 0b 03             	or     eax,DWORD PTR ds:[ebx]
 482:	08 00                	or     BYTE PTR [eax],al
 484:	00 03                	add    BYTE PTR [ebx],al
 486:	16                   	push   ss
 487:	00 03                	add    BYTE PTR [ebx],al
 489:	08 3a                	or     BYTE PTR [edx],bh
 48b:	0b 3b                	or     edi,DWORD PTR [ebx]
 48d:	0b 39                	or     edi,DWORD PTR [ecx]
 48f:	0b 49 13             	or     ecx,DWORD PTR [ecx+0x13]
 492:	00 00                	add    BYTE PTR [eax],al
 494:	04 0f                	add    al,0xf
 496:	00 0b                	add    BYTE PTR [ebx],cl
 498:	0b 03                	or     eax,DWORD PTR [ebx]
 49a:	08 49 13             	or     BYTE PTR [ecx+0x13],cl
 49d:	00 00                	add    BYTE PTR [eax],al
 49f:	05 26 00 49 13       	add    eax,0x13490026
 4a4:	00 00                	add    BYTE PTR [eax],al
 4a6:	06                   	push   es
 4a7:	0f 00 0b             	str    WORD PTR [ebx]
 4aa:	0b 49 13             	or     ecx,DWORD PTR [ecx+0x13]
 4ad:	00 00                	add    BYTE PTR [eax],al
 4af:	07                   	pop    es
 4b0:	2e 01 3f             	add    DWORD PTR cs:[edi],edi
 4b3:	19 03                	sbb    DWORD PTR [ebx],eax
 4b5:	08 3a                	or     BYTE PTR [edx],bh
 4b7:	0b 3b                	or     edi,DWORD PTR [ebx]
 4b9:	05 39 0b 27 19       	add    eax,0x19270b39
 4be:	49                   	dec    ecx
 4bf:	13 11                	adc    edx,DWORD PTR [ecx]
 4c1:	01 12                	add    DWORD PTR [edx],edx
 4c3:	06                   	push   es
 4c4:	40                   	inc    eax
 4c5:	18 96 42 19 01 13    	sbb    BYTE PTR [esi+0x13011942],dl
 4cb:	00 00                	add    BYTE PTR [eax],al
 4cd:	08 05 00 03 08 3a    	or     BYTE PTR ds:0x3a080300,al
 4d3:	0b 3b                	or     edi,DWORD PTR [ebx]
 4d5:	05 39 0b 49 13       	add    eax,0x13490b39
 4da:	02 18                	add    bl,BYTE PTR [eax]
 4dc:	00 00                	add    BYTE PTR [eax],al
 4de:	09 18                	or     DWORD PTR [eax],ebx
 4e0:	00 00                	add    BYTE PTR [eax],al
 4e2:	00 0a                	add    BYTE PTR [edx],cl
 4e4:	34 00                	xor    al,0x0
 4e6:	03 08                	add    ecx,DWORD PTR [eax]
 4e8:	3a 0b                	cmp    cl,BYTE PTR [ebx]
 4ea:	3b 05 39 0b 49 13    	cmp    eax,DWORD PTR ds:0x13490b39
 4f0:	02 18                	add    bl,BYTE PTR [eax]
 4f2:	00 00                	add    BYTE PTR [eax],al
 4f4:	0b 01                	or     eax,DWORD PTR [ecx]
 4f6:	01 49 13             	add    DWORD PTR [ecx+0x13],ecx
 4f9:	01 13                	add    DWORD PTR [ebx],edx
 4fb:	00 00                	add    BYTE PTR [eax],al
 4fd:	0c 21                	or     al,0x21
 4ff:	00 49 13             	add    BYTE PTR [ecx+0x13],cl
 502:	2f                   	das    
 503:	05 00 00 0d 2e       	add    eax,0x2e0d0000
 508:	01 3f                	add    DWORD PTR [edi],edi
 50a:	19 03                	sbb    DWORD PTR [ebx],eax
 50c:	08 3a                	or     BYTE PTR [edx],bh
 50e:	0b 3b                	or     edi,DWORD PTR [ebx]
 510:	0b 39                	or     edi,DWORD PTR [ecx]
 512:	0b 27                	or     esp,DWORD PTR [edi]
 514:	19 49 13             	sbb    DWORD PTR [ecx+0x13],ecx
 517:	11 01                	adc    DWORD PTR [ecx],eax
 519:	12 06                	adc    al,BYTE PTR [esi]
 51b:	40                   	inc    eax
 51c:	18 96 42 19 01 13    	sbb    BYTE PTR [esi+0x13011942],dl
 522:	00 00                	add    BYTE PTR [eax],al
 524:	0e                   	push   cs
 525:	05 00 03 08 3a       	add    eax,0x3a080300
 52a:	0b 3b                	or     edi,DWORD PTR [ebx]
 52c:	0b 39                	or     edi,DWORD PTR [ecx]
 52e:	0b 49 13             	or     ecx,DWORD PTR [ecx+0x13]
 531:	02 18                	add    bl,BYTE PTR [eax]
 533:	00 00                	add    BYTE PTR [eax],al
 535:	0f 34                	sysenter 
 537:	00 03                	add    BYTE PTR [ebx],al
 539:	08 3a                	or     BYTE PTR [edx],bh
 53b:	0b 3b                	or     edi,DWORD PTR [ebx]
 53d:	0b 39                	or     edi,DWORD PTR [ecx]
 53f:	0b 49 13             	or     ecx,DWORD PTR [ecx+0x13]
 542:	02 18                	add    bl,BYTE PTR [eax]
 544:	00 00                	add    BYTE PTR [eax],al
 546:	10 34 00             	adc    BYTE PTR [eax+eax*1],dh
 549:	03 0e                	add    ecx,DWORD PTR [esi]
 54b:	3a 0b                	cmp    cl,BYTE PTR [ebx]
 54d:	3b 0b                	cmp    ecx,DWORD PTR [ebx]
 54f:	39 0b                	cmp    DWORD PTR [ebx],ecx
 551:	49                   	dec    ecx
 552:	13 02                	adc    eax,DWORD PTR [edx]
 554:	18 00                	sbb    BYTE PTR [eax],al
 556:	00 11                	add    BYTE PTR [ecx],dl
 558:	0a 00                	or     al,BYTE PTR [eax]
 55a:	03 08                	add    ecx,DWORD PTR [eax]
 55c:	3a 0b                	cmp    cl,BYTE PTR [ebx]
 55e:	3b 0b                	cmp    ecx,DWORD PTR [ebx]
 560:	39 0b                	cmp    DWORD PTR [ebx],ecx
 562:	11 01                	adc    DWORD PTR [ecx],eax
 564:	00 00                	add    BYTE PTR [eax],al
 566:	12 0b                	adc    cl,BYTE PTR [ebx]
 568:	01 11                	add    DWORD PTR [ecx],edx
 56a:	01 12                	add    DWORD PTR [edx],edx
 56c:	06                   	push   es
 56d:	01 13                	add    DWORD PTR [ebx],edx
 56f:	00 00                	add    BYTE PTR [eax],al
 571:	13 0b                	adc    ecx,DWORD PTR [ebx]
 573:	01 11                	add    DWORD PTR [ecx],edx
 575:	01 12                	add    DWORD PTR [edx],edx
 577:	06                   	push   es
 578:	00 00                	add    BYTE PTR [eax],al
 57a:	14 2e                	adc    al,0x2e
 57c:	01 03                	add    DWORD PTR [ebx],eax
 57e:	08 3a                	or     BYTE PTR [edx],bh
 580:	0b 3b                	or     edi,DWORD PTR [ebx]
 582:	0b 39                	or     edi,DWORD PTR [ecx]
 584:	0b 27                	or     esp,DWORD PTR [edi]
 586:	19 49 13             	sbb    DWORD PTR [ecx+0x13],ecx
 589:	11 01                	adc    DWORD PTR [ecx],eax
 58b:	12 06                	adc    al,BYTE PTR [esi]
 58d:	40                   	inc    eax
 58e:	18 97 42 19 01 13    	sbb    BYTE PTR [edi+0x13011942],dl
 594:	00 00                	add    BYTE PTR [eax],al
 596:	15 05 00 03 0e       	adc    eax,0xe030005
 59b:	3a 0b                	cmp    cl,BYTE PTR [ebx]
 59d:	3b 0b                	cmp    ecx,DWORD PTR [ebx]
 59f:	39 0b                	cmp    DWORD PTR [ebx],ecx
 5a1:	49                   	dec    ecx
 5a2:	13 02                	adc    eax,DWORD PTR [edx]
 5a4:	18 00                	sbb    BYTE PTR [eax],al
 5a6:	00 16                	add    BYTE PTR [esi],dl
 5a8:	21 00                	and    DWORD PTR [eax],eax
 5aa:	49                   	dec    ecx
 5ab:	13 2f                	adc    ebp,DWORD PTR [edi]
 5ad:	0b 00                	or     eax,DWORD PTR [eax]
 5af:	00 17                	add    BYTE PTR [edi],dl
 5b1:	2e 01 03             	add    DWORD PTR cs:[ebx],eax
 5b4:	08 3a                	or     BYTE PTR [edx],bh
 5b6:	0b 3b                	or     edi,DWORD PTR [ebx]
 5b8:	0b 39                	or     edi,DWORD PTR [ecx]
 5ba:	0b 27                	or     esp,DWORD PTR [edi]
 5bc:	19 49 13             	sbb    DWORD PTR [ecx+0x13],ecx
 5bf:	11 01                	adc    DWORD PTR [ecx],eax
 5c1:	12 06                	adc    al,BYTE PTR [esi]
 5c3:	40                   	inc    eax
 5c4:	18 96 42 19 01 13    	sbb    BYTE PTR [esi+0x13011942],dl
 5ca:	00 00                	add    BYTE PTR [eax],al
 5cc:	18 2e                	sbb    BYTE PTR [esi],ch
 5ce:	01 03                	add    DWORD PTR [ebx],eax
 5d0:	08 3a                	or     BYTE PTR [edx],bh
 5d2:	0b 3b                	or     edi,DWORD PTR [ebx]
 5d4:	0b 39                	or     edi,DWORD PTR [ecx]
 5d6:	0b 27                	or     esp,DWORD PTR [edi]
 5d8:	19 49 13             	sbb    DWORD PTR [ecx+0x13],ecx
 5db:	11 01                	adc    DWORD PTR [ecx],eax
 5dd:	12 06                	adc    al,BYTE PTR [esi]
 5df:	40                   	inc    eax
 5e0:	18 97 42 19 00 00    	sbb    BYTE PTR [edi+0x1942],dl
	...

000005e7 <.debug_abbrev>:
 5e7:	01 11                	add    DWORD PTR [ecx],edx
 5e9:	01 25 08 13 0b 03    	add    DWORD PTR ds:0x30b1308,esp
 5ef:	08 1b                	or     BYTE PTR [ebx],bl
 5f1:	08 11                	or     BYTE PTR [ecx],dl
 5f3:	01 12                	add    DWORD PTR [edx],edx
 5f5:	06                   	push   es
 5f6:	10 17                	adc    BYTE PTR [edi],dl
 5f8:	00 00                	add    BYTE PTR [eax],al
 5fa:	02 24 00             	add    ah,BYTE PTR [eax+eax*1]
 5fd:	0b 0b                	or     ecx,DWORD PTR [ebx]
 5ff:	3e 0b 03             	or     eax,DWORD PTR ds:[ebx]
 602:	08 00                	or     BYTE PTR [eax],al
 604:	00 03                	add    BYTE PTR [ebx],al
 606:	16                   	push   ss
 607:	00 03                	add    BYTE PTR [ebx],al
 609:	08 3a                	or     BYTE PTR [edx],bh
 60b:	0b 3b                	or     edi,DWORD PTR [ebx]
 60d:	0b 39                	or     edi,DWORD PTR [ecx]
 60f:	0b 49 13             	or     ecx,DWORD PTR [ecx+0x13]
 612:	00 00                	add    BYTE PTR [eax],al
 614:	04 13                	add    al,0x13
 616:	01 03                	add    DWORD PTR [ebx],eax
 618:	08 0b                	or     BYTE PTR [ebx],cl
 61a:	0b 3a                	or     edi,DWORD PTR [edx]
 61c:	0b 3b                	or     edi,DWORD PTR [ebx]
 61e:	0b 39                	or     edi,DWORD PTR [ecx]
 620:	0b 01                	or     eax,DWORD PTR [ecx]
 622:	13 00                	adc    eax,DWORD PTR [eax]
 624:	00 05 0d 00 03 08    	add    BYTE PTR ds:0x803000d,al
 62a:	3a 0b                	cmp    cl,BYTE PTR [ebx]
 62c:	3b 0b                	cmp    ecx,DWORD PTR [ebx]
 62e:	39 0b                	cmp    DWORD PTR [ebx],ecx
 630:	49                   	dec    ecx
 631:	13 38                	adc    edi,DWORD PTR [eax]
 633:	0b 00                	or     eax,DWORD PTR [eax]
 635:	00 06                	add    BYTE PTR [esi],al
 637:	01 01                	add    DWORD PTR [ecx],eax
 639:	49                   	dec    ecx
 63a:	13 01                	adc    eax,DWORD PTR [ecx]
 63c:	13 00                	adc    eax,DWORD PTR [eax]
 63e:	00 07                	add    BYTE PTR [edi],al
 640:	21 00                	and    DWORD PTR [eax],eax
 642:	49                   	dec    ecx
 643:	13 2f                	adc    ebp,DWORD PTR [edi]
 645:	0b 00                	or     eax,DWORD PTR [eax]
 647:	00 08                	add    BYTE PTR [eax],cl
 649:	34 00                	xor    al,0x0
 64b:	03 08                	add    ecx,DWORD PTR [eax]
 64d:	3a 0b                	cmp    cl,BYTE PTR [ebx]
 64f:	3b 0b                	cmp    ecx,DWORD PTR [ebx]
 651:	39 0b                	cmp    DWORD PTR [ebx],ecx
 653:	49                   	dec    ecx
 654:	13 3f                	adc    edi,DWORD PTR [edi]
 656:	19 3c 19             	sbb    DWORD PTR [ecx+ebx*1],edi
 659:	00 00                	add    BYTE PTR [eax],al
 65b:	09 34 00             	or     DWORD PTR [eax+eax*1],esi
 65e:	47                   	inc    edi
 65f:	13 3a                	adc    edi,DWORD PTR [edx]
 661:	0b 3b                	or     edi,DWORD PTR [ebx]
 663:	0b 39                	or     edi,DWORD PTR [ecx]
 665:	0b 02                	or     eax,DWORD PTR [edx]
 667:	18 00                	sbb    BYTE PTR [eax],al
 669:	00 0a                	add    BYTE PTR [edx],cl
 66b:	2e 00 3f             	add    BYTE PTR cs:[edi],bh
 66e:	19 03                	sbb    DWORD PTR [ebx],eax
 670:	08 3a                	or     BYTE PTR [edx],bh
 672:	0b 3b                	or     edi,DWORD PTR [ebx]
 674:	0b 39                	or     edi,DWORD PTR [ecx]
 676:	0b 11                	or     edx,DWORD PTR [ecx]
 678:	01 12                	add    DWORD PTR [edx],edx
 67a:	06                   	push   es
 67b:	40                   	inc    eax
 67c:	18 96 42 19 00 00    	sbb    BYTE PTR [esi+0x1942],dl
 682:	0b 2e                	or     ebp,DWORD PTR [esi]
 684:	01 3f                	add    DWORD PTR [edi],edi
 686:	19 03                	sbb    DWORD PTR [ebx],eax
 688:	08 3a                	or     BYTE PTR [edx],bh
 68a:	0b 3b                	or     edi,DWORD PTR [ebx]
 68c:	0b 39                	or     edi,DWORD PTR [ecx]
 68e:	0b 27                	or     esp,DWORD PTR [edi]
 690:	19 11                	sbb    DWORD PTR [ecx],edx
 692:	01 12                	add    DWORD PTR [edx],edx
 694:	06                   	push   es
 695:	40                   	inc    eax
 696:	18 97 42 19 01 13    	sbb    BYTE PTR [edi+0x13011942],dl
 69c:	00 00                	add    BYTE PTR [eax],al
 69e:	0c 05                	or     al,0x5
 6a0:	00 03                	add    BYTE PTR [ebx],al
 6a2:	08 3a                	or     BYTE PTR [edx],bh
 6a4:	0b 3b                	or     edi,DWORD PTR [ebx]
 6a6:	0b 39                	or     edi,DWORD PTR [ecx]
 6a8:	0b 49 13             	or     ecx,DWORD PTR [ecx+0x13]
 6ab:	02 18                	add    bl,BYTE PTR [eax]
 6ad:	00 00                	add    BYTE PTR [eax],al
 6af:	0d 34 00 03 08       	or     eax,0x8030034
 6b4:	3a 0b                	cmp    cl,BYTE PTR [ebx]
 6b6:	3b 0b                	cmp    ecx,DWORD PTR [ebx]
 6b8:	39 0b                	cmp    DWORD PTR [ebx],ecx
 6ba:	49                   	dec    ecx
 6bb:	13 02                	adc    eax,DWORD PTR [edx]
 6bd:	18 00                	sbb    BYTE PTR [eax],al
 6bf:	00 0e                	add    BYTE PTR [esi],cl
 6c1:	0f 00 0b             	str    WORD PTR [ebx]
 6c4:	0b 49 13             	or     ecx,DWORD PTR [ecx+0x13]
 6c7:	00 00                	add    BYTE PTR [eax],al
	...

000006ca <.debug_abbrev>:
 6ca:	01 11                	add    DWORD PTR [ecx],edx
 6cc:	01 25 08 13 0b 03    	add    DWORD PTR ds:0x30b1308,esp
 6d2:	08 1b                	or     BYTE PTR [ebx],bl
 6d4:	08 11                	or     BYTE PTR [ecx],dl
 6d6:	01 12                	add    DWORD PTR [edx],edx
 6d8:	06                   	push   es
 6d9:	10 17                	adc    BYTE PTR [edi],dl
 6db:	00 00                	add    BYTE PTR [eax],al
 6dd:	02 24 00             	add    ah,BYTE PTR [eax+eax*1]
 6e0:	0b 0b                	or     ecx,DWORD PTR [ebx]
 6e2:	3e 0b 03             	or     eax,DWORD PTR ds:[ebx]
 6e5:	08 00                	or     BYTE PTR [eax],al
 6e7:	00 03                	add    BYTE PTR [ebx],al
 6e9:	16                   	push   ss
 6ea:	00 03                	add    BYTE PTR [ebx],al
 6ec:	08 3a                	or     BYTE PTR [edx],bh
 6ee:	0b 3b                	or     edi,DWORD PTR [ebx]
 6f0:	0b 39                	or     edi,DWORD PTR [ecx]
 6f2:	0b 49 13             	or     ecx,DWORD PTR [ecx+0x13]
 6f5:	00 00                	add    BYTE PTR [eax],al
 6f7:	04 0f                	add    al,0xf
 6f9:	00 0b                	add    BYTE PTR [ebx],cl
 6fb:	0b 49 13             	or     ecx,DWORD PTR [ecx+0x13]
 6fe:	00 00                	add    BYTE PTR [eax],al
 700:	05 13 01 03 08       	add    eax,0x8030113
 705:	0b 0b                	or     ecx,DWORD PTR [ebx]
 707:	3a 0b                	cmp    cl,BYTE PTR [ebx]
 709:	3b 0b                	cmp    ecx,DWORD PTR [ebx]
 70b:	39 0b                	cmp    DWORD PTR [ebx],ecx
 70d:	01 13                	add    DWORD PTR [ebx],edx
 70f:	00 00                	add    BYTE PTR [eax],al
 711:	06                   	push   es
 712:	0d 00 03 08 3a       	or     eax,0x3a080300
 717:	0b 3b                	or     edi,DWORD PTR [ebx]
 719:	0b 39                	or     edi,DWORD PTR [ecx]
 71b:	0b 49 13             	or     ecx,DWORD PTR [ecx+0x13]
 71e:	38 0b                	cmp    BYTE PTR [ebx],cl
 720:	00 00                	add    BYTE PTR [eax],al
 722:	07                   	pop    es
 723:	15 01 27 19 01       	adc    eax,0x1192701
 728:	13 00                	adc    eax,DWORD PTR [eax]
 72a:	00 08                	add    BYTE PTR [eax],cl
 72c:	05 00 49 13 00       	add    eax,0x134900
 731:	00 09                	add    BYTE PTR [ecx],cl
 733:	01 01                	add    DWORD PTR [ecx],eax
 735:	49                   	dec    ecx
 736:	13 01                	adc    eax,DWORD PTR [ecx]
 738:	13 00                	adc    eax,DWORD PTR [eax]
 73a:	00 0a                	add    BYTE PTR [edx],cl
 73c:	21 00                	and    DWORD PTR [eax],eax
 73e:	49                   	dec    ecx
 73f:	13 2f                	adc    ebp,DWORD PTR [edi]
 741:	0b 00                	or     eax,DWORD PTR [eax]
 743:	00 0b                	add    BYTE PTR [ebx],cl
 745:	34 00                	xor    al,0x0
 747:	03 08                	add    ecx,DWORD PTR [eax]
 749:	3a 0b                	cmp    cl,BYTE PTR [ebx]
 74b:	3b 0b                	cmp    ecx,DWORD PTR [ebx]
 74d:	39 0b                	cmp    DWORD PTR [ebx],ecx
 74f:	49                   	dec    ecx
 750:	13 3f                	adc    edi,DWORD PTR [edi]
 752:	19 3c 19             	sbb    DWORD PTR [ecx+ebx*1],edi
 755:	00 00                	add    BYTE PTR [eax],al
 757:	0c 34                	or     al,0x34
 759:	00 47 13             	add    BYTE PTR [edi+0x13],al
 75c:	3a 0b                	cmp    cl,BYTE PTR [ebx]
 75e:	3b 0b                	cmp    ecx,DWORD PTR [ebx]
 760:	39 0b                	cmp    DWORD PTR [ebx],ecx
 762:	02 18                	add    bl,BYTE PTR [eax]
 764:	00 00                	add    BYTE PTR [eax],al
 766:	0d 34 00 03 08       	or     eax,0x8030034
 76b:	3a 0b                	cmp    cl,BYTE PTR [ebx]
 76d:	3b 0b                	cmp    ecx,DWORD PTR [ebx]
 76f:	39 0b                	cmp    DWORD PTR [ebx],ecx
 771:	49                   	dec    ecx
 772:	13 3f                	adc    edi,DWORD PTR [edi]
 774:	19 02                	sbb    DWORD PTR [edx],eax
 776:	18 00                	sbb    BYTE PTR [eax],al
 778:	00 0e                	add    BYTE PTR [esi],cl
 77a:	2e 01 3f             	add    DWORD PTR cs:[edi],edi
 77d:	19 03                	sbb    DWORD PTR [ebx],eax
 77f:	08 3a                	or     BYTE PTR [edx],bh
 781:	0b 3b                	or     edi,DWORD PTR [ebx]
 783:	0b 39                	or     edi,DWORD PTR [ecx]
 785:	0b 27                	or     esp,DWORD PTR [edi]
 787:	19 11                	sbb    DWORD PTR [ecx],edx
 789:	01 12                	add    DWORD PTR [edx],edx
 78b:	06                   	push   es
 78c:	40                   	inc    eax
 78d:	18 96 42 19 01 13    	sbb    BYTE PTR [esi+0x13011942],dl
 793:	00 00                	add    BYTE PTR [eax],al
 795:	0f 05                	syscall 
 797:	00 03                	add    BYTE PTR [ebx],al
 799:	08 3a                	or     BYTE PTR [edx],bh
 79b:	0b 3b                	or     edi,DWORD PTR [ebx]
 79d:	0b 39                	or     edi,DWORD PTR [ecx]
 79f:	0b 49 13             	or     ecx,DWORD PTR [ecx+0x13]
 7a2:	02 18                	add    bl,BYTE PTR [eax]
 7a4:	00 00                	add    BYTE PTR [eax],al
 7a6:	10 0b                	adc    BYTE PTR [ebx],cl
 7a8:	01 11                	add    DWORD PTR [ecx],edx
 7aa:	01 12                	add    DWORD PTR [edx],edx
 7ac:	06                   	push   es
 7ad:	00 00                	add    BYTE PTR [eax],al
 7af:	11 34 00             	adc    DWORD PTR [eax+eax*1],esi
 7b2:	03 0e                	add    ecx,DWORD PTR [esi]
 7b4:	3a 0b                	cmp    cl,BYTE PTR [ebx]
 7b6:	3b 0b                	cmp    ecx,DWORD PTR [ebx]
 7b8:	39 0b                	cmp    DWORD PTR [ebx],ecx
 7ba:	49                   	dec    ecx
 7bb:	13 02                	adc    eax,DWORD PTR [edx]
 7bd:	18 00                	sbb    BYTE PTR [eax],al
 7bf:	00 12                	add    BYTE PTR [edx],dl
 7c1:	2e 00 3f             	add    BYTE PTR cs:[edi],bh
 7c4:	19 03                	sbb    DWORD PTR [ebx],eax
 7c6:	08 3a                	or     BYTE PTR [edx],bh
 7c8:	0b 3b                	or     edi,DWORD PTR [ebx]
 7ca:	0b 39                	or     edi,DWORD PTR [ecx]
 7cc:	0b 11                	or     edx,DWORD PTR [ecx]
 7ce:	01 12                	add    DWORD PTR [edx],edx
 7d0:	06                   	push   es
 7d1:	40                   	inc    eax
 7d2:	18 96 42 19 00 00    	sbb    BYTE PTR [esi+0x1942],dl
 7d8:	13 2e                	adc    ebp,DWORD PTR [esi]
 7da:	01 3f                	add    DWORD PTR [edi],edi
 7dc:	19 03                	sbb    DWORD PTR [ebx],eax
 7de:	08 3a                	or     BYTE PTR [edx],bh
 7e0:	0b 3b                	or     edi,DWORD PTR [ebx]
 7e2:	0b 39                	or     edi,DWORD PTR [ecx]
 7e4:	0b 27                	or     esp,DWORD PTR [edi]
 7e6:	19 11                	sbb    DWORD PTR [ecx],edx
 7e8:	01 12                	add    DWORD PTR [edx],edx
 7ea:	06                   	push   es
 7eb:	40                   	inc    eax
 7ec:	18 97 42 19 01 13    	sbb    BYTE PTR [edi+0x13011942],dl
 7f2:	00 00                	add    BYTE PTR [eax],al
 7f4:	14 34                	adc    al,0x34
 7f6:	00 03                	add    BYTE PTR [ebx],al
 7f8:	08 3a                	or     BYTE PTR [edx],bh
 7fa:	0b 3b                	or     edi,DWORD PTR [ebx]
 7fc:	0b 39                	or     edi,DWORD PTR [ecx]
 7fe:	0b 49 13             	or     ecx,DWORD PTR [ecx+0x13]
 801:	02 18                	add    bl,BYTE PTR [eax]
 803:	00 00                	add    BYTE PTR [eax],al
 805:	15 2e 01 3f 19       	adc    eax,0x193f012e
 80a:	03 08                	add    ecx,DWORD PTR [eax]
 80c:	3a 0b                	cmp    cl,BYTE PTR [ebx]
 80e:	3b 0b                	cmp    ecx,DWORD PTR [ebx]
 810:	39 0b                	cmp    DWORD PTR [ebx],ecx
 812:	27                   	daa    
 813:	19 11                	sbb    DWORD PTR [ecx],edx
 815:	01 12                	add    DWORD PTR [edx],edx
 817:	06                   	push   es
 818:	40                   	inc    eax
 819:	18 96 42 19 00 00    	sbb    BYTE PTR [esi+0x1942],dl
 81f:	16                   	push   ss
 820:	05 00 03 0e 3a       	add    eax,0x3a0e0300
 825:	0b 3b                	or     edi,DWORD PTR [ebx]
 827:	0b 39                	or     edi,DWORD PTR [ecx]
 829:	0b 49 13             	or     ecx,DWORD PTR [ecx+0x13]
 82c:	02 18                	add    bl,BYTE PTR [eax]
 82e:	00 00                	add    BYTE PTR [eax],al
	...

00000831 <.debug_abbrev>:
 831:	01 11                	add    DWORD PTR [ecx],edx
 833:	01 25 08 13 0b 03    	add    DWORD PTR ds:0x30b1308,esp
 839:	08 1b                	or     BYTE PTR [ebx],bl
 83b:	08 11                	or     BYTE PTR [ecx],dl
 83d:	01 12                	add    DWORD PTR [edx],edx
 83f:	06                   	push   es
 840:	10 17                	adc    BYTE PTR [edi],dl
 842:	00 00                	add    BYTE PTR [eax],al
 844:	02 24 00             	add    ah,BYTE PTR [eax+eax*1]
 847:	0b 0b                	or     ecx,DWORD PTR [ebx]
 849:	3e 0b 03             	or     eax,DWORD PTR ds:[ebx]
 84c:	08 00                	or     BYTE PTR [eax],al
 84e:	00 03                	add    BYTE PTR [ebx],al
 850:	16                   	push   ss
 851:	00 03                	add    BYTE PTR [ebx],al
 853:	08 3a                	or     BYTE PTR [edx],bh
 855:	0b 3b                	or     edi,DWORD PTR [ebx]
 857:	0b 39                	or     edi,DWORD PTR [ecx]
 859:	0b 49 13             	or     ecx,DWORD PTR [ecx+0x13]
 85c:	00 00                	add    BYTE PTR [eax],al
 85e:	04 13                	add    al,0x13
 860:	01 03                	add    DWORD PTR [ebx],eax
 862:	08 0b                	or     BYTE PTR [ebx],cl
 864:	0b 3a                	or     edi,DWORD PTR [edx]
 866:	0b 3b                	or     edi,DWORD PTR [ebx]
 868:	0b 39                	or     edi,DWORD PTR [ecx]
 86a:	0b 01                	or     eax,DWORD PTR [ecx]
 86c:	13 00                	adc    eax,DWORD PTR [eax]
 86e:	00 05 0d 00 03 08    	add    BYTE PTR ds:0x803000d,al
 874:	3a 0b                	cmp    cl,BYTE PTR [ebx]
 876:	3b 0b                	cmp    ecx,DWORD PTR [ebx]
 878:	39 0b                	cmp    DWORD PTR [ebx],ecx
 87a:	49                   	dec    ecx
 87b:	13 38                	adc    edi,DWORD PTR [eax]
 87d:	0b 00                	or     eax,DWORD PTR [eax]
 87f:	00 06                	add    BYTE PTR [esi],al
 881:	01 01                	add    DWORD PTR [ecx],eax
 883:	49                   	dec    ecx
 884:	13 01                	adc    eax,DWORD PTR [ecx]
 886:	13 00                	adc    eax,DWORD PTR [eax]
 888:	00 07                	add    BYTE PTR [edi],al
 88a:	21 00                	and    DWORD PTR [eax],eax
 88c:	49                   	dec    ecx
 88d:	13 2f                	adc    ebp,DWORD PTR [edi]
 88f:	0b 00                	or     eax,DWORD PTR [eax]
 891:	00 08                	add    BYTE PTR [eax],cl
 893:	34 00                	xor    al,0x0
 895:	03 08                	add    ecx,DWORD PTR [eax]
 897:	3a 0b                	cmp    cl,BYTE PTR [ebx]
 899:	3b 0b                	cmp    ecx,DWORD PTR [ebx]
 89b:	39 0b                	cmp    DWORD PTR [ebx],ecx
 89d:	49                   	dec    ecx
 89e:	13 3f                	adc    edi,DWORD PTR [edi]
 8a0:	19 3c 19             	sbb    DWORD PTR [ecx+ebx*1],edi
 8a3:	00 00                	add    BYTE PTR [eax],al
 8a5:	09 34 00             	or     DWORD PTR [eax+eax*1],esi
 8a8:	47                   	inc    edi
 8a9:	13 3a                	adc    edi,DWORD PTR [edx]
 8ab:	0b 3b                	or     edi,DWORD PTR [ebx]
 8ad:	0b 39                	or     edi,DWORD PTR [ecx]
 8af:	0b 02                	or     eax,DWORD PTR [edx]
 8b1:	18 00                	sbb    BYTE PTR [eax],al
 8b3:	00 0a                	add    BYTE PTR [edx],cl
 8b5:	2e 01 3f             	add    DWORD PTR cs:[edi],edi
 8b8:	19 03                	sbb    DWORD PTR [ebx],eax
 8ba:	08 3a                	or     BYTE PTR [edx],bh
 8bc:	0b 3b                	or     edi,DWORD PTR [ebx]
 8be:	0b 39                	or     edi,DWORD PTR [ecx]
 8c0:	0b 27                	or     esp,DWORD PTR [edi]
 8c2:	19 11                	sbb    DWORD PTR [ecx],edx
 8c4:	01 12                	add    DWORD PTR [edx],edx
 8c6:	06                   	push   es
 8c7:	40                   	inc    eax
 8c8:	18 97 42 19 01 13    	sbb    BYTE PTR [edi+0x13011942],dl
 8ce:	00 00                	add    BYTE PTR [eax],al
 8d0:	0b 05 00 03 08 3a    	or     eax,DWORD PTR ds:0x3a080300
 8d6:	0b 3b                	or     edi,DWORD PTR [ebx]
 8d8:	0b 39                	or     edi,DWORD PTR [ecx]
 8da:	0b 49 13             	or     ecx,DWORD PTR [ecx+0x13]
 8dd:	02 18                	add    bl,BYTE PTR [eax]
 8df:	00 00                	add    BYTE PTR [eax],al
 8e1:	0c 2e                	or     al,0x2e
 8e3:	01 3f                	add    DWORD PTR [edi],edi
 8e5:	19 03                	sbb    DWORD PTR [ebx],eax
 8e7:	08 3a                	or     BYTE PTR [edx],bh
 8e9:	0b 3b                	or     edi,DWORD PTR [ebx]
 8eb:	0b 39                	or     edi,DWORD PTR [ecx]
 8ed:	0b 27                	or     esp,DWORD PTR [edi]
 8ef:	19 11                	sbb    DWORD PTR [ecx],edx
 8f1:	01 12                	add    DWORD PTR [edx],edx
 8f3:	06                   	push   es
 8f4:	40                   	inc    eax
 8f5:	18 96 42 19 00 00    	sbb    BYTE PTR [esi+0x1942],dl
 8fb:	0d 34 00 03 08       	or     eax,0x8030034
 900:	3a 0b                	cmp    cl,BYTE PTR [ebx]
 902:	3b 0b                	cmp    ecx,DWORD PTR [ebx]
 904:	39 0b                	cmp    DWORD PTR [ebx],ecx
 906:	49                   	dec    ecx
 907:	13 02                	adc    eax,DWORD PTR [edx]
 909:	18 00                	sbb    BYTE PTR [eax],al
	...

0000090d <.debug_abbrev>:
 90d:	01 11                	add    DWORD PTR [ecx],edx
 90f:	01 25 08 13 0b 03    	add    DWORD PTR ds:0x30b1308,esp
 915:	08 1b                	or     BYTE PTR [ebx],bl
 917:	08 11                	or     BYTE PTR [ecx],dl
 919:	01 12                	add    DWORD PTR [edx],edx
 91b:	06                   	push   es
 91c:	10 17                	adc    BYTE PTR [edi],dl
 91e:	00 00                	add    BYTE PTR [eax],al
 920:	02 24 00             	add    ah,BYTE PTR [eax+eax*1]
 923:	0b 0b                	or     ecx,DWORD PTR [ebx]
 925:	3e 0b 03             	or     eax,DWORD PTR ds:[ebx]
 928:	08 00                	or     BYTE PTR [eax],al
 92a:	00 03                	add    BYTE PTR [ebx],al
 92c:	0f 00 0b             	str    WORD PTR [ebx]
 92f:	0b 49 13             	or     ecx,DWORD PTR [ecx+0x13]
 932:	00 00                	add    BYTE PTR [eax],al
 934:	04 16                	add    al,0x16
 936:	00 03                	add    BYTE PTR [ebx],al
 938:	08 3a                	or     BYTE PTR [edx],bh
 93a:	0b 3b                	or     edi,DWORD PTR [ebx]
 93c:	0b 39                	or     edi,DWORD PTR [ecx]
 93e:	0b 49 13             	or     ecx,DWORD PTR [ecx+0x13]
 941:	00 00                	add    BYTE PTR [eax],al
 943:	05 2e 00 3f 19       	add    eax,0x193f002e
 948:	03 08                	add    ecx,DWORD PTR [eax]
 94a:	3a 0b                	cmp    cl,BYTE PTR [ebx]
 94c:	3b 0b                	cmp    ecx,DWORD PTR [ebx]
 94e:	39 0b                	cmp    DWORD PTR [ebx],ecx
 950:	11 01                	adc    DWORD PTR [ecx],eax
 952:	12 06                	adc    al,BYTE PTR [esi]
 954:	40                   	inc    eax
 955:	18 96 42 19 00 00    	sbb    BYTE PTR [esi+0x1942],dl
 95b:	06                   	push   es
 95c:	2e 01 3f             	add    DWORD PTR cs:[edi],edi
 95f:	19 03                	sbb    DWORD PTR [ebx],eax
 961:	08 3a                	or     BYTE PTR [edx],bh
 963:	0b 3b                	or     edi,DWORD PTR [ebx]
 965:	0b 39                	or     edi,DWORD PTR [ecx]
 967:	0b 11                	or     edx,DWORD PTR [ecx]
 969:	01 12                	add    DWORD PTR [edx],edx
 96b:	06                   	push   es
 96c:	40                   	inc    eax
 96d:	18 96 42 19 01 13    	sbb    BYTE PTR [esi+0x13011942],dl
 973:	00 00                	add    BYTE PTR [eax],al
 975:	07                   	pop    es
 976:	34 00                	xor    al,0x0
 978:	03 08                	add    ecx,DWORD PTR [eax]
 97a:	3a 0b                	cmp    cl,BYTE PTR [ebx]
 97c:	3b 0b                	cmp    ecx,DWORD PTR [ebx]
 97e:	39 0b                	cmp    DWORD PTR [ebx],ecx
 980:	49                   	dec    ecx
 981:	13 02                	adc    eax,DWORD PTR [edx]
 983:	18 00                	sbb    BYTE PTR [eax],al
 985:	00 08                	add    BYTE PTR [eax],cl
 987:	0b 01                	or     eax,DWORD PTR [ecx]
 989:	11 01                	adc    DWORD PTR [ecx],eax
 98b:	12 06                	adc    al,BYTE PTR [esi]
 98d:	00 00                	add    BYTE PTR [eax],al
 98f:	09 01                	or     DWORD PTR [ecx],eax
 991:	01 49 13             	add    DWORD PTR [ecx+0x13],ecx
 994:	01 13                	add    DWORD PTR [ebx],edx
 996:	00 00                	add    BYTE PTR [eax],al
 998:	0a 21                	or     ah,BYTE PTR [ecx]
 99a:	00 49 13             	add    BYTE PTR [ecx+0x13],cl
 99d:	2f                   	das    
 99e:	0b 00                	or     eax,DWORD PTR [eax]
 9a0:	00 0b                	add    BYTE PTR [ebx],cl
 9a2:	2e 01 3f             	add    DWORD PTR cs:[edi],edi
 9a5:	19 03                	sbb    DWORD PTR [ebx],eax
 9a7:	08 3a                	or     BYTE PTR [edx],bh
 9a9:	0b 3b                	or     edi,DWORD PTR [ebx]
 9ab:	0b 39                	or     edi,DWORD PTR [ecx]
 9ad:	0b 27                	or     esp,DWORD PTR [edi]
 9af:	19 11                	sbb    DWORD PTR [ecx],edx
 9b1:	01 12                	add    DWORD PTR [edx],edx
 9b3:	06                   	push   es
 9b4:	40                   	inc    eax
 9b5:	18 97 42 19 01 13    	sbb    BYTE PTR [edi+0x13011942],dl
 9bb:	00 00                	add    BYTE PTR [eax],al
 9bd:	0c 05                	or     al,0x5
 9bf:	00 03                	add    BYTE PTR [ebx],al
 9c1:	08 3a                	or     BYTE PTR [edx],bh
 9c3:	0b 3b                	or     edi,DWORD PTR [ebx]
 9c5:	0b 39                	or     edi,DWORD PTR [ecx]
 9c7:	0b 49 13             	or     ecx,DWORD PTR [ecx+0x13]
 9ca:	02 18                	add    bl,BYTE PTR [eax]
 9cc:	00 00                	add    BYTE PTR [eax],al
 9ce:	0d 05 00 03 0e       	or     eax,0xe030005
 9d3:	3a 0b                	cmp    cl,BYTE PTR [ebx]
 9d5:	3b 0b                	cmp    ecx,DWORD PTR [ebx]
 9d7:	39 0b                	cmp    DWORD PTR [ebx],ecx
 9d9:	49                   	dec    ecx
 9da:	13 02                	adc    eax,DWORD PTR [edx]
 9dc:	18 00                	sbb    BYTE PTR [eax],al
 9de:	00 0e                	add    BYTE PTR [esi],cl
 9e0:	2e 01 3f             	add    DWORD PTR cs:[edi],edi
 9e3:	19 03                	sbb    DWORD PTR [ebx],eax
 9e5:	08 3a                	or     BYTE PTR [edx],bh
 9e7:	0b 3b                	or     edi,DWORD PTR [ebx]
 9e9:	0b 39                	or     edi,DWORD PTR [ecx]
 9eb:	0b 27                	or     esp,DWORD PTR [edi]
 9ed:	19 11                	sbb    DWORD PTR [ecx],edx
 9ef:	01 12                	add    DWORD PTR [edx],edx
 9f1:	06                   	push   es
 9f2:	40                   	inc    eax
 9f3:	18 97 42 19 00 00    	sbb    BYTE PTR [edi+0x1942],dl
	...

000009fa <.debug_abbrev>:
 9fa:	01 11                	add    DWORD PTR [ecx],edx
 9fc:	01 25 08 13 0b 03    	add    DWORD PTR ds:0x30b1308,esp
 a02:	08 1b                	or     BYTE PTR [ebx],bl
 a04:	08 11                	or     BYTE PTR [ecx],dl
 a06:	01 12                	add    DWORD PTR [edx],edx
 a08:	06                   	push   es
 a09:	10 17                	adc    BYTE PTR [edi],dl
 a0b:	00 00                	add    BYTE PTR [eax],al
 a0d:	02 24 00             	add    ah,BYTE PTR [eax+eax*1]
 a10:	0b 0b                	or     ecx,DWORD PTR [ebx]
 a12:	3e 0b 03             	or     eax,DWORD PTR ds:[ebx]
 a15:	08 00                	or     BYTE PTR [eax],al
 a17:	00 03                	add    BYTE PTR [ebx],al
 a19:	16                   	push   ss
 a1a:	00 03                	add    BYTE PTR [ebx],al
 a1c:	08 3a                	or     BYTE PTR [edx],bh
 a1e:	0b 3b                	or     edi,DWORD PTR [ebx]
 a20:	0b 39                	or     edi,DWORD PTR [ecx]
 a22:	0b 49 13             	or     ecx,DWORD PTR [ecx+0x13]
 a25:	00 00                	add    BYTE PTR [eax],al
 a27:	04 34                	add    al,0x34
 a29:	00 03                	add    BYTE PTR [ebx],al
 a2b:	08 3a                	or     BYTE PTR [edx],bh
 a2d:	0b 3b                	or     edi,DWORD PTR [ebx]
 a2f:	0b 39                	or     edi,DWORD PTR [ecx]
 a31:	0b 49 13             	or     ecx,DWORD PTR [ecx+0x13]
 a34:	3f                   	aas    
 a35:	19 3c 19             	sbb    DWORD PTR [ecx+ebx*1],edi
 a38:	00 00                	add    BYTE PTR [eax],al
 a3a:	05 0f 00 0b 0b       	add    eax,0xb0b000f
 a3f:	49                   	dec    ecx
 a40:	13 00                	adc    eax,DWORD PTR [eax]
 a42:	00 06                	add    BYTE PTR [esi],al
 a44:	34 00                	xor    al,0x0
 a46:	47                   	inc    edi
 a47:	13 3a                	adc    edi,DWORD PTR [edx]
 a49:	0b 3b                	or     edi,DWORD PTR [ebx]
 a4b:	0b 39                	or     edi,DWORD PTR [ecx]
 a4d:	0b 02                	or     eax,DWORD PTR [edx]
 a4f:	18 00                	sbb    BYTE PTR [eax],al
 a51:	00 07                	add    BYTE PTR [edi],al
 a53:	2e 01 3f             	add    DWORD PTR cs:[edi],edi
 a56:	19 03                	sbb    DWORD PTR [ebx],eax
 a58:	08 3a                	or     BYTE PTR [edx],bh
 a5a:	0b 3b                	or     edi,DWORD PTR [ebx]
 a5c:	0b 39                	or     edi,DWORD PTR [ecx]
 a5e:	0b 27                	or     esp,DWORD PTR [edi]
 a60:	19 11                	sbb    DWORD PTR [ecx],edx
 a62:	01 12                	add    DWORD PTR [edx],edx
 a64:	06                   	push   es
 a65:	40                   	inc    eax
 a66:	18 96 42 19 00 00    	sbb    BYTE PTR [esi+0x1942],dl
 a6c:	08 05 00 03 08 3a    	or     BYTE PTR ds:0x3a080300,al
 a72:	0b 3b                	or     edi,DWORD PTR [ebx]
 a74:	0b 39                	or     edi,DWORD PTR [ecx]
 a76:	0b 49 13             	or     ecx,DWORD PTR [ecx+0x13]
 a79:	02 18                	add    bl,BYTE PTR [eax]
 a7b:	00 00                	add    BYTE PTR [eax],al
	...

Disassembly of section .debug_aranges:

00000000 <.debug_aranges>:
   0:	1c 00                	sbb    al,0x0
   2:	00 00                	add    BYTE PTR [eax],al
   4:	02 00                	add    al,BYTE PTR [eax]
   6:	00 00                	add    BYTE PTR [eax],al
   8:	00 00                	add    BYTE PTR [eax],al
   a:	04 00                	add    al,0x0
   c:	00 00                	add    BYTE PTR [eax],al
   e:	00 00                	add    BYTE PTR [eax],al
  10:	30 02                	xor    BYTE PTR [edx],al
  12:	10 00                	adc    BYTE PTR [eax],al
  14:	03 01                	add    eax,DWORD PTR [ecx]
	...

00000020 <.debug_aranges>:
  20:	1c 00                	sbb    al,0x0
  22:	00 00                	add    BYTE PTR [eax],al
  24:	02 00                	add    al,BYTE PTR [eax]
  26:	73 07                	jae    2f <.debug_frame+0x3>
  28:	00 00                	add    BYTE PTR [eax],al
  2a:	04 00                	add    al,0x0
  2c:	00 00                	add    BYTE PTR [eax],al
  2e:	00 00                	add    BYTE PTR [eax],al
  30:	34 03                	xor    al,0x3
  32:	10 00                	adc    BYTE PTR [eax],al
  34:	09 03                	or     DWORD PTR [ebx],eax
	...

00000040 <.debug_aranges>:
  40:	1c 00                	sbb    al,0x0
  42:	00 00                	add    BYTE PTR [eax],al
  44:	02 00                	add    al,BYTE PTR [eax]
  46:	f8                   	clc    
  47:	0c 00                	or     al,0x0
  49:	00 04 00             	add    BYTE PTR [eax+eax*1],al
  4c:	00 00                	add    BYTE PTR [eax],al
  4e:	00 00                	add    BYTE PTR [eax],al
  50:	40                   	inc    eax
  51:	06                   	push   es
  52:	10 00                	adc    BYTE PTR [eax],al
  54:	88 00                	mov    BYTE PTR [eax],al
	...

00000060 <.debug_aranges>:
  60:	1c 00                	sbb    al,0x0
  62:	00 00                	add    BYTE PTR [eax],al
  64:	02 00                	add    al,BYTE PTR [eax]
  66:	76 0f                	jbe    77 <.debug_aranges+0x17>
  68:	00 00                	add    BYTE PTR [eax],al
  6a:	04 00                	add    al,0x0
  6c:	00 00                	add    BYTE PTR [eax],al
  6e:	00 00                	add    BYTE PTR [eax],al
  70:	c8 06 10 00          	enter  0x1006,0x0
  74:	c1 00 00             	rol    DWORD PTR [eax],0x0
	...

00000080 <.debug_aranges>:
  80:	1c 00                	sbb    al,0x0
  82:	00 00                	add    BYTE PTR [eax],al
  84:	02 00                	add    al,BYTE PTR [eax]
  86:	17                   	pop    ss
  87:	12 00                	adc    al,BYTE PTR [eax]
  89:	00 04 00             	add    BYTE PTR [eax+eax*1],al
  8c:	00 00                	add    BYTE PTR [eax],al
  8e:	00 00                	add    BYTE PTR [eax],al
  90:	8c 07                	mov    WORD PTR [edi],es
  92:	10 00                	adc    BYTE PTR [eax],al
  94:	58                   	pop    eax
  95:	05 00 00 00 00       	add    eax,0x0
  9a:	00 00                	add    BYTE PTR [eax],al
  9c:	00 00                	add    BYTE PTR [eax],al
	...

000000a0 <.debug_aranges>:
  a0:	1c 00                	sbb    al,0x0
  a2:	00 00                	add    BYTE PTR [eax],al
  a4:	02 00                	add    al,BYTE PTR [eax]
  a6:	0c 18                	or     al,0x18
  a8:	00 00                	add    BYTE PTR [eax],al
  aa:	04 00                	add    al,0x0
  ac:	00 00                	add    BYTE PTR [eax],al
  ae:	00 00                	add    BYTE PTR [eax],al
  b0:	e4 0c                	in     al,0xc
  b2:	10 00                	adc    BYTE PTR [eax],al
  b4:	63 08                	arpl   WORD PTR [eax],cx
	...

000000c0 <.debug_aranges>:
  c0:	1c 00                	sbb    al,0x0
  c2:	00 00                	add    BYTE PTR [eax],al
  c4:	02 00                	add    al,BYTE PTR [eax]
  c6:	7d 1d                	jge    e5 <.debug_aranges+0x5>
  c8:	00 00                	add    BYTE PTR [eax],al
  ca:	04 00                	add    al,0x0
  cc:	00 00                	add    BYTE PTR [eax],al
  ce:	00 00                	add    BYTE PTR [eax],al
  d0:	48                   	dec    eax
  d1:	15 10 00 b0 01       	adc    eax,0x1b00010
	...

000000e0 <.debug_aranges>:
  e0:	1c 00                	sbb    al,0x0
  e2:	00 00                	add    BYTE PTR [eax],al
  e4:	02 00                	add    al,BYTE PTR [eax]
  e6:	f6 20                	mul    BYTE PTR [eax]
  e8:	00 00                	add    BYTE PTR [eax],al
  ea:	04 00                	add    al,0x0
  ec:	00 00                	add    BYTE PTR [eax],al
  ee:	00 00                	add    BYTE PTR [eax],al
  f0:	f8                   	clc    
  f1:	16                   	push   ss
  f2:	10 00                	adc    BYTE PTR [eax],al
  f4:	b6 09                	mov    dh,0x9
	...

00000100 <.debug_aranges>:
 100:	1c 00                	sbb    al,0x0
 102:	00 00                	add    BYTE PTR [eax],al
 104:	02 00                	add    al,BYTE PTR [eax]
 106:	fa                   	cli    
 107:	26 00 00             	add    BYTE PTR es:[eax],al
 10a:	04 00                	add    al,0x0
 10c:	00 00                	add    BYTE PTR [eax],al
 10e:	00 00                	add    BYTE PTR [eax],al
 110:	b0 20                	mov    al,0x20
 112:	10 00                	adc    BYTE PTR [eax],al
 114:	c4 00                	les    eax,FWORD PTR [eax]
	...

00000120 <.debug_aranges>:
 120:	1c 00                	sbb    al,0x0
 122:	00 00                	add    BYTE PTR [eax],al
 124:	02 00                	add    al,BYTE PTR [eax]
 126:	fa                   	cli    
 127:	2b 00                	sub    eax,DWORD PTR [eax]
 129:	00 04 00             	add    BYTE PTR [eax+eax*1],al
 12c:	00 00                	add    BYTE PTR [eax],al
 12e:	00 00                	add    BYTE PTR [eax],al
 130:	74 21                	je     153 <.debug_aranges+0x13>
 132:	10 00                	adc    BYTE PTR [eax],al
 134:	60                   	pusha  
 135:	01 00                	add    DWORD PTR [eax],eax
	...

00000140 <.debug_aranges>:
 140:	1c 00                	sbb    al,0x0
 142:	00 00                	add    BYTE PTR [eax],al
 144:	02 00                	add    al,BYTE PTR [eax]
 146:	b6 2e                	mov    dh,0x2e
 148:	00 00                	add    BYTE PTR [eax],al
 14a:	04 00                	add    al,0x0
 14c:	00 00                	add    BYTE PTR [eax],al
 14e:	00 00                	add    BYTE PTR [eax],al
 150:	d4 22                	aam    0x22
 152:	10 00                	adc    BYTE PTR [eax],al
 154:	ea 00 00 00 00 00 00 	jmp    0x0:0x0
 15b:	00 00                	add    BYTE PTR [eax],al
 15d:	00 00                	add    BYTE PTR [eax],al
	...

Disassembly of section .debug_line:

00000000 <.debug_line>:
       0:	1b 01                	sbb    eax,DWORD PTR [ecx]
       2:	00 00                	add    BYTE PTR [eax],al
       4:	03 00                	add    eax,DWORD PTR [eax]
       6:	9a 00 00 00 01 01 fb 	call   0xfb01:0x1000000
       d:	0e                   	push   cs
       e:	0d 00 01 01 01       	or     eax,0x1010100
      13:	01 00                	add    DWORD PTR [eax],eax
      15:	00 00                	add    BYTE PTR [eax],al
      17:	01 00                	add    DWORD PTR [eax],eax
      19:	00 01                	add    BYTE PTR [ecx],al
      1b:	73 72                	jae    8f <.debug_aranges+0xf>
      1d:	63 2f                	arpl   WORD PTR [edi],bp
      1f:	6b 65 72 6e          	imul   esp,DWORD PTR [ebp+0x72],0x6e
      23:	65 6c                	gs ins BYTE PTR es:[edi],dx
      25:	00 2f                	add    BYTE PTR [edi],ch
      27:	75 73                	jne    9c <.debug_aranges+0x1c>
      29:	72 2f                	jb     5a <.debug_aranges+0x1a>
      2b:	6c                   	ins    BYTE PTR es:[edi],dx
      2c:	69 62 2f 67 63 63 2f 	imul   esp,DWORD PTR [edx+0x2f],0x2f636367
      33:	78 38                	js     6d <.debug_aranges+0xd>
      35:	36 5f                	ss pop edi
      37:	36 34 2d             	ss xor al,0x2d
      3a:	77 36                	ja     72 <.debug_aranges+0x12>
      3c:	34 2d                	xor    al,0x2d
      3e:	6d                   	ins    DWORD PTR es:[edi],dx
      3f:	69 6e 67 77 33 32 2f 	imul   ebp,DWORD PTR [esi+0x67],0x2f323377
      46:	39 2e                	cmp    DWORD PTR [esi],ebp
      48:	33 2d 77 69 6e 33    	xor    ebp,DWORD PTR ds:0x336e6977
      4e:	32 2f                	xor    ch,BYTE PTR [edi]
      50:	69 6e 63 6c 75 64 65 	imul   ebp,DWORD PTR [esi+0x63],0x6564756c
      57:	00 2e                	add    BYTE PTR [esi],ch
      59:	2f                   	das    
      5a:	69 6e 63 6c 75 64 65 	imul   ebp,DWORD PTR [esi+0x63],0x6564756c
      61:	00 00                	add    BYTE PTR [eax],al
      63:	6b 65 72 6e          	imul   esp,DWORD PTR [ebp+0x72],0x6e
      67:	65 6c                	gs ins BYTE PTR es:[edi],dx
      69:	2e 63 00             	arpl   WORD PTR cs:[eax],ax
      6c:	01 00                	add    DWORD PTR [eax],eax
      6e:	00 73 74             	add    BYTE PTR [ebx+0x74],dh
      71:	64 69 6e 74 2d 67 63 	imul   ebp,DWORD PTR fs:[esi+0x74],0x6363672d
      78:	63 
      79:	2e 68 00 02 00 00    	cs push 0x200
      7f:	67 64 74 2e          	addr16 fs je b1 <.debug_aranges+0x11>
      83:	68 00 03 00 00       	push   0x300
      88:	69 64 74 2e 68 00 03 	imul   esp,DWORD PTR [esp+esi*2+0x2e],0x30068
      8f:	00 
      90:	00 74 73 73          	add    BYTE PTR [ebx+esi*2+0x73],dh
      94:	2e 68 00 03 00 00    	cs push 0x300
      9a:	70 6d                	jo     109 <.debug_aranges+0x9>
      9c:	6d                   	ins    DWORD PTR es:[edi],dx
      9d:	2e 68 00 03 00 00    	cs push 0x300
      a3:	00 05 1c 00 05 02    	add    BYTE PTR ds:0x205001c,al
      a9:	30 02                	xor    BYTE PTR [edx],al
      ab:	10 00                	adc    BYTE PTR [eax],al
      ad:	03 10                	add    edx,DWORD PTR [eax]
      af:	01 05 05 3d 59 59    	add    DWORD PTR ds:0x59593d05,eax
      b5:	59                   	pop    ecx
      b6:	05 02 08 3d 05       	add    eax,0x53d0802
      bb:	05 bb 59 59 08       	add    eax,0x85959bb
      c0:	ad                   	lods   eax,DWORD PTR ds:[esi]
      c1:	bb bb 05 0b bd       	mov    ebx,0xbd0b05bb
      c6:	05 05 82 05 1b       	add    eax,0x1b058205
      cb:	00 02                	add    BYTE PTR [edx],al
      cd:	04 03                	add    al,0x3
      cf:	34 00                	xor    al,0x0
      d1:	02 04 03             	add    al,BYTE PTR [ebx+eax*1]
      d4:	03 7a e4             	add    edi,DWORD PTR [edx-0x1c]
      d7:	05 05 00 02 04       	add    eax,0x4020005
      dc:	01 58 05             	add    DWORD PTR [eax+0x5],ebx
      df:	0b 03                	or     eax,DWORD PTR [ebx]
      e1:	0a 9e 05 05 82 05    	or     bl,BYTE PTR [esi+0x5820505]
      e7:	22 00                	and    al,BYTE PTR [eax]
      e9:	02 04 03             	add    al,BYTE PTR [ebx+eax*1]
      ec:	32 05 2c 00 02 04    	xor    al,BYTE PTR ds:0x402002c
      f2:	03 74 05 1d          	add    esi,DWORD PTR [ebp+eax*1+0x1d]
      f6:	00 02                	add    BYTE PTR [edx],al
      f8:	04 03                	add    al,0x3
      fa:	58                   	pop    eax
      fb:	05 1b 00 02 04       	add    eax,0x402001b
     100:	03 a8 05 05 00 02    	add    ebp,DWORD PTR [eax+0x2000505]
     106:	04 01                	add    al,0x1
     108:	58                   	pop    eax
     109:	05 1a a4 05 3a       	add    eax,0x3a05a41a
     10e:	58                   	pop    eax
     10f:	05 17 3c 05 05       	add    eax,0x5053c17
     114:	59                   	pop    ecx
     115:	bb 59 05 01 bb       	mov    ebx,0xbb010559
     11a:	02 05 00 01 01     	add    al,BYTE PTR ds:0xbf010100

0000011f <.debug_line>:
     11f:	bf 01 00 00 03       	mov    edi,0x3000001
     124:	00 82 00 00 00 01    	add    BYTE PTR [edx+0x1000000],al
     12a:	01 fb                	add    ebx,edi
     12c:	0e                   	push   cs
     12d:	0d 00 01 01 01       	or     eax,0x1010100
     132:	01 00                	add    DWORD PTR [eax],eax
     134:	00 00                	add    BYTE PTR [eax],al
     136:	01 00                	add    DWORD PTR [eax],eax
     138:	00 01                	add    BYTE PTR [ecx],al
     13a:	73 72                	jae    1ae <.debug_frame+0x2a>
     13c:	63 2f                	arpl   WORD PTR [edi],bp
     13e:	6b 65 72 6e          	imul   esp,DWORD PTR [ebp+0x72],0x6e
     142:	65 6c                	gs ins BYTE PTR es:[edi],dx
     144:	00 2f                	add    BYTE PTR [edi],ch
     146:	75 73                	jne    1bb <.debug_frame+0x37>
     148:	72 2f                	jb     179 <.debug_aranges+0x39>
     14a:	6c                   	ins    BYTE PTR es:[edi],dx
     14b:	69 62 2f 67 63 63 2f 	imul   esp,DWORD PTR [edx+0x2f],0x2f636367
     152:	78 38                	js     18c <.debug_frame+0x8>
     154:	36 5f                	ss pop edi
     156:	36 34 2d             	ss xor al,0x2d
     159:	77 36                	ja     191 <.debug_frame+0xd>
     15b:	34 2d                	xor    al,0x2d
     15d:	6d                   	ins    DWORD PTR es:[edi],dx
     15e:	69 6e 67 77 33 32 2f 	imul   ebp,DWORD PTR [esi+0x67],0x2f323377
     165:	39 2e                	cmp    DWORD PTR [esi],ebp
     167:	33 2d 77 69 6e 33    	xor    ebp,DWORD PTR ds:0x336e6977
     16d:	32 2f                	xor    ch,BYTE PTR [edi]
     16f:	69 6e 63 6c 75 64 65 	imul   ebp,DWORD PTR [esi+0x63],0x6564756c
     176:	00 2e                	add    BYTE PTR [esi],ch
     178:	2f                   	das    
     179:	69 6e 63 6c 75 64 65 	imul   ebp,DWORD PTR [esi+0x63],0x6564756c
     180:	00 00                	add    BYTE PTR [eax],al
     182:	73 63                	jae    1e7 <.debug_frame+0xf>
     184:	72 65                	jb     1eb <.debug_frame+0x13>
     186:	65 6e                	outs   dx,BYTE PTR gs:[esi]
     188:	2e 63 00             	arpl   WORD PTR cs:[eax],ax
     18b:	01 00                	add    DWORD PTR [eax],eax
     18d:	00 73 74             	add    BYTE PTR [ebx+0x74],dh
     190:	64 69 6e 74 2d 67 63 	imul   ebp,DWORD PTR fs:[esi+0x74],0x6363672d
     197:	63 
     198:	2e 68 00 02 00 00    	cs push 0x200
     19e:	73 63                	jae    203 <__file_alignment__+0x3>
     1a0:	72 65                	jb     207 <__file_alignment__+0x7>
     1a2:	65 6e                	outs   dx,BYTE PTR gs:[esi]
     1a4:	2e 68 00 03 00 00    	cs push 0x300
     1aa:	00 05 22 00 05 02    	add    BYTE PTR ds:0x2050022,al
     1b0:	34 03                	xor    al,0x3
     1b2:	10 00                	adc    BYTE PTR [eax],al
     1b4:	03 0d 01 05 15 13    	add    ecx,DWORD PTR ds:0x13150501
     1ba:	05 21 f2 05 0e       	add    eax,0xe05f221
     1bf:	66 05 01 2f          	add    ax,0x2f01
     1c3:	05 19 22 05 05       	add    eax,0x5052219
     1c8:	3d 05 12 08 3d       	cmp    eax,0x3d081205
     1cd:	05 09 e4 05 05       	add    eax,0x505e409
     1d2:	75 05                	jne    1d9 <.debug_frame+0x1>
     1d4:	0f 08                	invd   
     1d6:	3d 05 0c e4 05       	cmp    eax,0x5e40c05
     1db:	13 4b 05             	adc    ecx,DWORD PTR [ebx+0x5]
     1de:	01 67 05             	add    DWORD PTR [edi+0x5],esp
     1e1:	24 4c                	and    al,0x4c
     1e3:	05 0c 3d 05 05       	add    eax,0x5053d0c
     1e8:	08 13                	or     BYTE PTR [ebx],dl
     1ea:	05 35 08 3d 05       	add    eax,0x53d0835
     1ef:	05 74 08 2f 05       	add    eax,0x52f0874
     1f4:	24 08                	and    al,0x8
     1f6:	3d 05 05 4a 05       	cmp    eax,0x54a0505
     1fb:	01 08                	add    DWORD PTR [eax],ecx
     1fd:	2f                   	das    
     1fe:	05 23 5a 05 12       	add    eax,0x12055a23
     203:	08 21                	or     BYTE PTR [ecx],ah
     205:	05 0d 74 05 01       	add    eax,0x105740d
     20a:	4b                   	dec    ebx
     20b:	05 29 4c 05 09       	add    eax,0x9054c29
     210:	08 21                	or     BYTE PTR [ecx],ah
     212:	ad                   	lods   eax,DWORD PTR ds:[esi]
     213:	05 18 9f 05 0e       	add    eax,0xe059f18
     218:	82 05 01 59 05 17 4c 	add    BYTE PTR ds:0x17055901,0x4c
     21f:	05 10 3d 05 12       	add    eax,0x12053d10
     224:	9f                   	lahf   
     225:	05 10 08 3c 05       	add    eax,0x53c0810
     22a:	0b 59 75             	or     ebx,DWORD PTR [ecx+0x75]
     22d:	05 01 75 05 12       	add    eax,0x12057501
     232:	5a                   	pop    edx
     233:	05 08 ad 05 11       	add    eax,0x1105ad08
     238:	75 75                	jne    2af <.debug_abbrev+0x7d>
     23a:	05 24 08 14 05       	add    eax,0x5140824
     23f:	30 08                	xor    BYTE PTR [eax],cl
     241:	58                   	pop    eax
     242:	05 13 9e 05 1f       	add    eax,0x1f059e13
     247:	67 05 15 08 9e 05    	addr16 add eax,0x59e0815
     24d:	1d d6 05 11 3d       	sbb    eax,0x3d1105d6
     252:	05 05 e6 05 01       	add    eax,0x105e605
     257:	02 28                	add    ch,BYTE PTR [eax]
     259:	13 05 17 5a 05 0d    	adc    eax,DWORD PTR ds:0xd055a17
     25f:	3d 05 05 82 05       	cmp    eax,0x5820505
     264:	10 00                	adc    BYTE PTR [eax],al
     266:	02 04 03             	add    al,BYTE PTR [ebx+eax*1]
     269:	2f                   	das    
     26a:	05 08 00 02 04       	add    eax,0x4020008
     26f:	03 c8                	add    ecx,eax
     271:	05 20 00 02 04       	add    eax,0x4020020
     276:	03 ab 05 13 00 02    	add    ebp,DWORD PTR [ebx+0x2001305]
     27c:	04 01                	add    al,0x1
     27e:	58                   	pop    eax
     27f:	05 05 00 02 04       	add    eax,0x4020005
     284:	01 ba 05 01 69 05    	add    DWORD PTR [edx+0x5690105],edi
     28a:	0f 5a 05 0c 3d 05 03 	cvtps2pd xmm0,QWORD PTR ds:0x3053d0c
     291:	82 05 0e 2f 05 05 82 	add    BYTE PTR ds:0x5052f0e,0x82
     298:	05 1b 00 02 04       	add    eax,0x402001b
     29d:	03 2f                	add    ebp,DWORD PTR [edi]
     29f:	05 11 00 02 04       	add    eax,0x4020011
     2a4:	03 f2                	add    esi,edx
     2a6:	05 1d 00 02 04       	add    eax,0x402001d
     2ab:	03 9f 05 13 00 02    	add    ebx,DWORD PTR [edi+0x2001305]
     2b1:	04 03                	add    al,0x3
     2b3:	08 90 05 1b 00 02    	or     BYTE PTR [eax+0x2001b05],dl
     2b9:	04 03                	add    al,0x3
     2bb:	d6                   	(bad)  
     2bc:	05 25 00 02 04       	add    eax,0x4020025
     2c1:	03 3a                	add    edi,DWORD PTR [edx]
     2c3:	05 05 00 02 04       	add    eax,0x4020005
     2c8:	01 58 05             	add    DWORD PTR [eax+0x5],ebx
     2cb:	24 00                	and    al,0x0
     2cd:	02 04 02             	add    al,BYTE PTR [edx+eax*1]
     2d0:	73 05                	jae    2d7 <.debug_abbrev+0xa5>
     2d2:	03 00                	add    eax,DWORD PTR [eax]
     2d4:	02 04 01             	add    al,BYTE PTR [ecx+eax*1]
     2d7:	58                   	pop    eax
     2d8:	7a 05                	jp     2df <.debug_abbrev+0x7>
     2da:	01 08                	add    DWORD PTR [eax],ecx
     2dc:	ad                   	lods   eax,DWORD PTR ds:[esi]
     2dd:	02 05 00 01 01     	add    al,BYTE PTR ds:0xab010100

000002e2 <.debug_line>:
     2e2:	ab                   	stos   DWORD PTR es:[edi],eax
     2e3:	00 00                	add    BYTE PTR [eax],al
     2e5:	00 03                	add    BYTE PTR [ebx],al
     2e7:	00 6b 00             	add    BYTE PTR [ebx+0x0],ch
     2ea:	00 00                	add    BYTE PTR [eax],al
     2ec:	01 01                	add    DWORD PTR [ecx],eax
     2ee:	fb                   	sti    
     2ef:	0e                   	push   cs
     2f0:	0d 00 01 01 01       	or     eax,0x1010100
     2f5:	01 00                	add    DWORD PTR [eax],eax
     2f7:	00 00                	add    BYTE PTR [eax],al
     2f9:	01 00                	add    DWORD PTR [eax],eax
     2fb:	00 01                	add    BYTE PTR [ecx],al
     2fd:	73 72                	jae    371 <.debug_abbrev+0xf>
     2ff:	63 2f                	arpl   WORD PTR [edi],bp
     301:	6b 65 72 6e          	imul   esp,DWORD PTR [ebp+0x72],0x6e
     305:	65 6c                	gs ins BYTE PTR es:[edi],dx
     307:	00 2f                	add    BYTE PTR [edi],ch
     309:	75 73                	jne    37e <.debug_abbrev+0x1c>
     30b:	72 2f                	jb     33c <.debug_frame+0x18>
     30d:	6c                   	ins    BYTE PTR es:[edi],dx
     30e:	69 62 2f 67 63 63 2f 	imul   esp,DWORD PTR [edx+0x2f],0x2f636367
     315:	78 38                	js     34f <.debug_frame+0x2b>
     317:	36 5f                	ss pop edi
     319:	36 34 2d             	ss xor al,0x2d
     31c:	77 36                	ja     354 <.debug_frame+0x30>
     31e:	34 2d                	xor    al,0x2d
     320:	6d                   	ins    DWORD PTR es:[edi],dx
     321:	69 6e 67 77 33 32 2f 	imul   ebp,DWORD PTR [esi+0x67],0x2f323377
     328:	39 2e                	cmp    DWORD PTR [esi],ebp
     32a:	33 2d 77 69 6e 33    	xor    ebp,DWORD PTR ds:0x336e6977
     330:	32 2f                	xor    ch,BYTE PTR [edi]
     332:	69 6e 63 6c 75 64 65 	imul   ebp,DWORD PTR [esi+0x63],0x6564756c
     339:	00 00                	add    BYTE PTR [eax],al
     33b:	70 6f                	jo     3ac <.debug_line+0x1b>
     33d:	72 74                	jb     3b3 <.debug_line+0x22>
     33f:	73 2e                	jae    36f <.debug_abbrev+0xd>
     341:	63 00                	arpl   WORD PTR [eax],ax
     343:	01 00                	add    DWORD PTR [eax],eax
     345:	00 73 74             	add    BYTE PTR [ebx+0x74],dh
     348:	64 69 6e 74 2d 67 63 	imul   ebp,DWORD PTR fs:[esi+0x74],0x6363672d
     34f:	63 
     350:	2e 68 00 02 00 00    	cs push 0x200
     356:	00 05 26 00 05 02    	add    BYTE PTR ds:0x2050026,al
     35c:	40                   	inc    eax
     35d:	06                   	push   es
     35e:	10 00                	adc    BYTE PTR [eax],al
     360:	17                   	pop    ss
     361:	05 05 03 0a ac       	add    eax,0xac0a0305
     366:	05 0c ad 05 01       	add    eax,0x105ad0c
     36b:	59                   	pop    ecx
     36c:	05 32 4c 05 05       	add    eax,0x5054c32
     371:	08 50 05             	or     BYTE PTR [eax+0x5],dl
     374:	01 9f 05 27 5a 05    	add    DWORD PTR [edi+0x55a2705],ebx
     37a:	05 ae 05 0c c9       	add    eax,0xc90c05ae
     37f:	05 01 59 05 33       	add    eax,0x33055901
     384:	4c                   	dec    esp
     385:	05 05 08 3d 05       	add    eax,0x53d0805
     38a:	01 ad 02 05 00 01    	add    DWORD PTR [ebp+0x1000502],ebp
     390:	01                 	add    ebp,ebp

00000391 <.debug_line>:
     391:	ed                   	in     eax,dx
     392:	00 00                	add    BYTE PTR [eax],al
     394:	00 03                	add    BYTE PTR [ebx],al
     396:	00 69 00             	add    BYTE PTR [ecx+0x0],ch
     399:	00 00                	add    BYTE PTR [eax],al
     39b:	01 01                	add    DWORD PTR [ecx],eax
     39d:	fb                   	sti    
     39e:	0e                   	push   cs
     39f:	0d 00 01 01 01       	or     eax,0x1010100
     3a4:	01 00                	add    DWORD PTR [eax],eax
     3a6:	00 00                	add    BYTE PTR [eax],al
     3a8:	01 00                	add    DWORD PTR [eax],eax
     3aa:	00 01                	add    BYTE PTR [ecx],al
     3ac:	73 72                	jae    420 <.debug_frame+0x14>
     3ae:	63 2f                	arpl   WORD PTR [edi],bp
     3b0:	6b 65 72 6e          	imul   esp,DWORD PTR [ebp+0x72],0x6e
     3b4:	65 6c                	gs ins BYTE PTR es:[edi],dx
     3b6:	00 2f                	add    BYTE PTR [edi],ch
     3b8:	75 73                	jne    42d <.debug_frame+0x21>
     3ba:	72 2f                	jb     3eb <.debug_frame+0x23>
     3bc:	6c                   	ins    BYTE PTR es:[edi],dx
     3bd:	69 62 2f 67 63 63 2f 	imul   esp,DWORD PTR [edx+0x2f],0x2f636367
     3c4:	78 38                	js     3fe <.debug_frame+0x36>
     3c6:	36 5f                	ss pop edi
     3c8:	36 34 2d             	ss xor al,0x2d
     3cb:	77 36                	ja     403 <.debug_frame+0x3b>
     3cd:	34 2d                	xor    al,0x2d
     3cf:	6d                   	ins    DWORD PTR es:[edi],dx
     3d0:	69 6e 67 77 33 32 2f 	imul   ebp,DWORD PTR [esi+0x67],0x2f323377
     3d7:	39 2e                	cmp    DWORD PTR [esi],ebp
     3d9:	33 2d 77 69 6e 33    	xor    ebp,DWORD PTR ds:0x336e6977
     3df:	32 2f                	xor    ch,BYTE PTR [edi]
     3e1:	69 6e 63 6c 75 64 65 	imul   ebp,DWORD PTR [esi+0x63],0x6564756c
     3e8:	00 00                	add    BYTE PTR [eax],al
     3ea:	6d                   	ins    DWORD PTR es:[edi],dx
     3eb:	65 6d                	gs ins DWORD PTR es:[edi],dx
     3ed:	2e 63 00             	arpl   WORD PTR cs:[eax],ax
     3f0:	01 00                	add    DWORD PTR [eax],eax
     3f2:	00 73 74             	add    BYTE PTR [ebx+0x74],dh
     3f5:	64 69 6e 74 2d 67 63 	imul   ebp,DWORD PTR fs:[esi+0x74],0x6363672d
     3fc:	63 
     3fd:	2e 68 00 02 00 00    	cs push 0x200
     403:	00 05 35 00 05 02    	add    BYTE PTR ds:0x2050035,al
     409:	c8 06 10 00          	enter  0x1006,0x0
     40d:	14 05                	adc    al,0x5
     40f:	0a 13                	or     dl,BYTE PTR [ebx]
     411:	05 0c 2f 05 16       	add    eax,0x16052f0c
     416:	74 05                	je     41d <.debug_frame+0x11>
     418:	0b 74 05 14          	or     esi,DWORD PTR [ebp+eax*1+0x14]
     41c:	4b                   	dec    ebx
     41d:	05 0e 67 59 05       	add    eax,0x559670e
     422:	0c 54                	or     al,0x54
     424:	05 0a ac 05 0c       	add    eax,0xc05ac0a
     429:	50                   	push   eax
     42a:	05 01 59 05 31       	add    eax,0x31055901
     42f:	22 05 0c 3d 83 05    	and    al,BYTE PTR ds:0x5833d0c
     435:	12 83 05 0b 83 05    	adc    al,BYTE PTR [ebx+0x5830b05]
     43b:	12 2f                	adc    ch,BYTE PTR [edi]
     43d:	05 0b ac 05 10       	add    eax,0x1005ac0b
     442:	ac                   	lods   al,BYTE PTR ds:[esi]
     443:	05 0e 3c 05 0d       	add    eax,0xd053c0e
     448:	2d 05 0b ac 05       	sub    eax,0x5ac0b05
     44d:	0c 4c                	or     al,0x4c
     44f:	05 01 4b 05 29       	add    eax,0x29054b01
     454:	4c                   	dec    esp
     455:	05 0b 9f 05 05       	add    eax,0x5059f0b
     45a:	83 05 1c 00 02 04 02 	add    DWORD PTR ds:0x402001c,0x2
     461:	2e 05 1f 00 02 04    	cs add eax,0x402001f
     467:	02 ac 05 13 00 02 04 	add    ch,BYTE PTR [ebp+eax*1+0x4020013]
     46e:	02 66 05             	add    ah,BYTE PTR [esi+0x5]
     471:	05 00 02 04 01       	add    eax,0x1040200
     476:	58                   	pop    eax
     477:	05 0c 75 05 01       	add    eax,0x105750c
     47c:	4b                   	dec    ebx
     47d:	02 04 00             	add    al,BYTE PTR [eax+eax*1]
     480:	01 01                	add    DWORD PTR [ecx],eax

00000482 <.debug_line>:
     482:	8c 03                	mov    WORD PTR [ebx],es
     484:	00 00                	add    BYTE PTR [eax],al
     486:	03 00                	add    eax,DWORD PTR [eax]
     488:	6c                   	ins    BYTE PTR es:[edi],dx
     489:	00 00                	add    BYTE PTR [eax],al
     48b:	00 01                	add    BYTE PTR [ecx],al
     48d:	01 fb                	add    ebx,edi
     48f:	0e                   	push   cs
     490:	0d 00 01 01 01       	or     eax,0x1010100
     495:	01 00                	add    DWORD PTR [eax],eax
     497:	00 00                	add    BYTE PTR [eax],al
     499:	01 00                	add    DWORD PTR [eax],eax
     49b:	00 01                	add    BYTE PTR [ecx],al
     49d:	73 72                	jae    511 <.debug_frame+0xd>
     49f:	63 2f                	arpl   WORD PTR [edi],bp
     4a1:	6b 65 72 6e          	imul   esp,DWORD PTR [ebp+0x72],0x6e
     4a5:	65 6c                	gs ins BYTE PTR es:[edi],dx
     4a7:	00 2f                	add    BYTE PTR [edi],ch
     4a9:	75 73                	jne    51e <.debug_frame+0x1a>
     4ab:	72 2f                	jb     4dc <.debug_frame+0x14>
     4ad:	6c                   	ins    BYTE PTR es:[edi],dx
     4ae:	69 62 2f 67 63 63 2f 	imul   esp,DWORD PTR [edx+0x2f],0x2f636367
     4b5:	78 38                	js     4ef <.debug_frame+0x27>
     4b7:	36 5f                	ss pop edi
     4b9:	36 34 2d             	ss xor al,0x2d
     4bc:	77 36                	ja     4f4 <.debug_frame+0x2c>
     4be:	34 2d                	xor    al,0x2d
     4c0:	6d                   	ins    DWORD PTR es:[edi],dx
     4c1:	69 6e 67 77 33 32 2f 	imul   ebp,DWORD PTR [esi+0x67],0x2f323377
     4c8:	39 2e                	cmp    DWORD PTR [esi],ebp
     4ca:	33 2d 77 69 6e 33    	xor    ebp,DWORD PTR ds:0x336e6977
     4d0:	32 2f                	xor    ch,BYTE PTR [edi]
     4d2:	69 6e 63 6c 75 64 65 	imul   ebp,DWORD PTR [esi+0x63],0x6564756c
     4d9:	00 00                	add    BYTE PTR [eax],al
     4db:	73 74                	jae    551 <.debug_frame+0x4d>
     4dd:	72 69                	jb     548 <.debug_frame+0x44>
     4df:	6e                   	outs   dx,BYTE PTR ds:[esi]
     4e0:	67 2e 63 00          	arpl   WORD PTR cs:[bx+si],ax
     4e4:	01 00                	add    DWORD PTR [eax],eax
     4e6:	00 73 74             	add    BYTE PTR [ebx+0x74],dh
     4e9:	64 69 6e 74 2d 67 63 	imul   ebp,DWORD PTR fs:[esi+0x74],0x6363672d
     4f0:	63 
     4f1:	2e 68 00 02 00 00    	cs push 0x200
     4f7:	00 05 1c 00 05 02    	add    BYTE PTR ds:0x205001c,al
     4fd:	8c 07                	mov    WORD PTR [edi],es
     4ff:	10 00                	adc    BYTE PTR [eax],al
     501:	16                   	push   ss
     502:	05 09 3d 05 0a       	add    eax,0xa053d09
     507:	83 05 0c 2f 05 0d 57 	add    DWORD PTR ds:0xd052f0c,0x57
     50e:	05 0b ac 05 0a       	add    eax,0xa05ac0b
     513:	3c 05                	cmp    al,0x5
     515:	0c 4c                	or     al,0x4c
     517:	05 01 4b 05 29       	add    eax,0x29054b01
     51c:	4c                   	dec    esp
     51d:	05 0e 3f 05 05       	add    eax,0x5053f0e
     522:	82 05 2c 00 02 04 04 	add    BYTE PTR ds:0x402002c,0x4
     529:	2e 05 18 00 02 04    	cs add eax,0x4020018
     52f:	01 58 05             	add    DWORD PTR [eax+0x5],ebx
     532:	05 00 02 04 01       	add    eax,0x1040200
     537:	ac                   	lods   al,BYTE PTR ds:[esi]
     538:	05 20 00 02 04       	add    eax,0x4020020
     53d:	03 4a 05             	add    ecx,DWORD PTR [edx+0x5]
     540:	1b 00                	sbb    eax,DWORD PTR [eax]
     542:	02 04 03             	add    al,BYTE PTR [ebx+eax*1]
     545:	74 05                	je     54c <.debug_frame+0x48>
     547:	11 4c 05 01          	adc    DWORD PTR [ebp+eax*1+0x1],ecx
     54b:	83 4d 05 08          	or     DWORD PTR [ebp+0x5],0x8
     54f:	3f                   	aas    
     550:	05 27 00 02 04       	add    eax,0x4020027
     555:	01 74 05 1c          	add    DWORD PTR [ebp+eax*1+0x1c],esi
     559:	76 05                	jbe    560 <.debug_frame+0x5c>
     55b:	08 d9                	or     cl,bl
     55d:	05 13 9f 05 10       	add    eax,0x10059f13
     562:	84 05 05 82 05 29    	test   BYTE PTR ds:0x29058205,al
     568:	30 05 13 9e 05 29    	xor    BYTE PTR ds:0x29059e13,al
     56e:	9e                   	sahf   
     56f:	05 1b 3c 05 19       	add    eax,0x19053c1b
     574:	30 05 0c c8 05 38    	xor    BYTE PTR ds:0x3805c80c,al
     57a:	00 02                	add    BYTE PTR [edx],al
     57c:	04 02                	add    al,0x2
     57e:	46                   	inc    esi
     57f:	05 15 00 02 04       	add    eax,0x4020015
     584:	01 58 05             	add    DWORD PTR [eax+0x5],ebx
     587:	05 00 02 04 01       	add    eax,0x1040200
     58c:	4a                   	dec    edx
     58d:	05 0d 87 05 08       	add    eax,0x805870d
     592:	23 05 1c a0 05 0c    	and    eax,DWORD PTR ds:0xc05a01c
     598:	d9 05 01 4b 4d 05    	fld    DWORD PTR ds:0x54d4b01
     59e:	09 3d 05 0b 84 05    	or     DWORD PTR ds:0x5840b05,edi
     5a4:	12 2f                	adc    ch,BYTE PTR [edi]
     5a6:	05 10 c8 05 0c       	add    eax,0xc05c810
     5ab:	90                   	nop
     5ac:	05 14 4b 05 10       	add    eax,0x10054b14
     5b1:	72 05                	jb     5b8 <.debug_frame+0xb4>
     5b3:	1a c8                	sbb    cl,al
     5b5:	05 14 9e 05 0b       	add    eax,0xb059e14
     5ba:	3c 05                	cmp    al,0x5
     5bc:	0c 4f                	or     al,0x4f
     5be:	05 01 59 05 30       	add    eax,0x30055901
     5c3:	4c                   	dec    esp
     5c4:	05 0d 40 05 07       	add    eax,0x705400d
     5c9:	ac                   	lods   al,BYTE PTR ds:[esi]
     5ca:	05 08 75 05 10       	add    eax,0x10057508
     5cf:	75 05                	jne    5d6 <.debug_frame+0x16>
     5d1:	0b 68 05             	or     ebp,DWORD PTR [eax+0x5]
     5d4:	09 ba 05 15 4f 05    	or     DWORD PTR [edx+0x54f1505],edi
     5da:	10 ac 75 05 18 75 05 	adc    BYTE PTR [ebp+esi*2+0x5751805],ch
     5e1:	09 75 05             	or     DWORD PTR [ebp+0x5],esi
     5e4:	0e                   	push   cs
     5e5:	ad                   	lods   eax,DWORD PTR ds:[esi]
     5e6:	05 05 08 ac 05       	add    eax,0x5ac0805
     5eb:	0c 4c                	or     al,0x4c
     5ed:	05 01 75 4d 05       	add    eax,0x54d7501
     5f2:	09 3d 05 0b 83 05    	or     DWORD PTR ds:0x5830b05,edi
     5f8:	0a 2f                	or     ch,BYTE PTR [edi]
     5fa:	05 1a 57 05 11       	add    eax,0x1105571a
     5ff:	ac                   	lods   al,BYTE PTR ds:[esi]
     600:	05 16 ac 05 14       	add    eax,0x1405ac16
     605:	3c 05                	cmp    al,0x5
     607:	0d 2e 05 0b 3c       	or     eax,0x3c0b052e
     60c:	05 0c 4c 05 01       	add    eax,0x1054c0c
     611:	4b                   	dec    ebx
     612:	4e                   	dec    esi
     613:	05 20 3d 05 0c       	add    eax,0xc053d20
     618:	d6                   	(bad)  
     619:	05 05 9f 05 11       	add    eax,0x11059f05
     61e:	02 24 13             	add    ah,BYTE PTR [ebx+edx*1]
     621:	05 09 ba 05 0a       	add    eax,0xa05ba09
     626:	4b                   	dec    ebx
     627:	05 01 75 05 36       	add    eax,0x36057501
     62c:	5a                   	pop    edx
     62d:	05 09 3d 05 0b       	add    eax,0xb053d09
     632:	84 05 12 2f 05 1b    	test   BYTE PTR ds:0x1b052f12,al
     638:	9e                   	sahf   
     639:	05 18 ac 05 10       	add    eax,0x1005ac18
     63e:	66 05 0c 84          	add    ax,0x840c
     642:	05 26 00 02 04       	add    eax,0x4020026
     647:	01 74 05 23          	add    DWORD PTR [ebp+eax*1+0x23],esi
     64b:	00 02                	add    BYTE PTR [edx],al
     64d:	04 01                	add    al,0x1
     64f:	ac                   	lods   al,BYTE PTR ds:[esi]
     650:	05 1e 00 02 04       	add    eax,0x402001e
     655:	01 3c 05 0a 4e 05 0b 	add    DWORD PTR [eax*1+0xb054e0a],edi
     65c:	03 79 58             	add    edi,DWORD PTR [ecx+0x58]
     65f:	05 0c 03 0a 74       	add    eax,0x740a030c
     664:	05 01 4b 4c 05       	add    eax,0x54c4b01
     669:	09 40 05             	or     DWORD PTR [eax+0x5],eax
     66c:	07                   	pop    es
     66d:	83 05 11 85 05 0d 4a 	add    DWORD PTR ds:0xd058511,0x4a
     674:	05 12 e5 05 26       	add    eax,0x2605e512
     679:	00 02                	add    BYTE PTR [edx],al
     67b:	04 01                	add    al,0x1
     67d:	74 05                	je     684 <.debug_abbrev+0x9d>
     67f:	12 00                	adc    al,BYTE PTR [eax]
     681:	02 04 01             	add    al,BYTE PTR [ecx+eax*1]
     684:	74 05                	je     68b <.debug_abbrev+0xa4>
     686:	3a 00                	cmp    al,BYTE PTR [eax]
     688:	02 04 02             	add    al,BYTE PTR [edx+eax*1]
     68b:	4a                   	dec    edx
     68c:	05 12 00 02 04       	add    eax,0x4020012
     691:	02 74 05 0e          	add    dh,BYTE PTR [ebp+eax*1+0xe]
     695:	00 02                	add    BYTE PTR [edx],al
     697:	04 04                	add    al,0x4
     699:	2e 05 0c 00 02 04    	cs add eax,0x402000c
     69f:	04 c8                	add    al,0xc8
     6a1:	05 12 00 02 04       	add    eax,0x4020012
     6a6:	04 66                	add    al,0x66
     6a8:	05 10 00 02 04       	add    eax,0x4020010
     6ad:	04 2f                	add    al,0x2f
     6af:	05 05 00 02 04       	add    eax,0x4020005
     6b4:	04 08                	add    al,0x8
     6b6:	2e 05 0a 75 05 08    	cs add eax,0x805750a
     6bc:	c8 05 0e 66          	enter  0xe05,0x66
     6c0:	05 0c 3e 05 05       	add    eax,0x5053e0c
     6c5:	82 05 12 00 02 04 03 	add    BYTE PTR ds:0x4020012,0x3
     6cc:	2f                   	das    
     6cd:	05 0d 00 02 04       	add    eax,0x402000d
     6d2:	03 c8                	add    ecx,eax
     6d4:	05 15 00 02 04       	add    eax,0x4020015
     6d9:	03 75 05             	add    esi,DWORD PTR [ebp+0x5]
     6dc:	0c 00                	or     al,0x0
     6de:	02 04 03             	add    al,BYTE PTR [ebx+eax*1]
     6e1:	9e                   	sahf   
     6e2:	05 15 00 02 04       	add    eax,0x4020015
     6e7:	03 9e 05 10 00 02    	add    ebx,DWORD PTR [esi+0x2001005]
     6ed:	04 03                	add    al,0x3
     6ef:	3c 05                	cmp    al,0x5
     6f1:	0c 00                	or     al,0x0
     6f3:	02 04 03             	add    al,BYTE PTR [ebx+eax*1]
     6f6:	2f                   	das    
     6f7:	05 10 00 02 04       	add    eax,0x4020010
     6fc:	03 9e 05 19 00 02    	add    ebx,DWORD PTR [esi+0x2001905]
     702:	04 03                	add    al,0x3
     704:	63 05 1e 00 02 04    	arpl   WORD PTR ds:0x402001e,ax
     70a:	03 58 05             	add    ebx,DWORD PTR [eax+0x5]
     70d:	05 00 02 04 01       	add    eax,0x1040200
     712:	58                   	pop    eax
     713:	05 01 a3 05 19       	add    eax,0x1905a301
     718:	68 05 09 3d 05       	push   0x53d0905
     71d:	0b 86 05 10 2f 05    	or     eax,DWORD PTR [esi+0x52f1005]
     723:	14 57                	adc    al,0x57
     725:	05 0c 74 05 0b       	add    eax,0xb05740c
     72a:	ac                   	lods   al,BYTE PTR ds:[esi]
     72b:	05 09 52 05 08       	add    eax,0x8055209
     730:	74 05                	je     737 <.debug_abbrev+0x6d>
     732:	0e                   	push   cs
     733:	4b                   	dec    ebx
     734:	05 10 83 05 0e       	add    eax,0xe058310
     739:	76 05                	jbe    740 <.debug_abbrev+0x76>
     73b:	0d 83 05 0c 74       	or     eax,0x740c0583
     740:	05 14 4b 05 11       	add    eax,0x11054b14
     745:	5d                   	pop    ebp
     746:	05 19 9e 05 0f       	add    eax,0xf059e19
     74b:	3c 05                	cmp    al,0x5
     74d:	0c 4b                	or     al,0x4b
     74f:	05 15 77 05 1e       	add    eax,0x1e057715
     754:	e4 05                	in     al,0x5
     756:	10 66 05             	adc    BYTE PTR [esi+0x5],ah
     759:	16                   	push   ss
     75a:	45                   	inc    ebp
     75b:	05 0f 59 05 0d       	add    eax,0xd05590f
     760:	30 05 08 25 05 10    	xor    BYTE PTR ds:0x10052508,al
     766:	75 05                	jne    76d <.debug_abbrev+0xa3>
     768:	0c 84                	or     al,0x84
     76a:	05 01 4b 05 15       	add    eax,0x15054b01
     76f:	4c                   	dec    esp
     770:	05 49 9f 05 15       	add    eax,0x15059f49
     775:	00 02                	add    BYTE PTR [edx],al
     777:	04 02                	add    al,0x2
     779:	66 05 22 00          	add    ax,0x22
     77d:	02 04 04             	add    al,BYTE PTR [esp+eax*1]
     780:	66 05 2f 00          	add    ax,0x2f
     784:	02 04 06             	add    al,BYTE PTR [esi+eax*1]
     787:	66 05 3c 00          	add    ax,0x3c
     78b:	02 04 08             	add    al,BYTE PTR [eax+ecx*1]
     78e:	66 05 49 00          	add    ax,0x49
     792:	02 04 0a             	add    al,BYTE PTR [edx+ecx*1]
     795:	66 00 02             	data16 add BYTE PTR [edx],al
     798:	04 0b                	add    al,0xb
     79a:	06                   	push   es
     79b:	66 00 02             	data16 add BYTE PTR [edx],al
     79e:	04 0c                	add    al,0xc
     7a0:	74 05                	je     7a7 <.debug_info+0x34>
     7a2:	01 00                	add    DWORD PTR [eax],eax
     7a4:	02 04 0f             	add    al,BYTE PTR [edi+ecx*1]
     7a7:	06                   	push   es
     7a8:	59                   	pop    ecx
     7a9:	05 15 4c 05 28       	add    eax,0x28054c15
     7ae:	9f                   	lahf   
     7af:	00 02                	add    BYTE PTR [edx],al
     7b1:	04 01                	add    al,0x1
     7b3:	06                   	push   es
     7b4:	66 00 02             	data16 add BYTE PTR [edx],al
     7b7:	04 03                	add    al,0x3
     7b9:	66 00 02             	data16 add BYTE PTR [edx],al
     7bc:	04 04                	add    al,0x4
     7be:	74 05                	je     7c5 <.debug_info+0x52>
     7c0:	01 00                	add    DWORD PTR [eax],eax
     7c2:	02 04 07             	add    al,BYTE PTR [edi+eax*1]
     7c5:	06                   	push   es
     7c6:	59                   	pop    ecx
     7c7:	05 31 4c 05 0c       	add    eax,0xc054c31
     7cc:	41                   	inc    ecx
     7cd:	05 08 9e 05 10       	add    eax,0x10059e08
     7d2:	75 05                	jne    7d9 <.debug_info+0x66>
     7d4:	0e                   	push   cs
     7d5:	75 05                	jne    7dc <.debug_info+0x69>
     7d7:	0f 83 05 0d ac 05    	jae    5ac14e2 <___ImageBase+0x56c14e2>
     7dd:	0b 3c 05 0f 75 05 1d 	or     edi,DWORD PTR [eax*1+0x1d05750f]
     7e4:	84 05 17 ac 05 15    	test   BYTE PTR ds:0x1505ac17,al
     7ea:	3c 05                	cmp    al,0x5
     7ec:	10 74 05 14          	adc    BYTE PTR [ebp+eax*1+0x14],dh
     7f0:	9f                   	lahf   
     7f1:	05 17 75 05 16       	add    eax,0x16057517
     7f6:	a0 05 1b 74 05       	mov    al,ds:0x5741b05
     7fb:	1a 3d 05 18 9f 05    	sbb    bh,BYTE PTR ds:0x59f1805
     801:	09 68 05             	or     DWORD PTR [eax+0x5],ebp
     804:	0b 03                	or     eax,DWORD PTR [ebx]
     806:	75 74                	jne    87c <.debug_abbrev+0x4b>
     808:	05 01 03 0d 2e       	add    eax,0x2e0d0301
     80d:	02 04 00             	add    al,BYTE PTR [eax+eax*1]
     810:	01 01                	add    DWORD PTR [ecx],eax

00000812 <.debug_line>:
     812:	0b 04 00             	or     eax,DWORD PTR [eax+eax*1]
     815:	00 03                	add    BYTE PTR [ebx],al
     817:	00 4f 00             	add    BYTE PTR [edi+0x0],cl
     81a:	00 00                	add    BYTE PTR [eax],al
     81c:	01 01                	add    DWORD PTR [ecx],eax
     81e:	fb                   	sti    
     81f:	0e                   	push   cs
     820:	0d 00 01 01 01       	or     eax,0x1010100
     825:	01 00                	add    DWORD PTR [eax],eax
     827:	00 00                	add    BYTE PTR [eax],al
     829:	01 00                	add    DWORD PTR [eax],eax
     82b:	00 01                	add    BYTE PTR [ecx],al
     82d:	73 72                	jae    8a1 <.debug_abbrev+0x70>
     82f:	63 2f                	arpl   WORD PTR [edi],bp
     831:	6b 65 72 6e          	imul   esp,DWORD PTR [ebp+0x72],0x6e
     835:	65 6c                	gs ins BYTE PTR es:[edi],dx
     837:	00 2f                	add    BYTE PTR [edi],ch
     839:	75 73                	jne    8ae <.debug_abbrev+0x7d>
     83b:	72 2f                	jb     86c <.debug_abbrev+0x3b>
     83d:	73 68                	jae    8a7 <.debug_abbrev+0x76>
     83f:	61                   	popa   
     840:	72 65                	jb     8a7 <.debug_abbrev+0x76>
     842:	2f                   	das    
     843:	6d                   	ins    DWORD PTR es:[edi],dx
     844:	69 6e 67 77 2d 77 36 	imul   ebp,DWORD PTR [esi+0x67],0x36772d77
     84b:	34 2f                	xor    al,0x2f
     84d:	69 6e 63 6c 75 64 65 	imul   ebp,DWORD PTR [esi+0x63],0x6564756c
     854:	00 00                	add    BYTE PTR [eax],al
     856:	69 6f 2e 63 00 01 00 	imul   ebp,DWORD PTR [edi+0x2e],0x10063
     85d:	00 76 61             	add    BYTE PTR [esi+0x61],dh
     860:	64 65 66 73 2e       	fs gs data16 jae 893 <.debug_abbrev+0x62>
     865:	68 00 02 00 00       	push   0x200
     86a:	00 05 01 00 05 02    	add    BYTE PTR ds:0x2050001,al
     870:	e4 0c                	in     al,0xc
     872:	10 00                	adc    BYTE PTR [eax],al
     874:	03 09                	add    ecx,DWORD PTR [ecx]
     876:	01 05 15 13 00 02    	add    DWORD PTR ds:0x2001315,eax
     87c:	04 01                	add    al,0x1
     87e:	06                   	push   es
     87f:	74 00                	je     881 <.debug_abbrev+0x50>
     881:	02 04 03             	add    al,BYTE PTR [ebx+eax*1]
     884:	74 00                	je     886 <.debug_abbrev+0x55>
     886:	02 04 04             	add    al,BYTE PTR [esp+eax*1]
     889:	66 05 01 00          	add    ax,0x1
     88d:	02 04 04             	add    al,BYTE PTR [esp+eax*1]
     890:	06                   	push   es
     891:	59                   	pop    ecx
     892:	23 05 09 4b 05 0b    	and    eax,DWORD PTR ds:0xb054b09
     898:	84 05 0f 2f 05 19    	test   BYTE PTR ds:0x19052f0f,al
     89e:	e4 05                	in     al,0x5
     8a0:	1c 66                	sbb    al,0x66
     8a2:	05 16 90 05 14       	add    eax,0x14059016
     8a7:	66 05 0b 2e          	add    ax,0x2e0b
     8ab:	05 15 73 05 14       	add    eax,0x14057315
     8b0:	66 05 0c 3c          	add    ax,0x3c0c
     8b4:	05 0b ac 05 0c       	add    eax,0xc05ac0b
     8b9:	4c                   	dec    esp
     8ba:	05 01 4b 05 57       	add    eax,0x57054b01
     8bf:	5a                   	pop    edx
     8c0:	05 14 03 0a 3c       	add    eax,0x3c0a0314
     8c5:	05 0c 4a 05 0e       	add    eax,0xe054a0c
     8ca:	75 05                	jne    8d1 <.debug_abbrev+0xa0>
     8cc:	08 74 05 0e          	or     BYTE PTR [ebp+eax*1+0xe],dh
     8d0:	4b                   	dec    ebx
     8d1:	05 08 59 05 12       	add    eax,0x12055908
     8d6:	00 02                	add    BYTE PTR [edx],al
     8d8:	04 01                	add    al,0x1
     8da:	74 05                	je     8e1 <.debug_abbrev+0xb0>
     8dc:	10 75 05             	adc    BYTE PTR [ebp+0x5],dh
     8df:	0f 9f 05 07 74 00 02 	setg   BYTE PTR ds:0x2007407
     8e6:	04 01                	add    al,0x1
     8e8:	06                   	push   es
     8e9:	4a                   	dec    edx
     8ea:	00 02                	add    BYTE PTR [edx],al
     8ec:	04 02                	add    al,0x2
     8ee:	74 00                	je     8f0 <.debug_abbrev+0xbf>
     8f0:	02 04 04             	add    al,BYTE PTR [esp+eax*1]
     8f3:	58                   	pop    eax
     8f4:	05 0a 00 02 04       	add    eax,0x402000a
     8f9:	04 06                	add    al,0x6
     8fb:	4b                   	dec    ebx
     8fc:	05 0e 00 02 04       	add    eax,0x402000e
     901:	04 59                	add    al,0x59
     903:	05 08 00 02 04       	add    eax,0x4020008
     908:	04 74                	add    al,0x74
     90a:	05 0c 4b 05 12       	add    eax,0x12054b0c
     90f:	75 05                	jne    916 <.debug_abbrev+0x9>
     911:	11 59 4b             	adc    DWORD PTR [ecx+0x4b],ebx
     914:	05 19 75 05 13       	add    eax,0x13057519
     919:	74 05                	je     920 <.debug_abbrev+0x13>
     91b:	12 4b 05             	adc    cl,BYTE PTR [ebx+0x5]
     91e:	11 59 05             	adc    DWORD PTR [ecx+0x5],ebx
     921:	19 75 05             	sbb    DWORD PTR [ebp+0x5],esi
     924:	13 74 05 12          	adc    esi,DWORD PTR [ebp+eax*1+0x12]
     928:	4b                   	dec    ebx
     929:	05 11 59 05 0e       	add    eax,0xe055911
     92e:	5b                   	pop    ebx
     92f:	05 08 74 05 0c       	add    eax,0xc057408
     934:	4b                   	dec    ebx
     935:	05 12 75 05 11       	add    eax,0x11057512
     93a:	75 75                	jne    9b1 <.debug_abbrev+0xa4>
     93c:	05 07 5a 05 08       	add    eax,0x8055a07
     941:	83 05 0e 75 05 12 ac 	add    DWORD PTR ds:0x1205750e,0xffffffac
     948:	05 20 77 05 1f       	add    eax,0x1f057720
     94d:	02 2c 12             	add    ch,BYTE PTR [edx+edx*1]
     950:	05 12 74 05 16       	add    eax,0x16057412
     955:	ac                   	lods   al,BYTE PTR ds:[esi]
     956:	05 0f 81 05 08       	add    eax,0x805810f
     95b:	76 05                	jbe    962 <.debug_abbrev+0x55>
     95d:	13 9f 05 0a 83 05    	adc    ebx,DWORD PTR [edi+0x5830a05]
     963:	10 83 05 08 74 05    	adc    BYTE PTR [ebx+0x5740805],al
     969:	0f 4b 05 11 2f 05 14 	cmovnp eax,DWORD PTR ds:0x14052f11
     970:	ac                   	lods   al,BYTE PTR ds:[esi]
     971:	3b 05 0f ac 05 08    	cmp    eax,DWORD PTR ds:0x805ac0f
     977:	4c                   	dec    esp
     978:	05 0d 75 05 10       	add    eax,0x1005750d
     97d:	ac                   	lods   al,BYTE PTR ds:[esi]
     97e:	05 0e 75 05 08       	add    eax,0x805750e
     983:	74 05                	je     98a <.debug_abbrev+0x7d>
     985:	0c 4b                	or     al,0x4b
     987:	05 11 75 05 14       	add    eax,0x14057511
     98c:	ac                   	lods   al,BYTE PTR ds:[esi]
     98d:	05 11 59 75 05       	add    eax,0x5755911
     992:	14 ac                	adc    al,0xac
     994:	05 11 3d 05 14       	add    eax,0x14053d11
     999:	ac                   	lods   al,BYTE PTR ds:[esi]
     99a:	05 10 a1 05 08       	add    eax,0x805a110
     99f:	74 05                	je     9a6 <.debug_abbrev+0x99>
     9a1:	0f 4b 05 11 2f 05 14 	cmovnp eax,DWORD PTR ds:0x14052f11
     9a8:	ac                   	lods   al,BYTE PTR ds:[esi]
     9a9:	73 05                	jae    9b0 <.debug_abbrev+0xa3>
     9ab:	0f ac 05 0b 4c 05 0d 	shrd   DWORD PTR ds:0xd054c0b,eax,0x2f
     9b2:	2f 
     9b3:	05 10 ac 05 19       	add    eax,0x1905ac10
     9b8:	3b 05 0b ac 68 05    	cmp    eax,DWORD PTR ds:0x568ac0b
     9be:	0d 2f 05 15 ac       	or     eax,0xac15052f
     9c3:	05 10 c8 05 0d       	add    eax,0xd05c810
     9c8:	2d 05 0b ac 4c       	sub    eax,0x4cac0b05
     9cd:	05 0d 2f 05 10       	add    eax,0x10052f0d
     9d2:	ac                   	lods   al,BYTE PTR ds:[esi]
     9d3:	3b 05 0b ac 05 0c    	cmp    eax,DWORD PTR ds:0xc05ac0b
     9d9:	4c                   	dec    esp
     9da:	05 01 00 02 04       	add    eax,0x4020001
     9df:	01 4b 4d             	add    DWORD PTR [ebx+0x4d],ecx
     9e2:	05 0e 03 0e 3c       	add    eax,0x3c0e030e
     9e7:	05 05 82 05 0d       	add    eax,0xd058205
     9ec:	59                   	pop    ecx
     9ed:	05 0c 74 05 16       	add    eax,0x1605740c
     9f2:	4b                   	dec    ebx
     9f3:	05 11 4a 05 16       	add    eax,0x16054a11
     9f8:	ac                   	lods   al,BYTE PTR ds:[esi]
     9f9:	05 14 3c 05 0d       	add    eax,0xd053c14
     9fe:	2f                   	das    
     9ff:	05 0f 5c 05 09       	add    eax,0x9055c0f
     a04:	84 05 11 ad 05 13    	test   BYTE PTR ds:0x1305ad11,al
     a0a:	08 a0 05 0d 59 05    	or     BYTE PTR [eax+0x5590d05],ah
     a10:	13 30                	adc    esi,DWORD PTR [eax]
     a12:	05 0d 59 05 13       	add    eax,0x1305590d
     a17:	30 05 0d 59 05 13    	xor    BYTE PTR ds:0x1305590d,al
     a1d:	30 05 0d 59 05 13    	xor    BYTE PTR ds:0x1305590d,al
     a23:	30 05 0d 59 05 15    	xor    BYTE PTR ds:0x1505590d,al
     a29:	32 83 05 0d 74 05    	xor    al,BYTE PTR [ebx+0x5740d05]
     a2f:	0c ac                	or     al,0xac
     a31:	05 1b 4b 05 12       	add    eax,0x12054b1b
     a36:	08 21                	or     BYTE PTR [ecx],ah
     a38:	05 11 74 05 0d       	add    eax,0xd057411
     a3d:	4b                   	dec    ebx
     a3e:	05 19 ae 05 10       	add    eax,0x1005ae19
     a43:	08 13                	or     BYTE PTR [ebx],dl
     a45:	05 1d 75 05 17       	add    eax,0x1705751d
     a4a:	4b                   	dec    ebx
     a4b:	05 13 5d 05 0d       	add    eax,0xd055d13
     a50:	83 05 0c 74 05 0d 4b 	add    DWORD PTR ds:0xd05740c,0x4b
     a57:	05 19 ad 05 11       	add    eax,0x1105ad19
     a5c:	74 05                	je     a63 <.debug_abbrev+0x69>
     a5e:	10 ac 05 1d 4b 05 16 	adc    BYTE PTR [ebp+eax*1+0x16054b1d],ch
     a65:	08 21                	or     BYTE PTR [ecx],ah
     a67:	05 15 74 05 11       	add    eax,0x11057415
     a6c:	4b                   	dec    ebx
     a6d:	05 1b ae 05 10       	add    eax,0x1005ae1b
     a72:	08 14 05 1b 75 05 13 	or     BYTE PTR [eax*1+0x1305751b],dl
     a79:	86 05 0d 83 05 0c    	xchg   BYTE PTR ds:0xc05830d,al
     a7f:	74 05                	je     a86 <.debug_abbrev+0x8c>
     a81:	1c 00                	sbb    al,0x0
     a83:	02 04 01             	add    al,BYTE PTR [ecx+eax*1]
     a86:	4a                   	dec    edx
     a87:	05 19 00 02 04       	add    eax,0x4020019
     a8c:	01 74 05 2b          	add    DWORD PTR [ebp+eax*1+0x2b],esi
     a90:	00 02                	add    BYTE PTR [edx],al
     a92:	04 02                	add    al,0x2
     a94:	4a                   	dec    edx
     a95:	05 28 00 02 04       	add    eax,0x4020028
     a9a:	02 74 05 19          	add    dh,BYTE PTR [ebp+eax*1+0x19]
     a9e:	4b                   	dec    ebx
     a9f:	05 17 74 05 0d       	add    eax,0xd057417
     aa4:	75 05                	jne    aab <.debug_abbrev+0xb1>
     aa6:	0e                   	push   cs
     aa7:	b0 05                	mov    al,0x5
     aa9:	11 84 05 19 08 d8 05 	adc    DWORD PTR [ebp+eax*1+0x5d80819],eax
     ab0:	10 74 05 17          	adc    BYTE PTR [ebp+eax*1+0x17],dh
     ab4:	4b                   	dec    ebx
     ab5:	05 19 2f 05 1c       	add    eax,0x1c052f19
     aba:	ac                   	lods   al,BYTE PTR ds:[esi]
     abb:	05 17 3b 05 25       	add    eax,0x25053b17
     ac0:	bc 05 11 c8 05       	mov    esp,0x5c81105
     ac5:	16                   	push   ss
     ac6:	ac                   	lods   al,BYTE PTR ds:[esi]
     ac7:	05 14 2e 05 13       	add    eax,0x13052e14
     acc:	2f                   	das    
     acd:	05 15 2f 05 18       	add    eax,0x18052f15
     ad2:	ac                   	lods   al,BYTE PTR ds:[esi]
     ad3:	05 13 3b 05 0d       	add    eax,0xd053b13
     ad8:	bc 05 0f 5b 05       	mov    esp,0x55b0f05
     add:	13 08                	adc    ecx,DWORD PTR [eax]
     adf:	13 05 19 08 76 05    	adc    eax,DWORD PTR ds:0x5760819
     ae5:	10 74 05 17          	adc    BYTE PTR [ebp+eax*1+0x17],dh
     ae9:	4b                   	dec    ebx
     aea:	05 19 2f 05 1c       	add    eax,0x1c052f19
     aef:	ac                   	lods   al,BYTE PTR ds:[esi]
     af0:	05 29 3b 05 17       	add    eax,0x17053b29
     af5:	ac                   	lods   al,BYTE PTR ds:[esi]
     af6:	05 14 68 05 0d       	add    eax,0xd056814
     afb:	82 05 1c 00 02 04 03 	add    BYTE PTR ds:0x402001c,0x3
     b02:	2f                   	das    
     b03:	05 15 00 02 04       	add    eax,0x4020015
     b08:	03 ac 05 1a 00 02 04 	add    ebp,DWORD PTR [ebp+eax*1+0x402001a]
     b0f:	03 ac 05 18 00 02 04 	add    ebp,DWORD PTR [ebp+eax*1+0x4020018]
     b16:	03 3c 05 22 00 02 04 	add    edi,DWORD PTR [eax*1+0x4020022]
     b1d:	03 2d 05 0d 00 02    	add    ebp,DWORD PTR ds:0x2000d05
     b23:	04 01                	add    al,0x1
     b25:	58                   	pop    eax
     b26:	05 13 a0 05 15       	add    eax,0x1505a013
     b2b:	2f                   	das    
     b2c:	05 18 ac 05 25       	add    eax,0x2505ac18
     b31:	3b 05 13 ac 05 0d    	cmp    eax,DWORD PTR ds:0xd05ac13
     b37:	68 05 10 5b 05       	push   0x55b1005
     b3c:	1d 75 05 17 83       	sbb    eax,0x83170575
     b41:	05 25 5b 05 13       	add    eax,0x13055b25
     b46:	c7 05 0d 02 36 15 05 	mov    DWORD PTR ds:0x1536020d,0x55b1005
     b4d:	10 5b 05 
     b50:	17                   	pop    ss
     b51:	75 05                	jne    b58 <.debug_abbrev+0x15e>
     b53:	1c 08                	sbb    al,0x8
     b55:	13 05 15 9e 05 0d    	adc    eax,DWORD PTR ds:0xd059e15
     b5b:	6b 05 16 55 05 1c 08 	imul   eax,DWORD PTR ds:0x1c055516,0x8
     b62:	13 05 15 9e 05 0d    	adc    eax,DWORD PTR ds:0xd059e15
     b68:	68 05 11 5b 05       	push   0x55b1105
     b6d:	14 ac                	adc    al,0xac
     b6f:	05 0d 3d 05 12       	add    eax,0x12053d0d
     b74:	5c                   	pop    esp
     b75:	05 0d 83 05 13       	add    eax,0x1305830d
     b7a:	31 05 12 5a 05 0d    	xor    DWORD PTR ds:0xd055a12,eax
     b80:	83 05 13 32 05 0d 5a 	add    DWORD PTR ds:0xd053213,0x5a
     b87:	05 11 31 05 14       	add    eax,0x14053111
     b8c:	ac                   	lods   al,BYTE PTR ds:[esi]
     b8d:	05 11 3d 05 10       	add    eax,0x10053d11
     b92:	74 05                	je     b99 <.debug_abbrev+0x19f>
     b94:	1a 4b 05             	sbb    cl,BYTE PTR [ebx+0x5]
     b97:	15 4a 05 1a ac       	adc    eax,0xac1a054a
     b9c:	05 18 3c 05 0d       	add    eax,0xd053c18
     ba1:	31 05 11 57 05 0d    	xor    DWORD PTR ds:0xd055711,eax
     ba7:	ad                   	lods   eax,DWORD PTR ds:[esi]
     ba8:	03 78 58             	add    edi,DWORD PTR [eax+0x58]
     bab:	05 0c 03 0a 20       	add    eax,0x200a030c
     bb0:	05 11 75 08 2f       	add    eax,0x2f087511
     bb5:	05 23 75 05 11       	add    eax,0x11057523
     bba:	c8 05 17 75          	enter  0x1705,0x75
     bbe:	05 10 74 05 17       	add    eax,0x17057410
     bc3:	4b                   	dec    ebx
     bc4:	05 15 4a 05 1a       	add    eax,0x1a054a15
     bc9:	75 05                	jne    bd0 <.debug_abbrev+0x1d6>
     bcb:	13 74 4b 05          	adc    esi,DWORD PTR [ebx+ecx*2+0x5]
     bcf:	11 c8                	adc    eax,ecx
     bd1:	68 05 0f 08 13       	push   0x13080f05
     bd6:	05 1b 00 02 04       	add    eax,0x402001b
     bdb:	02 03                	add    al,BYTE PTR [ebx]
     bdd:	eb 7e                	jmp    c5d <.debug_line+0x3c>
     bdf:	02 38                	add    bh,BYTE PTR [eax]
     be1:	01 05 15 00 02 04    	add    DWORD PTR ds:0x4020015,eax
     be7:	01 ac 05 05 00 02 04 	add    DWORD PTR [ebp+eax*1+0x4020005],ebp
     bee:	01 74 05 0a          	add    DWORD PTR [ebp+eax*1+0xa],esi
     bf2:	03 97 01 82 05 10    	add    edx,DWORD PTR [edi+0x10058201]
     bf8:	75 05                	jne    bff <.debug_abbrev+0x205>
     bfa:	01 83 4d 05 05 40    	add    DWORD PTR [ebx+0x4005054d],eax
     c00:	05 09 83 05 0c       	add    eax,0xc058309
     c05:	08 e6                	or     dh,ah
     c07:	05 01 4b 4d 05       	add    eax,0x54d4b01
     c0c:	05 6b 05 0f ad       	add    eax,0xad0f056b
     c11:	05 05 02 26 15       	add    eax,0x15260205
     c16:	05 0c bc 05 01       	add    eax,0x105bc0c
     c1b:	75 02                	jne    c1f <.debug_abbrev+0x225>
     c1d:	07                   	pop    es
     c1e:	00 01                	add    BYTE PTR [ecx],al
     c20:	01                 	add    esp,esp

00000c21 <.debug_line>:
     c21:	e4 00                	in     al,0x0
     c23:	00 00                	add    BYTE PTR [eax],al
     c25:	03 00                	add    eax,DWORD PTR [eax]
     c27:	7c 00                	jl     c29 <.debug_line+0x8>
     c29:	00 00                	add    BYTE PTR [eax],al
     c2b:	01 01                	add    DWORD PTR [ecx],eax
     c2d:	fb                   	sti    
     c2e:	0e                   	push   cs
     c2f:	0d 00 01 01 01       	or     eax,0x1010100
     c34:	01 00                	add    DWORD PTR [eax],eax
     c36:	00 00                	add    BYTE PTR [eax],al
     c38:	01 00                	add    DWORD PTR [eax],eax
     c3a:	00 01                	add    BYTE PTR [ecx],al
     c3c:	73 72                	jae    cb0 <.debug_line+0x8f>
     c3e:	63 2f                	arpl   WORD PTR [edi],bp
     c40:	6b 65 72 6e          	imul   esp,DWORD PTR [ebp+0x72],0x6e
     c44:	65 6c                	gs ins BYTE PTR es:[edi],dx
     c46:	00 2f                	add    BYTE PTR [edi],ch
     c48:	75 73                	jne    cbd <.debug_line+0x9c>
     c4a:	72 2f                	jb     c7b <.debug_line+0x5a>
     c4c:	6c                   	ins    BYTE PTR es:[edi],dx
     c4d:	69 62 2f 67 63 63 2f 	imul   esp,DWORD PTR [edx+0x2f],0x2f636367
     c54:	78 38                	js     c8e <.debug_line+0x6d>
     c56:	36 5f                	ss pop edi
     c58:	36 34 2d             	ss xor al,0x2d
     c5b:	77 36                	ja     c93 <.debug_line+0x72>
     c5d:	34 2d                	xor    al,0x2d
     c5f:	6d                   	ins    DWORD PTR es:[edi],dx
     c60:	69 6e 67 77 33 32 2f 	imul   ebp,DWORD PTR [esi+0x67],0x2f323377
     c67:	39 2e                	cmp    DWORD PTR [esi],ebp
     c69:	33 2d 77 69 6e 33    	xor    ebp,DWORD PTR ds:0x336e6977
     c6f:	32 2f                	xor    ch,BYTE PTR [edi]
     c71:	69 6e 63 6c 75 64 65 	imul   ebp,DWORD PTR [esi+0x63],0x6564756c
     c78:	00 2e                	add    BYTE PTR [esi],ch
     c7a:	2f                   	das    
     c7b:	69 6e 63 6c 75 64 65 	imul   ebp,DWORD PTR [esi+0x63],0x6564756c
     c82:	00 00                	add    BYTE PTR [eax],al
     c84:	67 64 74 2e          	addr16 fs je cb6 <.debug_line+0x95>
     c88:	63 00                	arpl   WORD PTR [eax],ax
     c8a:	01 00                	add    DWORD PTR [eax],eax
     c8c:	00 73 74             	add    BYTE PTR [ebx+0x74],dh
     c8f:	64 69 6e 74 2d 67 63 	imul   ebp,DWORD PTR fs:[esi+0x74],0x6363672d
     c96:	63 
     c97:	2e 68 00 02 00 00    	cs push 0x200
     c9d:	67 64 74 2e          	addr16 fs je ccf <.debug_line+0xae>
     ca1:	68 00 03 00 00       	push   0x300
     ca6:	00 05 5c 00 05 02    	add    BYTE PTR ds:0x205005c,al
     cac:	48                   	dec    eax
     cad:	15 10 00 17 05       	adc    eax,0x5170010
     cb2:	13 08                	adc    ecx,DWORD PTR [eax]
     cb4:	21 05 14 f3 05 1f    	and    DWORD PTR ds:0x1f05f314,eax
     cba:	d7                   	xlat   BYTE PTR ds:[ebx]
     cbb:	05 17 74 05 23       	add    eax,0x23057417
     cc0:	91                   	xchg   ecx,eax
     cc1:	05 15 74 91 05       	add    eax,0x5917415
     cc6:	20 c9                	and    cl,cl
     cc8:	05 27 74 05 17       	add    eax,0x17057427
     ccd:	58                   	pop    eax
     cce:	05 12 75 05 1d       	add    eax,0x1d057512
     cd3:	bb 05 33 9e 05       	mov    ebx,0x59e3305
     cd8:	2b 74 05 17          	sub    esi,DWORD PTR [ebp+eax*1+0x17]
     cdc:	4a                   	dec    edx
     cdd:	05 01 75 05 11       	add    eax,0x11057501
     ce2:	5a                   	pop    edx
     ce3:	05 13 3d 05 14       	add    eax,0x14053d13
     ce8:	91                   	xchg   ecx,eax
     ce9:	05 12 58 05 05       	add    eax,0x5055812
     cee:	59                   	pop    ecx
     cef:	02 2c 13             	add    ch,BYTE PTR [ebx+edx*1]
     cf2:	02 2c 13             	add    ch,BYTE PTR [ebx+edx*1]
     cf5:	02 2c 13             	add    ch,BYTE PTR [ebx+edx*1]
     cf8:	02 2c 13             	add    ch,BYTE PTR [ebx+edx*1]
     cfb:	02 2c 13             	add    ch,BYTE PTR [ebx+edx*1]
     cfe:	05 01 03 0c 08       	add    eax,0x80c0301
     d03:	ac                   	lods   al,BYTE PTR ds:[esi]
     d04:	02 05 00 01 01     	add    al,BYTE PTR ds:0xdb010100

00000d09 <.debug_line>:
     d09:	db 01                	fild   DWORD PTR [ecx]
     d0b:	00 00                	add    BYTE PTR [eax],al
     d0d:	03 00                	add    eax,DWORD PTR [eax]
     d0f:	7c 00                	jl     d11 <.debug_line+0x8>
     d11:	00 00                	add    BYTE PTR [eax],al
     d13:	01 01                	add    DWORD PTR [ecx],eax
     d15:	fb                   	sti    
     d16:	0e                   	push   cs
     d17:	0d 00 01 01 01       	or     eax,0x1010100
     d1c:	01 00                	add    DWORD PTR [eax],eax
     d1e:	00 00                	add    BYTE PTR [eax],al
     d20:	01 00                	add    DWORD PTR [eax],eax
     d22:	00 01                	add    BYTE PTR [ecx],al
     d24:	73 72                	jae    d98 <.debug_line+0x8f>
     d26:	63 2f                	arpl   WORD PTR [edi],bp
     d28:	6b 65 72 6e          	imul   esp,DWORD PTR [ebp+0x72],0x6e
     d2c:	65 6c                	gs ins BYTE PTR es:[edi],dx
     d2e:	00 2f                	add    BYTE PTR [edi],ch
     d30:	75 73                	jne    da5 <.debug_line+0x9c>
     d32:	72 2f                	jb     d63 <.debug_line+0x5a>
     d34:	6c                   	ins    BYTE PTR es:[edi],dx
     d35:	69 62 2f 67 63 63 2f 	imul   esp,DWORD PTR [edx+0x2f],0x2f636367
     d3c:	78 38                	js     d76 <.debug_line+0x6d>
     d3e:	36 5f                	ss pop edi
     d40:	36 34 2d             	ss xor al,0x2d
     d43:	77 36                	ja     d7b <.debug_line+0x72>
     d45:	34 2d                	xor    al,0x2d
     d47:	6d                   	ins    DWORD PTR es:[edi],dx
     d48:	69 6e 67 77 33 32 2f 	imul   ebp,DWORD PTR [esi+0x67],0x2f323377
     d4f:	39 2e                	cmp    DWORD PTR [esi],ebp
     d51:	33 2d 77 69 6e 33    	xor    ebp,DWORD PTR ds:0x336e6977
     d57:	32 2f                	xor    ch,BYTE PTR [edi]
     d59:	69 6e 63 6c 75 64 65 	imul   ebp,DWORD PTR [esi+0x63],0x6564756c
     d60:	00 2e                	add    BYTE PTR [esi],ch
     d62:	2f                   	das    
     d63:	69 6e 63 6c 75 64 65 	imul   ebp,DWORD PTR [esi+0x63],0x6564756c
     d6a:	00 00                	add    BYTE PTR [eax],al
     d6c:	69 64 74 2e 63 00 01 	imul   esp,DWORD PTR [esp+esi*2+0x2e],0x10063
     d73:	00 
     d74:	00 73 74             	add    BYTE PTR [ebx+0x74],dh
     d77:	64 69 6e 74 2d 67 63 	imul   ebp,DWORD PTR fs:[esi+0x74],0x6363672d
     d7e:	63 
     d7f:	2e 68 00 02 00 00    	cs push 0x200
     d85:	69 64 74 2e 68 00 03 	imul   esp,DWORD PTR [esp+esi*2+0x2e],0x30068
     d8c:	00 
     d8d:	00 00                	add    BYTE PTR [eax],al
     d8f:	05 39 00 05 02       	add    eax,0x2050039
     d94:	f8                   	clc    
     d95:	16                   	push   ss
     d96:	10 00                	adc    BYTE PTR [eax],al
     d98:	03 2b                	add    ebp,DWORD PTR [ebx]
     d9a:	01 05 05 3d 05 07    	add    DWORD PTR ds:0x7053d05,eax
     da0:	08 3d 05 21 9f 05    	or     BYTE PTR ds:0x59f2105,bh
     da6:	01 e5                	add    ebp,esp
     da8:	05 4b 5a 05 13       	add    eax,0x13055a4b
     dad:	08 4b f3             	or     BYTE PTR [ebx-0xd],cl
     db0:	05 22 c9 05 13       	add    eax,0x1305c922
     db5:	74 9f                	je     d56 <.debug_line+0x4d>
     db7:	05 0f 83 05 11       	add    eax,0x1105830f
     dbc:	c9                   	leave  
     dbd:	05 01 f3 05 11       	add    eax,0x1105f301
     dc2:	5e                   	pop    esi
     dc3:	05 05 3e 08 3d       	add    eax,0x3d083e05
     dc8:	08 3f                	or     BYTE PTR [edi],bh
     dca:	08 3d 08 3f 08 3d    	or     BYTE PTR ds:0x3d083f08,bh
     dd0:	08 3f                	or     BYTE PTR [edi],bh
     dd2:	08 3d 08 3f 08 3d    	or     BYTE PTR ds:0x3d083f08,bh
     dd8:	05 01 08 3d 05       	add    eax,0x53d0801
     ddd:	1b 5a 05             	sbb    ebx,DWORD PTR [edx+0x5]
     de0:	07                   	pop    es
     de1:	ad                   	lods   eax,DWORD PTR ds:[esi]
     de2:	05 09 75 05 05       	add    eax,0x5057509
     de7:	08 3d 05 01 08 3d    	or     BYTE PTR ds:0x3d080105,bh
     ded:	05 11 5a 05 05       	add    eax,0x5055a11
     df2:	3d 05 14 08 ad       	cmp    eax,0xad081405
     df7:	05 12 58 05 13       	add    eax,0x13055812
     dfc:	59                   	pop    ecx
     dfd:	05 05 91 5a 02       	add    eax,0x25a9105
     e02:	25 13 02 25 13       	and    eax,0x13250213
     e07:	02 25 13 02 25 13    	add    ah,BYTE PTR ds:0x13250213
     e0d:	02 25 13 02 25 13    	add    ah,BYTE PTR ds:0x13250213
     e13:	02 25 13 02 25 13    	add    ah,BYTE PTR ds:0x13250213
     e19:	02 25 13 02 25 13    	add    ah,BYTE PTR ds:0x13250213
     e1f:	02 25 13 02 25 13    	add    ah,BYTE PTR ds:0x13250213
     e25:	02 25 13 02 25 13    	add    ah,BYTE PTR ds:0x13250213
     e2b:	02 25 13 02 25 13    	add    ah,BYTE PTR ds:0x13250213
     e31:	02 25 13 02 25 13    	add    ah,BYTE PTR ds:0x13250213
     e37:	02 25 13 02 25 13    	add    ah,BYTE PTR ds:0x13250213
     e3d:	02 25 13 02 25 13    	add    ah,BYTE PTR ds:0x13250213
     e43:	02 25 13 02 25 13    	add    ah,BYTE PTR ds:0x13250213
     e49:	02 25 13 02 25 13    	add    ah,BYTE PTR ds:0x13250213
     e4f:	02 25 13 02 25 13    	add    ah,BYTE PTR ds:0x13250213
     e55:	02 25 13 02 25 13    	add    ah,BYTE PTR ds:0x13250213
     e5b:	02 25 13 02 25 13    	add    ah,BYTE PTR ds:0x13250213
     e61:	02 25 13 02 25 13    	add    ah,BYTE PTR ds:0x13250213
     e67:	02 25 13 02 25 13    	add    ah,BYTE PTR ds:0x13250213
     e6d:	02 25 13 02 25 13    	add    ah,BYTE PTR ds:0x13250213
     e73:	02 25 13 02 25 13    	add    ah,BYTE PTR ds:0x13250213
     e79:	02 25 13 02 25 13    	add    ah,BYTE PTR ds:0x13250213
     e7f:	02 25 13 02 25 13    	add    ah,BYTE PTR ds:0x13250213
     e85:	02 25 13 02 25 13    	add    ah,BYTE PTR ds:0x13250213
     e8b:	02 25 13 02 25 13    	add    ah,BYTE PTR ds:0x13250213
     e91:	02 25 13 78 05 01    	add    ah,BYTE PTR ds:0x1057813
     e97:	21 05 2e 5a 05 0b    	and    DWORD PTR ds:0xb055a2e,eax
     e9d:	3d 05 07 4a 05       	cmp    eax,0x54a0705
     ea2:	09 59 05             	or     DWORD PTR [ecx+0x5],ebx
     ea5:	4b                   	dec    ebx
     ea6:	4a                   	dec    edx
     ea7:	05 09 4a 00 02       	add    eax,0x2004a09
     eac:	04 01                	add    al,0x1
     eae:	08 9f 05 1e 30 05    	or     BYTE PTR [edi+0x5301e05],bl
     eb4:	1a 4a 05             	sbb    cl,BYTE PTR [edx+0x5]
     eb7:	07                   	pop    es
     eb8:	74 05                	je     ebf <.debug_line+0x1b6>
     eba:	30 4b 05             	xor    BYTE PTR [ebx+0x5],cl
     ebd:	10 4a 05             	adc    BYTE PTR [edx+0x5],cl
     ec0:	0a ad 05 01 ca 05    	or     ch,BYTE PTR [ebp+0x5ca0105]
     ec6:	2a 5a 05             	sub    bl,BYTE PTR [edx+0x5]
     ec9:	1e                   	push   ds
     eca:	3d 05 1a 74 05       	cmp    eax,0x5741a05
     ecf:	07                   	pop    es
     ed0:	74 05                	je     ed7 <.debug_line+0x1ce>
     ed2:	2f                   	das    
     ed3:	4b                   	dec    ebx
     ed4:	05 0f 74 05 09       	add    eax,0x905740f
     ed9:	ad                   	lods   eax,DWORD PTR ds:[esi]
     eda:	05 10 ca 05 05       	add    eax,0x505ca10
     edf:	74 05                	je     ee6 <.debug_line+0x1dd>
     ee1:	01 ad 02 05 00 01    	add    DWORD PTR [ebp+0x1000502],ebp
     ee7:	01                 	add    esp,eax

00000ee8 <.debug_line>:
     ee8:	c4 00                	les    eax,FWORD PTR [eax]
     eea:	00 00                	add    BYTE PTR [eax],al
     eec:	03 00                	add    eax,DWORD PTR [eax]
     eee:	85 00                	test   DWORD PTR [eax],eax
     ef0:	00 00                	add    BYTE PTR [eax],al
     ef2:	01 01                	add    DWORD PTR [ecx],eax
     ef4:	fb                   	sti    
     ef5:	0e                   	push   cs
     ef6:	0d 00 01 01 01       	or     eax,0x1010100
     efb:	01 00                	add    DWORD PTR [eax],eax
     efd:	00 00                	add    BYTE PTR [eax],al
     eff:	01 00                	add    DWORD PTR [eax],eax
     f01:	00 01                	add    BYTE PTR [ecx],al
     f03:	73 72                	jae    f77 <.debug_info+0x1>
     f05:	63 2f                	arpl   WORD PTR [edi],bp
     f07:	6b 65 72 6e          	imul   esp,DWORD PTR [ebp+0x72],0x6e
     f0b:	65 6c                	gs ins BYTE PTR es:[edi],dx
     f0d:	00 2f                	add    BYTE PTR [edi],ch
     f0f:	75 73                	jne    f84 <.debug_info+0xe>
     f11:	72 2f                	jb     f42 <.debug_line+0x5a>
     f13:	6c                   	ins    BYTE PTR es:[edi],dx
     f14:	69 62 2f 67 63 63 2f 	imul   esp,DWORD PTR [edx+0x2f],0x2f636367
     f1b:	78 38                	js     f55 <.debug_line+0x6d>
     f1d:	36 5f                	ss pop edi
     f1f:	36 34 2d             	ss xor al,0x2d
     f22:	77 36                	ja     f5a <.debug_line+0x72>
     f24:	34 2d                	xor    al,0x2d
     f26:	6d                   	ins    DWORD PTR es:[edi],dx
     f27:	69 6e 67 77 33 32 2f 	imul   ebp,DWORD PTR [esi+0x67],0x2f323377
     f2e:	39 2e                	cmp    DWORD PTR [esi],ebp
     f30:	33 2d 77 69 6e 33    	xor    ebp,DWORD PTR ds:0x336e6977
     f36:	32 2f                	xor    ch,BYTE PTR [edi]
     f38:	69 6e 63 6c 75 64 65 	imul   ebp,DWORD PTR [esi+0x63],0x6564756c
     f3f:	00 2e                	add    BYTE PTR [esi],ch
     f41:	2f                   	das    
     f42:	69 6e 63 6c 75 64 65 	imul   ebp,DWORD PTR [esi+0x63],0x6564756c
     f49:	00 00                	add    BYTE PTR [eax],al
     f4b:	74 73                	je     fc0 <.debug_line+0x10>
     f4d:	73 2e                	jae    f7d <.debug_info+0x7>
     f4f:	63 00                	arpl   WORD PTR [eax],ax
     f51:	01 00                	add    DWORD PTR [eax],eax
     f53:	00 73 74             	add    BYTE PTR [ebx+0x74],dh
     f56:	64 69 6e 74 2d 67 63 	imul   ebp,DWORD PTR fs:[esi+0x74],0x6363672d
     f5d:	63 
     f5e:	2e 68 00 02 00 00    	cs push 0x200
     f64:	67 64 74 2e          	addr16 fs je f96 <.debug_info+0x20>
     f68:	68 00 03 00 00       	push   0x300
     f6d:	74 73                	je     fe2 <.debug_line+0x32>
     f6f:	73 2e                	jae    f9f <.debug_info+0x29>
     f71:	68 00 03 00 00       	push   0x300
     f76:	00 05 3a 00 05 02    	add    BYTE PTR ds:0x205003a,al
     f7c:	b0 20                	mov    al,0x20
     f7e:	10 00                	adc    BYTE PTR [eax],al
     f80:	16                   	push   ss
     f81:	05 0e 3d 05 05       	add    eax,0x5053d0e
     f86:	83 02 2f             	add    DWORD PTR [edx],0x2f
     f89:	13 05 14 08 ad 05    	adc    eax,DWORD PTR ds:0x5ad0814
     f8f:	15 91 05 13 91       	adc    eax,0x91130591
     f94:	9f                   	lahf   
     f95:	9f                   	lahf   
     f96:	9f                   	lahf   
     f97:	9f                   	lahf   
     f98:	9f                   	lahf   
     f99:	05 05 9f 05 01       	add    eax,0x1059f05
     f9e:	75 05                	jne    fa5 <.debug_info+0x2f>
     fa0:	31 5d 05             	xor    DWORD PTR [ebp+0x5],ebx
     fa3:	14 13                	adc    al,0x13
     fa5:	05 15 91 05 01       	add    eax,0x1059115
     faa:	91                   	xchg   ecx,eax
     fab:	02 02                	add    al,BYTE PTR [edx]
     fad:	00 01                	add    BYTE PTR [ecx],al
     faf:	01         	add    DWORD PTR [eax+0x3000000],edi

00000fb0 <.debug_line>:
     fb0:	b8 00 00 00 03       	mov    eax,0x3000000
     fb5:	00 3f                	add    BYTE PTR [edi],bh
     fb7:	00 00                	add    BYTE PTR [eax],al
     fb9:	00 01                	add    BYTE PTR [ecx],al
     fbb:	01 fb                	add    ebx,edi
     fbd:	0e                   	push   cs
     fbe:	0d 00 01 01 01       	or     eax,0x1010100
     fc3:	01 00                	add    DWORD PTR [eax],eax
     fc5:	00 00                	add    BYTE PTR [eax],al
     fc7:	01 00                	add    DWORD PTR [eax],eax
     fc9:	00 01                	add    BYTE PTR [ecx],al
     fcb:	73 72                	jae    103f <__section_alignment__+0x3f>
     fcd:	63 2f                	arpl   WORD PTR [edi],bp
     fcf:	6b 65 72 6e          	imul   esp,DWORD PTR [ebp+0x72],0x6e
     fd3:	65 6c                	gs ins BYTE PTR es:[edi],dx
     fd5:	00 2e                	add    BYTE PTR [esi],ch
     fd7:	2f                   	das    
     fd8:	69 6e 63 6c 75 64 65 	imul   ebp,DWORD PTR [esi+0x63],0x6564756c
     fdf:	00 00                	add    BYTE PTR [eax],al
     fe1:	63 70 75             	arpl   WORD PTR [eax+0x75],si
     fe4:	69 64 2e 63 00 01 00 	imul   esp,DWORD PTR [esi+ebp*1+0x63],0x100
     feb:	00 
     fec:	6b 65 72 6e          	imul   esp,DWORD PTR [ebp+0x72],0x6e
     ff0:	65 6c                	gs ins BYTE PTR es:[edi],dx
     ff2:	2e 68 00 02 00 00    	cs push 0x200
     ff8:	00 05 2c 00 05 02    	add    BYTE PTR ds:0x205002c,al
     ffe:	74 21                	je     1021 <__section_alignment__+0x21>
    1000:	10 00                	adc    BYTE PTR [eax],al
    1002:	15 05 44 75 05       	adc    eax,0x5754405
    1007:	57                   	push   edi
    1008:	9e                   	sahf   
    1009:	05 6a 74 05 05       	add    eax,0x505746a
    100e:	74 05                	je     1015 <__section_alignment__+0x15>
    1010:	01 08                	add    DWORD PTR [eax],ecx
    1012:	75 05                	jne    1019 <__section_alignment__+0x19>
    1014:	3c 92                	cmp    al,0x92
    1016:	05 44 75 05 57       	add    eax,0x57057544
    101b:	9e                   	sahf   
    101c:	05 6a 74 05 05       	add    eax,0x505746a
    1021:	74 05                	je     1028 <__section_alignment__+0x28>
    1023:	01 08                	add    DWORD PTR [eax],ecx
    1025:	c9                   	leave  
    1026:	05 11 92 05 09       	add    eax,0x9059211
    102b:	3d 05 05 02 28       	cmp    eax,0x28020505
    1030:	16                   	push   ss
    1031:	05 21 08 3e 05       	add    eax,0x53e0821
    1036:	11 4a 05             	adc    DWORD PTR [edx+0x5],ecx
    1039:	08 4c 05 09          	or     BYTE PTR [ebp+eax*1+0x9],cl
    103d:	75 05                	jne    1044 <__section_alignment__+0x44>
    103f:	08 bd 05 09 78 05    	or     BYTE PTR [ebp+0x5780905],bh
    1045:	2a 08                	sub    cl,BYTE PTR [eax]
    1047:	3e 05 2e 4a 05 19    	ds add eax,0x19054a2e
    104d:	3c 05                	cmp    al,0x5
    104f:	0c 77                	or     al,0x77
    1051:	05 0d 75 08 5a       	add    eax,0x5a08750d
    1056:	05 09 08 3e 05       	add    eax,0x53e0809
    105b:	01 08                	add    DWORD PTR [eax],ecx
    105d:	3e 05 16 5a 05 05    	ds add eax,0x5055a16
    1063:	3d 05 01 59 02       	cmp    eax,0x2590105
    1068:	05 00 01 01        	add    eax,0xc5010100

0000106c <.debug_line>:
    106c:	c5 00                	lds    eax,FWORD PTR [eax]
    106e:	00 00                	add    BYTE PTR [eax],al
    1070:	03 00                	add    eax,DWORD PTR [eax]
    1072:	7c 00                	jl     1074 <.debug_line+0x8>
    1074:	00 00                	add    BYTE PTR [eax],al
    1076:	01 01                	add    DWORD PTR [ecx],eax
    1078:	fb                   	sti    
    1079:	0e                   	push   cs
    107a:	0d 00 01 01 01       	or     eax,0x1010100
    107f:	01 00                	add    DWORD PTR [eax],eax
    1081:	00 00                	add    BYTE PTR [eax],al
    1083:	01 00                	add    DWORD PTR [eax],eax
    1085:	00 01                	add    BYTE PTR [ecx],al
    1087:	73 72                	jae    10fb <.debug_line+0x8f>
    1089:	63 2f                	arpl   WORD PTR [edi],bp
    108b:	6b 65 72 6e          	imul   esp,DWORD PTR [ebp+0x72],0x6e
    108f:	65 6c                	gs ins BYTE PTR es:[edi],dx
    1091:	00 2f                	add    BYTE PTR [edi],ch
    1093:	75 73                	jne    1108 <.debug_line+0x9c>
    1095:	72 2f                	jb     10c6 <.debug_line+0x5a>
    1097:	6c                   	ins    BYTE PTR es:[edi],dx
    1098:	69 62 2f 67 63 63 2f 	imul   esp,DWORD PTR [edx+0x2f],0x2f636367
    109f:	78 38                	js     10d9 <.debug_line+0x6d>
    10a1:	36 5f                	ss pop edi
    10a3:	36 34 2d             	ss xor al,0x2d
    10a6:	77 36                	ja     10de <.debug_line+0x72>
    10a8:	34 2d                	xor    al,0x2d
    10aa:	6d                   	ins    DWORD PTR es:[edi],dx
    10ab:	69 6e 67 77 33 32 2f 	imul   ebp,DWORD PTR [esi+0x67],0x2f323377
    10b2:	39 2e                	cmp    DWORD PTR [esi],ebp
    10b4:	33 2d 77 69 6e 33    	xor    ebp,DWORD PTR ds:0x336e6977
    10ba:	32 2f                	xor    ch,BYTE PTR [edi]
    10bc:	69 6e 63 6c 75 64 65 	imul   ebp,DWORD PTR [esi+0x63],0x6564756c
    10c3:	00 2e                	add    BYTE PTR [esi],ch
    10c5:	2f                   	das    
    10c6:	69 6e 63 6c 75 64 65 	imul   ebp,DWORD PTR [esi+0x63],0x6564756c
    10cd:	00 00                	add    BYTE PTR [eax],al
    10cf:	70 6d                	jo     113e <.debug_line+0xd2>
    10d1:	6d                   	ins    DWORD PTR es:[edi],dx
    10d2:	2e 63 00             	arpl   WORD PTR cs:[eax],ax
    10d5:	01 00                	add    DWORD PTR [eax],eax
    10d7:	00 73 74             	add    BYTE PTR [ebx+0x74],dh
    10da:	64 69 6e 74 2d 67 63 	imul   ebp,DWORD PTR fs:[esi+0x74],0x6363672d
    10e1:	63 
    10e2:	2e 68 00 02 00 00    	cs push 0x200
    10e8:	70 6d                	jo     1157 <.debug_line+0xeb>
    10ea:	6d                   	ins    DWORD PTR es:[edi],dx
    10eb:	2e 68 00 03 00 00    	cs push 0x300
    10f1:	00 05 22 00 05 02    	add    BYTE PTR ds:0x2050022,al
    10f7:	d4 22                	aam    0x22
    10f9:	10 00                	adc    BYTE PTR [eax],al
    10fb:	03 09                	add    ecx,DWORD PTR [ecx]
    10fd:	01 05 1d 3d 05 12    	add    DWORD PTR ds:0x12053d1d,eax
    1103:	74 05                	je     110a <.debug_line+0x9e>
    1105:	20 5a 05             	and    BYTE PTR [edx+0x5],bl
    1108:	11 82 05 14 59 05    	adc    DWORD PTR [edx+0x5591405],eax
    110e:	28 ba 05 07 58 05    	sub    BYTE PTR [edx+0x5580705],bh
    1114:	14 4b                	adc    al,0x4b
    1116:	05 05 cb 05 1b       	add    eax,0x1b05cb05
    111b:	08 e7                	or     bh,ah
    111d:	05 0f 08 66 05       	add    eax,0x566080f
    1122:	05 5a 08 67 08       	add    eax,0x867085a
    1127:	4b                   	dec    ebx
    1128:	08 4b 08             	or     BYTE PTR [ebx+0x8],cl
    112b:	4b                   	dec    ebx
    112c:	05 01 08 4b 02       	add    eax,0x24b0801
    1131:	05                   	.byte 0x5
    1132:	00 01                	add    BYTE PTR [ecx],al
    1134:	01                   	.byte 0x1

Disassembly of section .debug_str:

00000000 <.debug_str>:
   0:	70 72                	jo     74 <.debug_aranges+0x14>
   2:	65 63 69 73          	arpl   WORD PTR gs:[ecx+0x73],bp
   6:	69 6f 6e 00    	imul   ebp,DWORD PTR [edi+0x6e],0x6e616800

0000000a <.debug_str>:
   a:	68 61 6e 64 6c       	push   0x6c646e61
   f:	65 72 00             	gs jb  12 <.debug_str>

00000012 <.debug_str>:
  12:	49                   	dec    ecx
  13:	6e                   	outs   dx,BYTE PTR ds:[esi]
  14:	66 6f                	outs   dx,WORD PTR ds:[esi]
  16:	54                   	push   esp
  17:	79 70                	jns    89 <.debug_aranges+0x9>
  19:	65                   	gs
	...

Disassembly of section .debug_frame:

00000000 <.debug_frame>:
   0:	10 00                	adc    BYTE PTR [eax],al
   2:	00 00                	add    BYTE PTR [eax],al
   4:	ff                   	(bad)  
   5:	ff                   	(bad)  
   6:	ff                   	(bad)  
   7:	ff 01                	inc    DWORD PTR [ecx]
   9:	00 01                	add    BYTE PTR [ecx],al
   b:	7c 08                	jl     15 <.debug_str+0x3>
   d:	0c 04                	or     al,0x4
   f:	04 88                	add    al,0x88
  11:	01 00                	add    DWORD PTR [eax],eax
  13:	00 14 00             	add    BYTE PTR [eax+eax*1],dl
  16:	00 00                	add    BYTE PTR [eax],al
  18:	00 00                	add    BYTE PTR [eax],al
  1a:	00 00                	add    BYTE PTR [eax],al
  1c:	30 02                	xor    BYTE PTR [edx],al
  1e:	10 00                	adc    BYTE PTR [eax],al
  20:	03 01                	add    eax,DWORD PTR [ecx]
  22:	00 00                	add    BYTE PTR [eax],al
  24:	43                   	inc    ebx
  25:	0e                   	push   cs
  26:	30 02                	xor    BYTE PTR [edx],al
  28:	ff 0e                	dec    DWORD PTR [esi]
  2a:	04 00                	add    al,0x0

0000002c <.debug_frame>:
  2c:	10 00                	adc    BYTE PTR [eax],al
  2e:	00 00                	add    BYTE PTR [eax],al
  30:	ff                   	(bad)  
  31:	ff                   	(bad)  
  32:	ff                   	(bad)  
  33:	ff 01                	inc    DWORD PTR [ecx]
  35:	00 01                	add    BYTE PTR [ecx],al
  37:	7c 08                	jl     41 <.debug_aranges+0x1>
  39:	0c 04                	or     al,0x4
  3b:	04 88                	add    al,0x88
  3d:	01 00                	add    DWORD PTR [eax],eax
  3f:	00 0c 00             	add    BYTE PTR [eax+eax*1],cl
  42:	00 00                	add    BYTE PTR [eax],al
  44:	2c 00                	sub    al,0x0
  46:	00 00                	add    BYTE PTR [eax],al
  48:	34 03                	xor    al,0x3
  4a:	10 00                	adc    BYTE PTR [eax],al
  4c:	19 00                	sbb    DWORD PTR [eax],eax
  4e:	00 00                	add    BYTE PTR [eax],al
  50:	14 00                	adc    al,0x0
  52:	00 00                	add    BYTE PTR [eax],al
  54:	2c 00                	sub    al,0x0
  56:	00 00                	add    BYTE PTR [eax],al
  58:	4d                   	dec    ebp
  59:	03 10                	add    edx,DWORD PTR [eax]
  5b:	00 5e 00             	add    BYTE PTR [esi+0x0],bl
  5e:	00 00                	add    BYTE PTR [eax],al
  60:	43                   	inc    ebx
  61:	0e                   	push   cs
  62:	30 02                	xor    BYTE PTR [edx],al
  64:	5a                   	pop    edx
  65:	0e                   	push   cs
  66:	04 00                	add    al,0x0
  68:	14 00                	adc    al,0x0
  6a:	00 00                	add    BYTE PTR [eax],al
  6c:	2c 00                	sub    al,0x0
  6e:	00 00                	add    BYTE PTR [eax],al
  70:	ab                   	stos   DWORD PTR es:[edi],eax
  71:	03 10                	add    edx,DWORD PTR [eax]
  73:	00 72 00             	add    BYTE PTR [edx+0x0],dh
  76:	00 00                	add    BYTE PTR [eax],al
  78:	43                   	inc    ebx
  79:	0e                   	push   cs
  7a:	20 02                	and    BYTE PTR [edx],al
  7c:	6e                   	outs   dx,BYTE PTR ds:[esi]
  7d:	0e                   	push   cs
  7e:	04 00                	add    al,0x0
  80:	14 00                	adc    al,0x0
  82:	00 00                	add    BYTE PTR [eax],al
  84:	2c 00                	sub    al,0x0
  86:	00 00                	add    BYTE PTR [eax],al
  88:	1d 04 10 00 21       	sbb    eax,0x21001004
  8d:	00 00                	add    BYTE PTR [eax],al
  8f:	00 43 0e             	add    BYTE PTR [ebx+0xe],al
  92:	0c 5d                	or     al,0x5d
  94:	0e                   	push   cs
  95:	04 00                	add    al,0x0
  97:	00 14 00             	add    BYTE PTR [eax+eax*1],dl
  9a:	00 00                	add    BYTE PTR [eax],al
  9c:	2c 00                	sub    al,0x0
  9e:	00 00                	add    BYTE PTR [eax],al
  a0:	3e 04 10             	ds add al,0x10
  a3:	00 38                	add    BYTE PTR [eax],bh
  a5:	00 00                	add    BYTE PTR [eax],al
  a7:	00 43 0e             	add    BYTE PTR [ebx+0xe],al
  aa:	1c 74                	sbb    al,0x74
  ac:	0e                   	push   cs
  ad:	04 00                	add    al,0x0
  af:	00 14 00             	add    BYTE PTR [eax+eax*1],dl
  b2:	00 00                	add    BYTE PTR [eax],al
  b4:	2c 00                	sub    al,0x0
  b6:	00 00                	add    BYTE PTR [eax],al
  b8:	76 04                	jbe    be <.debug_aranges+0x1e>
  ba:	10 00                	adc    BYTE PTR [eax],al
  bc:	39 00                	cmp    DWORD PTR [eax],eax
  be:	00 00                	add    BYTE PTR [eax],al
  c0:	43                   	inc    ebx
  c1:	0e                   	push   cs
  c2:	0c 75                	or     al,0x75
  c4:	0e                   	push   cs
  c5:	04 00                	add    al,0x0
  c7:	00 14 00             	add    BYTE PTR [eax+eax*1],dl
  ca:	00 00                	add    BYTE PTR [eax],al
  cc:	2c 00                	sub    al,0x0
  ce:	00 00                	add    BYTE PTR [eax],al
  d0:	af                   	scas   eax,DWORD PTR es:[edi]
  d1:	04 10                	add    al,0x10
  d3:	00 b8 00 00 00 43    	add    BYTE PTR [eax+0x43000000],bh
  d9:	0e                   	push   cs
  da:	40                   	inc    eax
  db:	02 b4 0e 04 00 14 00 	add    dh,BYTE PTR [esi+ecx*1+0x140004]
  e2:	00 00                	add    BYTE PTR [eax],al
  e4:	2c 00                	sub    al,0x0
  e6:	00 00                	add    BYTE PTR [eax],al
  e8:	67 05 10 00 41 00    	addr16 add eax,0x410010
  ee:	00 00                	add    BYTE PTR [eax],al
  f0:	43                   	inc    ebx
  f1:	0e                   	push   cs
  f2:	30 7d 0e             	xor    BYTE PTR [ebp+0xe],bh
  f5:	04 00                	add    al,0x0
  f7:	00 14 00             	add    BYTE PTR [eax+eax*1],dl
  fa:	00 00                	add    BYTE PTR [eax],al
  fc:	2c 00                	sub    al,0x0
  fe:	00 00                	add    BYTE PTR [eax],al
 100:	a8 05                	test   al,0x5
 102:	10 00                	adc    BYTE PTR [eax],al
 104:	95                   	xchg   ebp,eax
 105:	00 00                	add    BYTE PTR [eax],al
 107:	00 43 0e             	add    BYTE PTR [ebx+0xe],al
 10a:	30 02                	xor    BYTE PTR [edx],al
 10c:	91                   	xchg   ecx,eax
 10d:	0e                   	push   cs
 10e:	04 00                	add    al,0x0

00000110 <.debug_frame>:
 110:	10 00                	adc    BYTE PTR [eax],al
 112:	00 00                	add    BYTE PTR [eax],al
 114:	ff                   	(bad)  
 115:	ff                   	(bad)  
 116:	ff                   	(bad)  
 117:	ff 01                	inc    DWORD PTR [ecx]
 119:	00 01                	add    BYTE PTR [ecx],al
 11b:	7c 08                	jl     125 <.debug_aranges+0x5>
 11d:	0c 04                	or     al,0x4
 11f:	04 88                	add    al,0x88
 121:	01 00                	add    DWORD PTR [eax],eax
 123:	00 14 00             	add    BYTE PTR [eax+eax*1],dl
 126:	00 00                	add    BYTE PTR [eax],al
 128:	10 01                	adc    BYTE PTR [ecx],al
 12a:	00 00                	add    BYTE PTR [eax],al
 12c:	40                   	inc    eax
 12d:	06                   	push   es
 12e:	10 00                	adc    BYTE PTR [eax],al
 130:	1f                   	pop    ds
 131:	00 00                	add    BYTE PTR [eax],al
 133:	00 43 0e             	add    BYTE PTR [ebx+0xe],al
 136:	18 5b 0e             	sbb    BYTE PTR [ebx+0xe],bl
 139:	04 00                	add    al,0x0
 13b:	00 14 00             	add    BYTE PTR [eax+eax*1],dl
 13e:	00 00                	add    BYTE PTR [eax],al
 140:	10 01                	adc    BYTE PTR [ecx],al
 142:	00 00                	add    BYTE PTR [eax],al
 144:	5f                   	pop    edi
 145:	06                   	push   es
 146:	10 00                	adc    BYTE PTR [eax],al
 148:	24 00                	and    al,0x0
 14a:	00 00                	add    BYTE PTR [eax],al
 14c:	43                   	inc    ebx
 14d:	0e                   	push   cs
 14e:	0c 60                	or     al,0x60
 150:	0e                   	push   cs
 151:	04 00                	add    al,0x0
 153:	00 14 00             	add    BYTE PTR [eax+eax*1],dl
 156:	00 00                	add    BYTE PTR [eax],al
 158:	10 01                	adc    BYTE PTR [ecx],al
 15a:	00 00                	add    BYTE PTR [eax],al
 15c:	83 06 10             	add    DWORD PTR [esi],0x10
 15f:	00 21                	add    BYTE PTR [ecx],ah
 161:	00 00                	add    BYTE PTR [eax],al
 163:	00 43 0e             	add    BYTE PTR [ebx+0xe],al
 166:	18 5d 0e             	sbb    BYTE PTR [ebp+0xe],bl
 169:	04 00                	add    al,0x0
 16b:	00 14 00             	add    BYTE PTR [eax+eax*1],dl
 16e:	00 00                	add    BYTE PTR [eax],al
 170:	10 01                	adc    BYTE PTR [ecx],al
 172:	00 00                	add    BYTE PTR [eax],al
 174:	a4                   	movs   BYTE PTR es:[edi],BYTE PTR ds:[esi]
 175:	06                   	push   es
 176:	10 00                	adc    BYTE PTR [eax],al
 178:	24 00                	and    al,0x0
 17a:	00 00                	add    BYTE PTR [eax],al
 17c:	43                   	inc    ebx
 17d:	0e                   	push   cs
 17e:	0c 60                	or     al,0x60
 180:	0e                   	push   cs
 181:	04 00                	add    al,0x0
	...

00000184 <.debug_frame>:
 184:	10 00                	adc    BYTE PTR [eax],al
 186:	00 00                	add    BYTE PTR [eax],al
 188:	ff                   	(bad)  
 189:	ff                   	(bad)  
 18a:	ff                   	(bad)  
 18b:	ff 01                	inc    DWORD PTR [ecx]
 18d:	00 01                	add    BYTE PTR [ecx],al
 18f:	7c 08                	jl     199 <.debug_frame+0x15>
 191:	0c 04                	or     al,0x4
 193:	04 88                	add    al,0x88
 195:	01 00                	add    DWORD PTR [eax],eax
 197:	00 0c 00             	add    BYTE PTR [eax+eax*1],cl
 19a:	00 00                	add    BYTE PTR [eax],al
 19c:	84 01                	test   BYTE PTR [ecx],al
 19e:	00 00                	add    BYTE PTR [eax],al
 1a0:	c8 06 10 00          	enter  0x1006,0x0
 1a4:	39 00                	cmp    DWORD PTR [eax],eax
 1a6:	00 00                	add    BYTE PTR [eax],al
 1a8:	14 00                	adc    al,0x0
 1aa:	00 00                	add    BYTE PTR [eax],al
 1ac:	84 01                	test   BYTE PTR [ecx],al
 1ae:	00 00                	add    BYTE PTR [eax],al
 1b0:	01 07                	add    DWORD PTR [edi],eax
 1b2:	10 00                	adc    BYTE PTR [eax],al
 1b4:	4f                   	dec    edi
 1b5:	00 00                	add    BYTE PTR [eax],al
 1b7:	00 43 0e             	add    BYTE PTR [ebx+0xe],al
 1ba:	14 02                	adc    al,0x2
 1bc:	4b                   	dec    ebx
 1bd:	0e                   	push   cs
 1be:	04 00                	add    al,0x0
 1c0:	14 00                	adc    al,0x0
 1c2:	00 00                	add    BYTE PTR [eax],al
 1c4:	84 01                	test   BYTE PTR [ecx],al
 1c6:	00 00                	add    BYTE PTR [eax],al
 1c8:	50                   	push   eax
 1c9:	07                   	pop    es
 1ca:	10 00                	adc    BYTE PTR [eax],al
 1cc:	39 00                	cmp    DWORD PTR [eax],eax
 1ce:	00 00                	add    BYTE PTR [eax],al
 1d0:	43                   	inc    ebx
 1d1:	0e                   	push   cs
 1d2:	18 75 0e             	sbb    BYTE PTR [ebp+0xe],dh
 1d5:	04 00                	add    al,0x0
	...

000001d8 <.debug_frame>:
 1d8:	10 00                	adc    BYTE PTR [eax],al
 1da:	00 00                	add    BYTE PTR [eax],al
 1dc:	ff                   	(bad)  
 1dd:	ff                   	(bad)  
 1de:	ff                   	(bad)  
 1df:	ff 01                	inc    DWORD PTR [ecx]
 1e1:	00 01                	add    BYTE PTR [ecx],al
 1e3:	7c 08                	jl     1ed <.debug_frame+0x15>
 1e5:	0c 04                	or     al,0x4
 1e7:	04 88                	add    al,0x88
 1e9:	01 00                	add    DWORD PTR [eax],eax
 1eb:	00 14 00             	add    BYTE PTR [eax+eax*1],dl
 1ee:	00 00                	add    BYTE PTR [eax],al
 1f0:	d8 01                	fadd   DWORD PTR [ecx]
 1f2:	00 00                	add    BYTE PTR [eax],al
 1f4:	8c 07                	mov    WORD PTR [edi],es
 1f6:	10 00                	adc    BYTE PTR [eax],al
 1f8:	2c 00                	sub    al,0x0
 1fa:	00 00                	add    BYTE PTR [eax],al
 1fc:	43                   	inc    ebx
 1fd:	0e                   	push   cs
 1fe:	14 68                	adc    al,0x68
 200:	0e                   	push   cs
 201:	04 00                	add    al,0x0
 203:	00 14 00             	add    BYTE PTR [eax+eax*1],dl
 206:	00 00                	add    BYTE PTR [eax],al
 208:	d8 01                	fadd   DWORD PTR [ecx]
 20a:	00 00                	add    BYTE PTR [eax],al
 20c:	b8 07 10 00 38       	mov    eax,0x38001007
 211:	00 00                	add    BYTE PTR [eax],al
 213:	00 43 0e             	add    BYTE PTR [ebx+0xe],al
 216:	14 74                	adc    al,0x74
 218:	0e                   	push   cs
 219:	04 00                	add    al,0x0
 21b:	00 14 00             	add    BYTE PTR [eax+eax*1],dl
 21e:	00 00                	add    BYTE PTR [eax],al
 220:	d8 01                	fadd   DWORD PTR [ecx]
 222:	00 00                	add    BYTE PTR [eax],al
 224:	f0 07                	lock pop es
 226:	10 00                	adc    BYTE PTR [eax],al
 228:	97                   	xchg   edi,eax
 229:	00 00                	add    BYTE PTR [eax],al
 22b:	00 43 0e             	add    BYTE PTR [ebx+0xe],al
 22e:	14 02                	adc    al,0x2
 230:	93                   	xchg   ebx,eax
 231:	0e                   	push   cs
 232:	04 00                	add    al,0x0
 234:	14 00                	adc    al,0x0
 236:	00 00                	add    BYTE PTR [eax],al
 238:	d8 01                	fadd   DWORD PTR [ecx]
 23a:	00 00                	add    BYTE PTR [eax],al
 23c:	87 08                	xchg   DWORD PTR [eax],ecx
 23e:	10 00                	adc    BYTE PTR [eax],al
 240:	55                   	push   ebp
 241:	00 00                	add    BYTE PTR [eax],al
 243:	00 43 0e             	add    BYTE PTR [ebx+0xe],al
 246:	14 02                	adc    al,0x2
 248:	51                   	push   ecx
 249:	0e                   	push   cs
 24a:	04 00                	add    al,0x0
 24c:	14 00                	adc    al,0x0
 24e:	00 00                	add    BYTE PTR [eax],al
 250:	d8 01                	fadd   DWORD PTR [ecx]
 252:	00 00                	add    BYTE PTR [eax],al
 254:	dc 08                	fmul   QWORD PTR [eax]
 256:	10 00                	adc    BYTE PTR [eax],al
 258:	88 00                	mov    BYTE PTR [eax],al
 25a:	00 00                	add    BYTE PTR [eax],al
 25c:	43                   	inc    ebx
 25d:	0e                   	push   cs
 25e:	30 02                	xor    BYTE PTR [edx],al
 260:	84 0e                	test   BYTE PTR [esi],cl
 262:	04 00                	add    al,0x0
 264:	14 00                	adc    al,0x0
 266:	00 00                	add    BYTE PTR [eax],al
 268:	d8 01                	fadd   DWORD PTR [ecx]
 26a:	00 00                	add    BYTE PTR [eax],al
 26c:	64 09 10             	or     DWORD PTR fs:[eax],edx
 26f:	00 3c 00             	add    BYTE PTR [eax+eax*1],bh
 272:	00 00                	add    BYTE PTR [eax],al
 274:	43                   	inc    ebx
 275:	0e                   	push   cs
 276:	14 78                	adc    al,0x78
 278:	0e                   	push   cs
 279:	04 00                	add    al,0x0
 27b:	00 14 00             	add    BYTE PTR [eax+eax*1],dl
 27e:	00 00                	add    BYTE PTR [eax],al
 280:	d8 01                	fadd   DWORD PTR [ecx]
 282:	00 00                	add    BYTE PTR [eax],al
 284:	a0 09 10 00 5b       	mov    al,ds:0x5b001009
 289:	00 00                	add    BYTE PTR [eax],al
 28b:	00 43 0e             	add    BYTE PTR [ebx+0xe],al
 28e:	30 02                	xor    BYTE PTR [edx],al
 290:	57                   	push   edi
 291:	0e                   	push   cs
 292:	04 00                	add    al,0x0
 294:	14 00                	adc    al,0x0
 296:	00 00                	add    BYTE PTR [eax],al
 298:	d8 01                	fadd   DWORD PTR [ecx]
 29a:	00 00                	add    BYTE PTR [eax],al
 29c:	fb                   	sti    
 29d:	09 10                	or     DWORD PTR [eax],edx
 29f:	00 5d 00             	add    BYTE PTR [ebp+0x0],bl
 2a2:	00 00                	add    BYTE PTR [eax],al
 2a4:	43                   	inc    ebx
 2a5:	0e                   	push   cs
 2a6:	14 02                	adc    al,0x2
 2a8:	59                   	pop    ecx
 2a9:	0e                   	push   cs
 2aa:	04 00                	add    al,0x0
 2ac:	14 00                	adc    al,0x0
 2ae:	00 00                	add    BYTE PTR [eax],al
 2b0:	d8 01                	fadd   DWORD PTR [ecx]
 2b2:	00 00                	add    BYTE PTR [eax],al
 2b4:	58                   	pop    eax
 2b5:	0a 10                	or     dl,BYTE PTR [eax]
 2b7:	00 e7                	add    bh,ah
 2b9:	00 00                	add    BYTE PTR [eax],al
 2bb:	00 43 0e             	add    BYTE PTR [ebx+0xe],al
 2be:	14 02                	adc    al,0x2
 2c0:	e3 0e                	jecxz  2d0 <.debug_abbrev+0x9e>
 2c2:	04 00                	add    al,0x0
 2c4:	14 00                	adc    al,0x0
 2c6:	00 00                	add    BYTE PTR [eax],al
 2c8:	d8 01                	fadd   DWORD PTR [ecx]
 2ca:	00 00                	add    BYTE PTR [eax],al
 2cc:	3f                   	aas    
 2cd:	0b 10                	or     edx,DWORD PTR [eax]
 2cf:	00 aa 00 00 00 43    	add    BYTE PTR [edx+0x43000000],ch
 2d5:	0e                   	push   cs
 2d6:	30 02                	xor    BYTE PTR [edx],al
 2d8:	a6                   	cmps   BYTE PTR ds:[esi],BYTE PTR es:[edi]
 2d9:	0e                   	push   cs
 2da:	04 00                	add    al,0x0
 2dc:	14 00                	adc    al,0x0
 2de:	00 00                	add    BYTE PTR [eax],al
 2e0:	d8 01                	fadd   DWORD PTR [ecx]
 2e2:	00 00                	add    BYTE PTR [eax],al
 2e4:	e9 0b 10 00 3e       	jmp    3e0012f4 <MULTIBOOT_HEADER_MAGIC+0x225262f2>
 2e9:	00 00                	add    BYTE PTR [eax],al
 2eb:	00 43 0e             	add    BYTE PTR [ebx+0xe],al
 2ee:	08 7a 0e             	or     BYTE PTR [edx+0xe],bh
 2f1:	04 00                	add    al,0x0
 2f3:	00 14 00             	add    BYTE PTR [eax+eax*1],dl
 2f6:	00 00                	add    BYTE PTR [eax],al
 2f8:	d8 01                	fadd   DWORD PTR [ecx]
 2fa:	00 00                	add    BYTE PTR [eax],al
 2fc:	27                   	daa    
 2fd:	0c 10                	or     al,0x10
 2ff:	00 26                	add    BYTE PTR [esi],ah
 301:	00 00                	add    BYTE PTR [eax],al
 303:	00 43 0e             	add    BYTE PTR [ebx+0xe],al
 306:	08 62 0e             	or     BYTE PTR [edx+0xe],ah
 309:	04 00                	add    al,0x0
 30b:	00 14 00             	add    BYTE PTR [eax+eax*1],dl
 30e:	00 00                	add    BYTE PTR [eax],al
 310:	d8 01                	fadd   DWORD PTR [ecx]
 312:	00 00                	add    BYTE PTR [eax],al
 314:	4d                   	dec    ebp
 315:	0c 10                	or     al,0x10
 317:	00 97 00 00 00 43    	add    BYTE PTR [edi+0x43000000],dl
 31d:	0e                   	push   cs
 31e:	24 02                	and    al,0x2
 320:	93                   	xchg   ebx,eax
 321:	0e                   	push   cs
 322:	04 00                	add    al,0x0

00000324 <.debug_frame>:
 324:	10 00                	adc    BYTE PTR [eax],al
 326:	00 00                	add    BYTE PTR [eax],al
 328:	ff                   	(bad)  
 329:	ff                   	(bad)  
 32a:	ff                   	(bad)  
 32b:	ff 01                	inc    DWORD PTR [ecx]
 32d:	00 01                	add    BYTE PTR [ecx],al
 32f:	7c 08                	jl     339 <.debug_frame+0x15>
 331:	0c 04                	or     al,0x4
 333:	04 88                	add    al,0x88
 335:	01 00                	add    DWORD PTR [eax],eax
 337:	00 0c 00             	add    BYTE PTR [eax+eax*1],cl
 33a:	00 00                	add    BYTE PTR [eax],al
 33c:	24 03                	and    al,0x3
 33e:	00 00                	add    BYTE PTR [eax],al
 340:	e4 0c                	in     al,0xc
 342:	10 00                	adc    BYTE PTR [eax],al
 344:	1a 00                	sbb    al,BYTE PTR [eax]
 346:	00 00                	add    BYTE PTR [eax],al
 348:	1c 00                	sbb    al,0x0
 34a:	00 00                	add    BYTE PTR [eax],al
 34c:	24 03                	and    al,0x3
 34e:	00 00                	add    BYTE PTR [eax],al
 350:	fe 0c 10             	dec    BYTE PTR [eax+edx*1]
 353:	00 5c 00 00          	add    BYTE PTR [eax+eax*1+0x0],bl
 357:	00 41 0e             	add    BYTE PTR [ecx+0xe],al
 35a:	08 83 02 43 0e 1c    	or     BYTE PTR [ebx+0x1c0e4302],al
 360:	02 56 0e             	add    dl,BYTE PTR [esi+0xe]
 363:	08 41 c3             	or     BYTE PTR [ecx-0x3d],al
 366:	0e                   	push   cs
 367:	04 14                	add    al,0x14
 369:	00 00                	add    BYTE PTR [eax],al
 36b:	00 24 03             	add    BYTE PTR [ebx+eax*1],ah
 36e:	00 00                	add    BYTE PTR [eax],al
 370:	5a                   	pop    edx
 371:	0d 10 00 81 02       	or     eax,0x2810010
 376:	00 00                	add    BYTE PTR [eax],al
 378:	43                   	inc    ebx
 379:	0e                   	push   cs
 37a:	64 03 7d 02          	add    edi,DWORD PTR fs:[ebp+0x2]
 37e:	0e                   	push   cs
 37f:	04 14                	add    al,0x14
 381:	00 00                	add    BYTE PTR [eax],al
 383:	00 24 03             	add    BYTE PTR [ebx+eax*1],ah
 386:	00 00                	add    BYTE PTR [eax],al
 388:	db 0f                	fisttp DWORD PTR [edi]
 38a:	10 00                	adc    BYTE PTR [eax],al
 38c:	e8 04 00 00 43       	call   43000395 <MULTIBOOT_HEADER_MAGIC+0x27525393>
 391:	0e                   	push   cs
 392:	60                   	pusha  
 393:	03 e4                	add    esp,esp
 395:	04 0e                	add    al,0xe
 397:	04 14                	add    al,0x14
 399:	00 00                	add    BYTE PTR [eax],al
 39b:	00 24 03             	add    BYTE PTR [ebx+eax*1],ah
 39e:	00 00                	add    BYTE PTR [eax],al
 3a0:	c3                   	ret    
 3a1:	14 10                	adc    al,0x10
 3a3:	00 33                	add    BYTE PTR [ebx],dh
 3a5:	00 00                	add    BYTE PTR [eax],al
 3a7:	00 43 0e             	add    BYTE PTR [ebx+0xe],al
 3aa:	30 6f 0e             	xor    BYTE PTR [edi+0xe],ch
 3ad:	04 00                	add    al,0x0
 3af:	00 14 00             	add    BYTE PTR [eax+eax*1],dl
 3b2:	00 00                	add    BYTE PTR [eax],al
 3b4:	24 03                	and    al,0x3
 3b6:	00 00                	add    BYTE PTR [eax],al
 3b8:	f6 14 10             	not    BYTE PTR [eax+edx*1]
 3bb:	00 51 00             	add    BYTE PTR [ecx+0x0],dl
 3be:	00 00                	add    BYTE PTR [eax],al
 3c0:	46                   	inc    esi
 3c1:	0e                   	push   cs
 3c2:	b0 08                	mov    al,0x8
 3c4:	02 4a 0e             	add    cl,BYTE PTR [edx+0xe]
 3c7:	04                 	add    al,0x10

000003c8 <.debug_frame>:
 3c8:	10 00                	adc    BYTE PTR [eax],al
 3ca:	00 00                	add    BYTE PTR [eax],al
 3cc:	ff                   	(bad)  
 3cd:	ff                   	(bad)  
 3ce:	ff                   	(bad)  
 3cf:	ff 01                	inc    DWORD PTR [ecx]
 3d1:	00 01                	add    BYTE PTR [ecx],al
 3d3:	7c 08                	jl     3dd <.debug_frame+0x15>
 3d5:	0c 04                	or     al,0x4
 3d7:	04 88                	add    al,0x88
 3d9:	01 00                	add    DWORD PTR [eax],eax
 3db:	00 14 00             	add    BYTE PTR [eax+eax*1],dl
 3de:	00 00                	add    BYTE PTR [eax],al
 3e0:	c8 03 00 00          	enter  0x3,0x0
 3e4:	48                   	dec    eax
 3e5:	15 10 00 9d 00       	adc    eax,0x9d0010
 3ea:	00 00                	add    BYTE PTR [eax],al
 3ec:	43                   	inc    ebx
 3ed:	0e                   	push   cs
 3ee:	1c 02                	sbb    al,0x2
 3f0:	99                   	cdq    
 3f1:	0e                   	push   cs
 3f2:	04 00                	add    al,0x0
 3f4:	14 00                	adc    al,0x0
 3f6:	00 00                	add    BYTE PTR [eax],al
 3f8:	c8 03 00 00          	enter  0x3,0x0
 3fc:	e5 15                	in     eax,0x15
 3fe:	10 00                	adc    BYTE PTR [eax],al
 400:	13 01                	adc    eax,DWORD PTR [ecx]
 402:	00 00                	add    BYTE PTR [eax],al
 404:	43                   	inc    ebx
 405:	0e                   	push   cs
 406:	18 03                	sbb    BYTE PTR [ebx],al
 408:	0f 01 0e             	sidtd  [esi]
 40b:	04                 	add    al,0x10

0000040c <.debug_frame>:
 40c:	10 00                	adc    BYTE PTR [eax],al
 40e:	00 00                	add    BYTE PTR [eax],al
 410:	ff                   	(bad)  
 411:	ff                   	(bad)  
 412:	ff                   	(bad)  
 413:	ff 01                	inc    DWORD PTR [ecx]
 415:	00 01                	add    BYTE PTR [ecx],al
 417:	7c 08                	jl     421 <.debug_frame+0x15>
 419:	0c 04                	or     al,0x4
 41b:	04 88                	add    al,0x88
 41d:	01 00                	add    DWORD PTR [eax],eax
 41f:	00 14 00             	add    BYTE PTR [eax+eax*1],dl
 422:	00 00                	add    BYTE PTR [eax],al
 424:	0c 04                	or     al,0x4
 426:	00 00                	add    BYTE PTR [eax],al
 428:	f8                   	clc    
 429:	16                   	push   ss
 42a:	10 00                	adc    BYTE PTR [eax],al
 42c:	35 00 00 00 43       	xor    eax,0x43000000
 431:	0e                   	push   cs
 432:	20 71 0e             	and    BYTE PTR [ecx+0xe],dh
 435:	04 00                	add    al,0x0
 437:	00 14 00             	add    BYTE PTR [eax+eax*1],dl
 43a:	00 00                	add    BYTE PTR [eax],al
 43c:	0c 04                	or     al,0x4
 43e:	00 00                	add    BYTE PTR [eax],al
 440:	2d 17 10 00 6d       	sub    eax,0x6d001017
 445:	00 00                	add    BYTE PTR [eax],al
 447:	00 43 0e             	add    BYTE PTR [ebx+0xe],al
 44a:	1c 02                	sbb    al,0x2
 44c:	69 0e 04 00 14 00    	imul   ecx,DWORD PTR [esi],0x140004
 452:	00 00                	add    BYTE PTR [eax],al
 454:	0c 04                	or     al,0x4
 456:	00 00                	add    BYTE PTR [eax],al
 458:	9a 17 10 00 d0 00 00 	call   0x0:0xd0001017
 45f:	00 43 0e             	add    BYTE PTR [ebx+0xe],al
 462:	20 02                	and    BYTE PTR [edx],al
 464:	cc                   	int3   
 465:	0e                   	push   cs
 466:	04 00                	add    al,0x0
 468:	14 00                	adc    al,0x0
 46a:	00 00                	add    BYTE PTR [eax],al
 46c:	0c 04                	or     al,0x4
 46e:	00 00                	add    BYTE PTR [eax],al
 470:	6a 18                	push   0x18
 472:	10 00                	adc    BYTE PTR [eax],al
 474:	3f                   	aas    
 475:	00 00                	add    BYTE PTR [eax],al
 477:	00 43 0e             	add    BYTE PTR [ebx+0xe],al
 47a:	30 7b 0e             	xor    BYTE PTR [ebx+0xe],bh
 47d:	04 00                	add    al,0x0
 47f:	00 14 00             	add    BYTE PTR [eax+eax*1],dl
 482:	00 00                	add    BYTE PTR [eax],al
 484:	0c 04                	or     al,0x4
 486:	00 00                	add    BYTE PTR [eax],al
 488:	a9 18 10 00 59       	test   eax,0x59001018
 48d:	07                   	pop    es
 48e:	00 00                	add    BYTE PTR [eax],al
 490:	43                   	inc    ebx
 491:	0e                   	push   cs
 492:	20 03                	and    BYTE PTR [ebx],al
 494:	55                   	push   ebp
 495:	07                   	pop    es
 496:	0e                   	push   cs
 497:	04 14                	add    al,0x14
 499:	00 00                	add    BYTE PTR [eax],al
 49b:	00 0c 04             	add    BYTE PTR [esp+eax*1],cl
 49e:	00 00                	add    BYTE PTR [eax],al
 4a0:	02 20                	add    ah,BYTE PTR [eax]
 4a2:	10 00                	adc    BYTE PTR [eax],al
 4a4:	61                   	popa   
 4a5:	00 00                	add    BYTE PTR [eax],al
 4a7:	00 43 0e             	add    BYTE PTR [ebx+0xe],al
 4aa:	30 02                	xor    BYTE PTR [edx],al
 4ac:	5d                   	pop    ebp
 4ad:	0e                   	push   cs
 4ae:	04 00                	add    al,0x0
 4b0:	14 00                	adc    al,0x0
 4b2:	00 00                	add    BYTE PTR [eax],al
 4b4:	0c 04                	or     al,0x4
 4b6:	00 00                	add    BYTE PTR [eax],al
 4b8:	63 20                	arpl   WORD PTR [eax],sp
 4ba:	10 00                	adc    BYTE PTR [eax],al
 4bc:	4b                   	dec    ebx
 4bd:	00 00                	add    BYTE PTR [eax],al
 4bf:	00 43 0e             	add    BYTE PTR [ebx+0xe],al
 4c2:	30 02                	xor    BYTE PTR [edx],al
 4c4:	47                   	inc    edi
 4c5:	0e                   	push   cs
 4c6:	04 00                	add    al,0x0

000004c8 <.debug_frame>:
 4c8:	10 00                	adc    BYTE PTR [eax],al
 4ca:	00 00                	add    BYTE PTR [eax],al
 4cc:	ff                   	(bad)  
 4cd:	ff                   	(bad)  
 4ce:	ff                   	(bad)  
 4cf:	ff 01                	inc    DWORD PTR [ecx]
 4d1:	00 01                	add    BYTE PTR [ecx],al
 4d3:	7c 08                	jl     4dd <.debug_frame+0x15>
 4d5:	0c 04                	or     al,0x4
 4d7:	04 88                	add    al,0x88
 4d9:	01 00                	add    DWORD PTR [eax],eax
 4db:	00 14 00             	add    BYTE PTR [eax+eax*1],dl
 4de:	00 00                	add    BYTE PTR [eax],al
 4e0:	c8 04 00 00          	enter  0x4,0x0
 4e4:	b0 20                	mov    al,0x20
 4e6:	10 00                	adc    BYTE PTR [eax],al
 4e8:	b0 00                	mov    al,0x0
 4ea:	00 00                	add    BYTE PTR [eax],al
 4ec:	43                   	inc    ebx
 4ed:	0e                   	push   cs
 4ee:	40                   	inc    eax
 4ef:	02 ac 0e 04 00 0c 00 	add    ch,BYTE PTR [esi+ecx*1+0xc0004]
 4f6:	00 00                	add    BYTE PTR [eax],al
 4f8:	c8 04 00 00          	enter  0x4,0x0
 4fc:	60                   	pusha  
 4fd:	21 10                	and    DWORD PTR [eax],edx
 4ff:	00 14 00             	add    BYTE PTR [eax+eax*1],dl
	...

00000504 <.debug_frame>:
 504:	10 00                	adc    BYTE PTR [eax],al
 506:	00 00                	add    BYTE PTR [eax],al
 508:	ff                   	(bad)  
 509:	ff                   	(bad)  
 50a:	ff                   	(bad)  
 50b:	ff 01                	inc    DWORD PTR [ecx]
 50d:	00 01                	add    BYTE PTR [ecx],al
 50f:	7c 08                	jl     519 <.debug_frame+0x15>
 511:	0c 04                	or     al,0x4
 513:	04 88                	add    al,0x88
 515:	01 00                	add    DWORD PTR [eax],eax
 517:	00 38                	add    BYTE PTR [eax],bh
 519:	00 00                	add    BYTE PTR [eax],al
 51b:	00 04 05 00 00 74 21 	add    BYTE PTR [eax*1+0x21740000],al
 522:	10 00                	adc    BYTE PTR [eax],al
 524:	40                   	inc    eax
 525:	00 00                	add    BYTE PTR [eax],al
 527:	00 41 0e             	add    BYTE PTR [ecx+0xe],al
 52a:	08 85 02 41 0e 0c    	or     BYTE PTR [ebp+0xc0e4102],al
 530:	87 03                	xchg   DWORD PTR [ebx],eax
 532:	41                   	inc    ecx
 533:	0e                   	push   cs
 534:	10 86 04 41 0e 14    	adc    BYTE PTR [esi+0x140e4104],al
 53a:	83 05 43 0e 18 74 0e 	add    DWORD PTR ds:0x74180e43,0xe
 541:	14 41                	adc    al,0x41
 543:	c3                   	ret    
 544:	0e                   	push   cs
 545:	10 41 c6             	adc    BYTE PTR [ecx-0x3a],al
 548:	0e                   	push   cs
 549:	0c 41                	or     al,0x41
 54b:	c7                   	(bad)  
 54c:	0e                   	push   cs
 54d:	08 41 c5             	or     BYTE PTR [ecx-0x3b],al
 550:	0e                   	push   cs
 551:	04 00                	add    al,0x0
 553:	00 38                	add    BYTE PTR [eax],bh
 555:	00 00                	add    BYTE PTR [eax],al
 557:	00 04 05 00 00 b4 21 	add    BYTE PTR [eax*1+0x21b40000],al
 55e:	10 00                	adc    BYTE PTR [eax],al
 560:	46                   	inc    esi
 561:	00 00                	add    BYTE PTR [eax],al
 563:	00 41 0e             	add    BYTE PTR [ecx+0xe],al
 566:	08 85 02 41 0e 0c    	or     BYTE PTR [ebp+0xc0e4102],al
 56c:	87 03                	xchg   DWORD PTR [ebx],eax
 56e:	41                   	inc    ecx
 56f:	0e                   	push   cs
 570:	10 86 04 41 0e 14    	adc    BYTE PTR [esi+0x140e4104],al
 576:	83 05 43 0e 18 7a 0e 	add    DWORD PTR ds:0x7a180e43,0xe
 57d:	14 41                	adc    al,0x41
 57f:	c3                   	ret    
 580:	0e                   	push   cs
 581:	10 41 c6             	adc    BYTE PTR [ecx-0x3a],al
 584:	0e                   	push   cs
 585:	0c 41                	or     al,0x41
 587:	c7                   	(bad)  
 588:	0e                   	push   cs
 589:	08 41 c5             	or     BYTE PTR [ecx-0x3b],al
 58c:	0e                   	push   cs
 58d:	04 00                	add    al,0x0
 58f:	00 14 00             	add    BYTE PTR [eax+eax*1],dl
 592:	00 00                	add    BYTE PTR [eax],al
 594:	04 05                	add    al,0x5
 596:	00 00                	add    BYTE PTR [eax],al
 598:	fa                   	cli    
 599:	21 10                	and    DWORD PTR [eax],edx
 59b:	00 cd                	add    ch,cl
 59d:	00 00                	add    BYTE PTR [eax],al
 59f:	00 43 0e             	add    BYTE PTR [ebx+0xe],al
 5a2:	40                   	inc    eax
 5a3:	02 c9                	add    cl,cl
 5a5:	0e                   	push   cs
 5a6:	04 00                	add    al,0x0
 5a8:	14 00                	adc    al,0x0
 5aa:	00 00                	add    BYTE PTR [eax],al
 5ac:	04 05                	add    al,0x5
 5ae:	00 00                	add    BYTE PTR [eax],al
 5b0:	c7                   	(bad)  
 5b1:	22 10                	and    dl,BYTE PTR [eax]
 5b3:	00 0d 00 00 00 43    	add    BYTE PTR ds:0x43000000,cl
 5b9:	0e                   	push   cs
 5ba:	10 49 0e             	adc    BYTE PTR [ecx+0xe],cl
 5bd:	04 00                	add    al,0x0
	...

000005c0 <.debug_frame>:
 5c0:	10 00                	adc    BYTE PTR [eax],al
 5c2:	00 00                	add    BYTE PTR [eax],al
 5c4:	ff                   	(bad)  
 5c5:	ff                   	(bad)  
 5c6:	ff                   	(bad)  
 5c7:	ff 01                	inc    DWORD PTR [ecx]
 5c9:	00 01                	add    BYTE PTR [ecx],al
 5cb:	7c 08                	jl     5d5 <.debug_frame+0x15>
 5cd:	0c 04                	or     al,0x4
 5cf:	04 88                	add    al,0x88
 5d1:	01 00                	add    DWORD PTR [eax],eax
 5d3:	00 14 00             	add    BYTE PTR [eax+eax*1],dl
 5d6:	00 00                	add    BYTE PTR [eax],al
 5d8:	c0 05 00 00 d4 22 10 	rol    BYTE PTR ds:0x22d40000,0x10
 5df:	00 ea                	add    dl,ch
 5e1:	00 00                	add    BYTE PTR [eax],al
 5e3:	00 43 0e             	add    BYTE PTR [ebx+0xe],al
 5e6:	20 02                	and    BYTE PTR [edx],al
 5e8:	e6 0e                	out    0xe,al
 5ea:	04 00                	add    al,0x0

Disassembly of section .text:

00100000 <_start>:
  100000:	eb 22                	jmp    100024 <multiboot_entry>
  100002:	90                   	nop
  100003:	90                   	nop

00100004 <multiboot_header>:
  100004:	02 b0 ad 1b 03 00    	add    dh,BYTE PTR [eax+0x31bad]
  10000a:	01 00                	add    DWORD PTR [eax],eax
  10000c:	fb                   	sti    
  10000d:	4f                   	dec    edi
  10000e:	51                   	push   ecx
  10000f:	e4 04                	in     al,0x4
  100011:	00 10                	add    BYTE PTR [eax],dl
  100013:	00 00                	add    BYTE PTR [eax],al
  100015:	00 10                	add    BYTE PTR [eax],dl
	...
  10001f:	00 24 00             	add    BYTE PTR [eax+eax*1],ah
  100022:	10 00                	adc    BYTE PTR [eax],al

00100024 <multiboot_entry>:
  100024:	bc b8 26 12 00       	mov    esp,0x1226b8
  100029:	e8 02 02 00 00       	call   100230 <_kernel_main>
  10002e:	83 c4 08             	add    esp,0x8
  100031:	fa                   	cli    

00100032 <endloop>:
  100032:	f4                   	hlt    
  100033:	eb fd                	jmp    100032 <endloop>

00100035 <endloop.end>:
  100035:	66 90                	xchg   ax,ax
  100037:	66 90                	xchg   ax,ax
  100039:	66 90                	xchg   ax,ax
  10003b:	66 90                	xchg   ax,ax
  10003d:	66 90                	xchg   ax,ax
  10003f:	90                   	nop

00100040 <_exception0>:
  100040:	fa                   	cli    
  100041:	6a 00                	push   0x0
  100043:	6a 00                	push   0x0
  100045:	e9 01 01 00 00       	jmp    10014b <temp_exception_handler>

0010004a <_exception1>:
  10004a:	fa                   	cli    
  10004b:	6a 00                	push   0x0
  10004d:	6a 01                	push   0x1
  10004f:	e9 f7 00 00 00       	jmp    10014b <temp_exception_handler>

00100054 <_exception2>:
  100054:	fa                   	cli    
  100055:	6a 00                	push   0x0
  100057:	6a 02                	push   0x2
  100059:	e9 ed 00 00 00       	jmp    10014b <temp_exception_handler>

0010005e <_exception3>:
  10005e:	fa                   	cli    
  10005f:	6a 00                	push   0x0
  100061:	6a 03                	push   0x3
  100063:	e9 e3 00 00 00       	jmp    10014b <temp_exception_handler>

00100068 <_exception4>:
  100068:	fa                   	cli    
  100069:	6a 00                	push   0x0
  10006b:	6a 04                	push   0x4
  10006d:	e9 d9 00 00 00       	jmp    10014b <temp_exception_handler>

00100072 <_exception5>:
  100072:	fa                   	cli    
  100073:	6a 00                	push   0x0
  100075:	6a 05                	push   0x5
  100077:	e9 cf 00 00 00       	jmp    10014b <temp_exception_handler>

0010007c <_exception6>:
  10007c:	fa                   	cli    
  10007d:	6a 00                	push   0x0
  10007f:	6a 06                	push   0x6
  100081:	e9 c5 00 00 00       	jmp    10014b <temp_exception_handler>

00100086 <_exception7>:
  100086:	fa                   	cli    
  100087:	6a 00                	push   0x0
  100089:	6a 07                	push   0x7
  10008b:	e9 bb 00 00 00       	jmp    10014b <temp_exception_handler>

00100090 <_exception8>:
  100090:	fa                   	cli    
  100091:	6a 08                	push   0x8
  100093:	e9 b3 00 00 00       	jmp    10014b <temp_exception_handler>

00100098 <_exception9>:
  100098:	fa                   	cli    
  100099:	6a 00                	push   0x0
  10009b:	6a 09                	push   0x9
  10009d:	e9 a9 00 00 00       	jmp    10014b <temp_exception_handler>

001000a2 <_exception10>:
  1000a2:	fa                   	cli    
  1000a3:	6a 0a                	push   0xa
  1000a5:	e9 a1 00 00 00       	jmp    10014b <temp_exception_handler>

001000aa <_exception11>:
  1000aa:	fa                   	cli    
  1000ab:	6a 0b                	push   0xb
  1000ad:	e9 99 00 00 00       	jmp    10014b <temp_exception_handler>

001000b2 <_exception12>:
  1000b2:	fa                   	cli    
  1000b3:	6a 0c                	push   0xc
  1000b5:	e9 91 00 00 00       	jmp    10014b <temp_exception_handler>

001000ba <_exception13>:
  1000ba:	fa                   	cli    
  1000bb:	6a 0d                	push   0xd
  1000bd:	e9 89 00 00 00       	jmp    10014b <temp_exception_handler>

001000c2 <_exception14>:
  1000c2:	fa                   	cli    
  1000c3:	6a 0e                	push   0xe
  1000c5:	e9 81 00 00 00       	jmp    10014b <temp_exception_handler>

001000ca <_exception15>:
  1000ca:	fa                   	cli    
  1000cb:	6a 00                	push   0x0
  1000cd:	6a 0f                	push   0xf
  1000cf:	eb 7a                	jmp    10014b <temp_exception_handler>

001000d1 <_exception16>:
  1000d1:	fa                   	cli    
  1000d2:	6a 00                	push   0x0
  1000d4:	6a 10                	push   0x10
  1000d6:	eb 73                	jmp    10014b <temp_exception_handler>

001000d8 <_exception17>:
  1000d8:	fa                   	cli    
  1000d9:	6a 00                	push   0x0
  1000db:	6a 11                	push   0x11
  1000dd:	eb 6c                	jmp    10014b <temp_exception_handler>

001000df <_exception18>:
  1000df:	fa                   	cli    
  1000e0:	6a 00                	push   0x0
  1000e2:	6a 12                	push   0x12
  1000e4:	eb 65                	jmp    10014b <temp_exception_handler>

001000e6 <_exception19>:
  1000e6:	fa                   	cli    
  1000e7:	6a 00                	push   0x0
  1000e9:	6a 13                	push   0x13
  1000eb:	eb 5e                	jmp    10014b <temp_exception_handler>

001000ed <_exception20>:
  1000ed:	fa                   	cli    
  1000ee:	6a 00                	push   0x0
  1000f0:	6a 14                	push   0x14
  1000f2:	eb 57                	jmp    10014b <temp_exception_handler>

001000f4 <_exception21>:
  1000f4:	fa                   	cli    
  1000f5:	6a 00                	push   0x0
  1000f7:	6a 15                	push   0x15
  1000f9:	eb 50                	jmp    10014b <temp_exception_handler>

001000fb <_exception22>:
  1000fb:	fa                   	cli    
  1000fc:	6a 00                	push   0x0
  1000fe:	6a 16                	push   0x16
  100100:	eb 49                	jmp    10014b <temp_exception_handler>

00100102 <_exception23>:
  100102:	fa                   	cli    
  100103:	6a 00                	push   0x0
  100105:	6a 17                	push   0x17
  100107:	eb 42                	jmp    10014b <temp_exception_handler>

00100109 <_exception24>:
  100109:	fa                   	cli    
  10010a:	6a 00                	push   0x0
  10010c:	6a 18                	push   0x18
  10010e:	eb 3b                	jmp    10014b <temp_exception_handler>

00100110 <_exception25>:
  100110:	fa                   	cli    
  100111:	6a 00                	push   0x0
  100113:	6a 19                	push   0x19
  100115:	eb 34                	jmp    10014b <temp_exception_handler>

00100117 <_exception26>:
  100117:	fa                   	cli    
  100118:	6a 00                	push   0x0
  10011a:	6a 1a                	push   0x1a
  10011c:	eb 2d                	jmp    10014b <temp_exception_handler>

0010011e <_exception27>:
  10011e:	fa                   	cli    
  10011f:	6a 00                	push   0x0
  100121:	6a 1b                	push   0x1b
  100123:	eb 26                	jmp    10014b <temp_exception_handler>

00100125 <_exception28>:
  100125:	fa                   	cli    
  100126:	6a 00                	push   0x0
  100128:	6a 1c                	push   0x1c
  10012a:	eb 1f                	jmp    10014b <temp_exception_handler>

0010012c <_exception29>:
  10012c:	fa                   	cli    
  10012d:	6a 00                	push   0x0
  10012f:	6a 1d                	push   0x1d
  100131:	eb 18                	jmp    10014b <temp_exception_handler>

00100133 <_exception30>:
  100133:	fa                   	cli    
  100134:	6a 00                	push   0x0
  100136:	6a 1e                	push   0x1e
  100138:	eb 11                	jmp    10014b <temp_exception_handler>

0010013a <_exception31>:
  10013a:	fa                   	cli    
  10013b:	6a 00                	push   0x0
  10013d:	6a 1f                	push   0x1f
  10013f:	eb 0a                	jmp    10014b <temp_exception_handler>

00100141 <_exception128>:
  100141:	fa                   	cli    
  100142:	6a 00                	push   0x0
  100144:	68 80 00 00 00       	push   0x80
  100149:	eb 00                	jmp    10014b <temp_exception_handler>

0010014b <temp_exception_handler>:
  10014b:	60                   	pusha  
  10014c:	66 8c d8             	mov    ax,ds
  10014f:	50                   	push   eax
  100150:	66 b8 10 00          	mov    ax,0x10
  100154:	8e d8                	mov    ds,eax
  100156:	8e c0                	mov    es,eax
  100158:	8e e0                	mov    fs,eax
  10015a:	8e e8                	mov    gs,eax
  10015c:	e8 a1 1e 00 00       	call   102002 <_final_exception_handler>
  100161:	5b                   	pop    ebx
  100162:	8e db                	mov    ds,ebx
  100164:	8e c3                	mov    es,ebx
  100166:	8e e3                	mov    fs,ebx
  100168:	8e eb                	mov    gs,ebx
  10016a:	61                   	popa   
  10016b:	83 c4 08             	add    esp,0x8
  10016e:	fb                   	sti    
  10016f:	cf                   	iret   

00100170 <_irq0>:
  100170:	fa                   	cli    
  100171:	6a 00                	push   0x0
  100173:	6a 20                	push   0x20
  100175:	eb 69                	jmp    1001e0 <temp_irq_handler>

00100177 <_irq1>:
  100177:	fa                   	cli    
  100178:	6a 00                	push   0x0
  10017a:	6a 21                	push   0x21
  10017c:	eb 62                	jmp    1001e0 <temp_irq_handler>

0010017e <_irq2>:
  10017e:	fa                   	cli    
  10017f:	6a 00                	push   0x0
  100181:	6a 22                	push   0x22
  100183:	eb 5b                	jmp    1001e0 <temp_irq_handler>

00100185 <_irq3>:
  100185:	fa                   	cli    
  100186:	6a 00                	push   0x0
  100188:	6a 23                	push   0x23
  10018a:	eb 54                	jmp    1001e0 <temp_irq_handler>

0010018c <_irq4>:
  10018c:	fa                   	cli    
  10018d:	6a 00                	push   0x0
  10018f:	6a 24                	push   0x24
  100191:	eb 4d                	jmp    1001e0 <temp_irq_handler>

00100193 <_irq5>:
  100193:	fa                   	cli    
  100194:	6a 00                	push   0x0
  100196:	6a 25                	push   0x25
  100198:	eb 46                	jmp    1001e0 <temp_irq_handler>

0010019a <_irq6>:
  10019a:	fa                   	cli    
  10019b:	6a 00                	push   0x0
  10019d:	6a 26                	push   0x26
  10019f:	eb 3f                	jmp    1001e0 <temp_irq_handler>

001001a1 <_irq7>:
  1001a1:	fa                   	cli    
  1001a2:	6a 00                	push   0x0
  1001a4:	6a 27                	push   0x27
  1001a6:	eb 38                	jmp    1001e0 <temp_irq_handler>

001001a8 <_irq8>:
  1001a8:	fa                   	cli    
  1001a9:	6a 00                	push   0x0
  1001ab:	6a 28                	push   0x28
  1001ad:	eb 31                	jmp    1001e0 <temp_irq_handler>

001001af <_irq9>:
  1001af:	fa                   	cli    
  1001b0:	6a 00                	push   0x0
  1001b2:	6a 29                	push   0x29
  1001b4:	eb 2a                	jmp    1001e0 <temp_irq_handler>

001001b6 <_irq10>:
  1001b6:	fa                   	cli    
  1001b7:	6a 00                	push   0x0
  1001b9:	6a 2a                	push   0x2a
  1001bb:	eb 23                	jmp    1001e0 <temp_irq_handler>

001001bd <_irq11>:
  1001bd:	fa                   	cli    
  1001be:	6a 00                	push   0x0
  1001c0:	6a 2b                	push   0x2b
  1001c2:	eb 1c                	jmp    1001e0 <temp_irq_handler>

001001c4 <_irq12>:
  1001c4:	fa                   	cli    
  1001c5:	6a 00                	push   0x0
  1001c7:	6a 2c                	push   0x2c
  1001c9:	eb 15                	jmp    1001e0 <temp_irq_handler>

001001cb <_irq13>:
  1001cb:	fa                   	cli    
  1001cc:	6a 00                	push   0x0
  1001ce:	6a 2d                	push   0x2d
  1001d0:	eb 0e                	jmp    1001e0 <temp_irq_handler>

001001d2 <_irq14>:
  1001d2:	fa                   	cli    
  1001d3:	6a 00                	push   0x0
  1001d5:	6a 2e                	push   0x2e
  1001d7:	eb 07                	jmp    1001e0 <temp_irq_handler>

001001d9 <_irq15>:
  1001d9:	fa                   	cli    
  1001da:	6a 00                	push   0x0
  1001dc:	6a 2f                	push   0x2f
  1001de:	eb 00                	jmp    1001e0 <temp_irq_handler>

001001e0 <temp_irq_handler>:
  1001e0:	60                   	pusha  
  1001e1:	66 8c d8             	mov    ax,ds
  1001e4:	50                   	push   eax
  1001e5:	66 b8 10 00          	mov    ax,0x10
  1001e9:	8e d8                	mov    ds,eax
  1001eb:	8e c0                	mov    es,eax
  1001ed:	8e e0                	mov    fs,eax
  1001ef:	8e e8                	mov    gs,eax
  1001f1:	54                   	push   esp
  1001f2:	e8 6c 1e 00 00       	call   102063 <_final_irq_handler>
  1001f7:	5c                   	pop    esp
  1001f8:	5b                   	pop    ebx
  1001f9:	8e db                	mov    ds,ebx
  1001fb:	8e c3                	mov    es,ebx
  1001fd:	8e e3                	mov    fs,ebx
  1001ff:	8e eb                	mov    gs,ebx
  100201:	61                   	popa   
  100202:	83 c4 08             	add    esp,0x8
  100205:	fb                   	sti    
  100206:	cf                   	iret   
  100207:	66 90                	xchg   ax,ax
  100209:	66 90                	xchg   ax,ax
  10020b:	66 90                	xchg   ax,ax
  10020d:	66 90                	xchg   ax,ax
  10020f:	90                   	nop

00100210 <_loadPageDirectory>:
  100210:	55                   	push   ebp
  100211:	89 e5                	mov    ebp,esp
  100213:	8b 44 24 08          	mov    eax,DWORD PTR [esp+0x8]
  100217:	0f 22 d8             	mov    cr3,eax
  10021a:	89 ec                	mov    esp,ebp
  10021c:	5d                   	pop    ebp
  10021d:	c3                   	ret    

0010021e <_enablePaging>:
  10021e:	55                   	push   ebp
  10021f:	89 e5                	mov    ebp,esp
  100221:	0f 20 c0             	mov    eax,cr0
  100224:	0d 00 00 00 80       	or     eax,0x80000000
  100229:	0f 22 c0             	mov    cr0,eax
  10022c:	89 ec                	mov    esp,ebp
  10022e:	5d                   	pop    ebp
  10022f:	c3                   	ret    

00100230 <_kernel_main>:
  100230:	83 ec 2c             	sub    esp,0x2c
  100233:	e8 3e 02 00 00       	call   100476 <_InitializeVideo>
  100238:	e8 6b 03 00 00       	call   1005a8 <_clrscr>
  10023d:	e8 85 20 00 00       	call   1022c7 <_detectHardware>
  100242:	c7 44 24 04 00 30 10 	mov    DWORD PTR [esp+0x4],0x103000
  100249:	00 
  10024a:	c7 04 24 0b 30 10 00 	mov    DWORD PTR [esp],0x10300b
  100251:	e8 a0 12 00 00       	call   1014f6 <_kprintf>
  100256:	c7 04 24 25 30 10 00 	mov    DWORD PTR [esp],0x103025
  10025d:	e8 94 12 00 00       	call   1014f6 <_kprintf>
  100262:	e8 7e 13 00 00       	call   1015e5 <_gdt_init>
  100267:	e8 3d 16 00 00       	call   1018a9 <_idt_init>
  10026c:	c7 44 24 08 00 00 00 	mov    DWORD PTR [esp+0x8],0x0
  100273:	00 
  100274:	c7 44 24 04 10 00 00 	mov    DWORD PTR [esp+0x4],0x10
  10027b:	00 
  10027c:	c7 04 24 05 00 00 00 	mov    DWORD PTR [esp],0x5
  100283:	e8 28 1e 00 00       	call   1020b0 <_tss_init>
  100288:	c7 04 24 44 30 10 00 	mov    DWORD PTR [esp],0x103044
  10028f:	e8 62 12 00 00       	call   1014f6 <_kprintf>
  100294:	c7 04 24 00 00 80 44 	mov    DWORD PTR [esp],0x44800000
  10029b:	e8 34 20 00 00       	call   1022d4 <_pmm_init>
  1002a0:	c7 04 24 64 30 10 00 	mov    DWORD PTR [esp],0x103064
  1002a7:	e8 4a 12 00 00       	call   1014f6 <_kprintf>
  1002ac:	c7 44 24 1c 00 00 00 	mov    DWORD PTR [esp+0x1c],0x0
  1002b3:	00 
  1002b4:	eb 14                	jmp    1002ca <_kernel_main+0x9a>
  1002b6:	8b 44 24 1c          	mov    eax,DWORD PTR [esp+0x1c]
  1002ba:	c7 04 85 00 60 10 00 	mov    DWORD PTR [eax*4+0x106000],0x2
  1002c1:	02 00 00 00 
  1002c5:	83 44 24 1c 01       	add    DWORD PTR [esp+0x1c],0x1
  1002ca:	81 7c 24 1c ff 03 00 	cmp    DWORD PTR [esp+0x1c],0x3ff
  1002d1:	00 
  1002d2:	7e e2                	jle    1002b6 <_kernel_main+0x86>
  1002d4:	c7 44 24 1c 00 00 00 	mov    DWORD PTR [esp+0x1c],0x0
  1002db:	00 
  1002dc:	eb 1c                	jmp    1002fa <_kernel_main+0xca>
  1002de:	8b 44 24 1c          	mov    eax,DWORD PTR [esp+0x1c]
  1002e2:	c1 e0 0c             	shl    eax,0xc
  1002e5:	83 c8 03             	or     eax,0x3
  1002e8:	89 c2                	mov    edx,eax
  1002ea:	8b 44 24 1c          	mov    eax,DWORD PTR [esp+0x1c]
  1002ee:	89 14 85 00 70 10 00 	mov    DWORD PTR [eax*4+0x107000],edx
  1002f5:	83 44 24 1c 01       	add    DWORD PTR [esp+0x1c],0x1
  1002fa:	81 7c 24 1c ff 03 00 	cmp    DWORD PTR [esp+0x1c],0x3ff
  100301:	00 
  100302:	7e da                	jle    1002de <_kernel_main+0xae>
  100304:	b8 00 70 10 00       	mov    eax,0x107000
  100309:	83 c8 03             	or     eax,0x3
  10030c:	a3 00 60 10 00       	mov    ds:0x106000,eax
  100311:	c7 04 24 00 60 10 00 	mov    DWORD PTR [esp],0x106000
  100318:	e8 f3 fe ff ff       	call   100210 <_loadPageDirectory>
  10031d:	e8 fc fe ff ff       	call   10021e <_enablePaging>
  100322:	c7 04 24 89 30 10 00 	mov    DWORD PTR [esp],0x103089
  100329:	e8 c8 11 00 00       	call   1014f6 <_kprintf>
  10032e:	90                   	nop
  10032f:	83 c4 2c             	add    esp,0x2c
  100332:	c3                   	ret    
  100333:	90                   	nop

00100334 <_get_offset>:
  100334:	8b 54 24 08          	mov    edx,DWORD PTR [esp+0x8]
  100338:	89 d0                	mov    eax,edx
  10033a:	c1 e0 02             	shl    eax,0x2
  10033d:	01 d0                	add    eax,edx
  10033f:	c1 e0 04             	shl    eax,0x4
  100342:	89 c2                	mov    edx,eax
  100344:	8b 44 24 04          	mov    eax,DWORD PTR [esp+0x4]
  100348:	01 d0                	add    eax,edx
  10034a:	01 c0                	add    eax,eax
  10034c:	c3                   	ret    

0010034d <_get_cursor_offset>:
  10034d:	83 ec 2c             	sub    esp,0x2c
  100350:	c7 44 24 04 0e 00 00 	mov    DWORD PTR [esp+0x4],0xe
  100357:	00 
  100358:	c7 04 24 d4 03 00 00 	mov    DWORD PTR [esp],0x3d4
  10035f:	e8 fb 02 00 00       	call   10065f <_port_byte_out>
  100364:	c7 04 24 d5 03 00 00 	mov    DWORD PTR [esp],0x3d5
  10036b:	e8 d0 02 00 00       	call   100640 <_port_byte_in>
  100370:	0f b6 c0             	movzx  eax,al
  100373:	c1 e0 08             	shl    eax,0x8
  100376:	89 44 24 1c          	mov    DWORD PTR [esp+0x1c],eax
  10037a:	c7 44 24 04 0f 00 00 	mov    DWORD PTR [esp+0x4],0xf
  100381:	00 
  100382:	c7 04 24 d4 03 00 00 	mov    DWORD PTR [esp],0x3d4
  100389:	e8 d1 02 00 00       	call   10065f <_port_byte_out>
  10038e:	c7 04 24 d5 03 00 00 	mov    DWORD PTR [esp],0x3d5
  100395:	e8 a6 02 00 00       	call   100640 <_port_byte_in>
  10039a:	0f b6 c0             	movzx  eax,al
  10039d:	01 44 24 1c          	add    DWORD PTR [esp+0x1c],eax
  1003a1:	8b 44 24 1c          	mov    eax,DWORD PTR [esp+0x1c]
  1003a5:	01 c0                	add    eax,eax
  1003a7:	83 c4 2c             	add    esp,0x2c
  1003aa:	c3                   	ret    

001003ab <_set_cursor_offset>:
  1003ab:	83 ec 1c             	sub    esp,0x1c
  1003ae:	8b 44 24 20          	mov    eax,DWORD PTR [esp+0x20]
  1003b2:	89 c2                	mov    edx,eax
  1003b4:	c1 ea 1f             	shr    edx,0x1f
  1003b7:	01 d0                	add    eax,edx
  1003b9:	d1 f8                	sar    eax,1
  1003bb:	89 44 24 20          	mov    DWORD PTR [esp+0x20],eax
  1003bf:	c7 44 24 04 0e 00 00 	mov    DWORD PTR [esp+0x4],0xe
  1003c6:	00 
  1003c7:	c7 04 24 d4 03 00 00 	mov    DWORD PTR [esp],0x3d4
  1003ce:	e8 8c 02 00 00       	call   10065f <_port_byte_out>
  1003d3:	8b 44 24 20          	mov    eax,DWORD PTR [esp+0x20]
  1003d7:	c1 f8 08             	sar    eax,0x8
  1003da:	0f b6 c0             	movzx  eax,al
  1003dd:	89 44 24 04          	mov    DWORD PTR [esp+0x4],eax
  1003e1:	c7 04 24 d5 03 00 00 	mov    DWORD PTR [esp],0x3d5
  1003e8:	e8 72 02 00 00       	call   10065f <_port_byte_out>
  1003ed:	c7 44 24 04 0f 00 00 	mov    DWORD PTR [esp+0x4],0xf
  1003f4:	00 
  1003f5:	c7 04 24 d4 03 00 00 	mov    DWORD PTR [esp],0x3d4
  1003fc:	e8 5e 02 00 00       	call   10065f <_port_byte_out>
  100401:	8b 44 24 20          	mov    eax,DWORD PTR [esp+0x20]
  100405:	0f b6 c0             	movzx  eax,al
  100408:	89 44 24 04          	mov    DWORD PTR [esp+0x4],eax
  10040c:	c7 04 24 d5 03 00 00 	mov    DWORD PTR [esp],0x3d5
  100413:	e8 47 02 00 00       	call   10065f <_port_byte_out>
  100418:	90                   	nop
  100419:	83 c4 1c             	add    esp,0x1c
  10041c:	c3                   	ret    

0010041d <_make_color>:
  10041d:	83 ec 08             	sub    esp,0x8
  100420:	8b 54 24 0c          	mov    edx,DWORD PTR [esp+0xc]
  100424:	8b 44 24 10          	mov    eax,DWORD PTR [esp+0x10]
  100428:	88 54 24 04          	mov    BYTE PTR [esp+0x4],dl
  10042c:	88 04 24             	mov    BYTE PTR [esp],al
  10042f:	0f be 04 24          	movsx  eax,BYTE PTR [esp]
  100433:	c1 e0 04             	shl    eax,0x4
  100436:	0a 44 24 04          	or     al,BYTE PTR [esp+0x4]
  10043a:	83 c4 08             	add    esp,0x8
  10043d:	c3                   	ret    

0010043e <_make_vgaentry>:
  10043e:	83 ec 18             	sub    esp,0x18
  100441:	8b 54 24 1c          	mov    edx,DWORD PTR [esp+0x1c]
  100445:	8b 44 24 20          	mov    eax,DWORD PTR [esp+0x20]
  100449:	88 54 24 04          	mov    BYTE PTR [esp+0x4],dl
  10044d:	88 04 24             	mov    BYTE PTR [esp],al
  100450:	66 0f be 44 24 04    	movsx  ax,BYTE PTR [esp+0x4]
  100456:	66 89 44 24 16       	mov    WORD PTR [esp+0x16],ax
  10045b:	66 0f be 04 24       	movsx  ax,BYTE PTR [esp]
  100460:	66 89 44 24 14       	mov    WORD PTR [esp+0x14],ax
  100465:	0f bf 44 24 14       	movsx  eax,WORD PTR [esp+0x14]
  10046a:	c1 e0 08             	shl    eax,0x8
  10046d:	66 0b 44 24 16       	or     ax,WORD PTR [esp+0x16]
  100472:	83 c4 18             	add    esp,0x18
  100475:	c3                   	ret    

00100476 <_InitializeVideo>:
  100476:	83 ec 08             	sub    esp,0x8
  100479:	c7 05 04 80 10 00 00 	mov    DWORD PTR ds:0x108004,0xb8000
  100480:	80 0b 00 
  100483:	c7 44 24 04 00 00 00 	mov    DWORD PTR [esp+0x4],0x0
  10048a:	00 
  10048b:	c7 04 24 0f 00 00 00 	mov    DWORD PTR [esp],0xf
  100492:	e8 86 ff ff ff       	call   10041d <_make_color>
  100497:	a2 08 80 10 00       	mov    ds:0x108008,al
  10049c:	c6 05 01 80 10 00 00 	mov    BYTE PTR ds:0x108001,0x0
  1004a3:	c6 05 00 80 10 00 00 	mov    BYTE PTR ds:0x108000,0x0
  1004aa:	90                   	nop
  1004ab:	83 c4 08             	add    esp,0x8
  1004ae:	c3                   	ret    

001004af <_putc>:
  1004af:	83 ec 3c             	sub    esp,0x3c
  1004b2:	8b 44 24 40          	mov    eax,DWORD PTR [esp+0x40]
  1004b6:	88 44 24 1c          	mov    BYTE PTR [esp+0x1c],al
  1004ba:	80 7c 24 1c 0a       	cmp    BYTE PTR [esp+0x1c],0xa
  1004bf:	75 18                	jne    1004d9 <_putc+0x2a>
  1004c1:	c6 05 01 80 10 00 00 	mov    BYTE PTR ds:0x108001,0x0
  1004c8:	0f b6 05 00 80 10 00 	movzx  eax,BYTE PTR ds:0x108000
  1004cf:	83 c0 01             	add    eax,0x1
  1004d2:	a2 00 80 10 00       	mov    ds:0x108000,al
  1004d7:	eb 61                	jmp    10053a <_putc+0x8b>
  1004d9:	0f b6 05 00 80 10 00 	movzx  eax,BYTE PTR ds:0x108000
  1004e0:	0f b6 d0             	movzx  edx,al
  1004e3:	89 d0                	mov    eax,edx
  1004e5:	c1 e0 02             	shl    eax,0x2
  1004e8:	01 d0                	add    eax,edx
  1004ea:	c1 e0 04             	shl    eax,0x4
  1004ed:	89 c2                	mov    edx,eax
  1004ef:	0f b6 05 01 80 10 00 	movzx  eax,BYTE PTR ds:0x108001
  1004f6:	0f b6 c0             	movzx  eax,al
  1004f9:	01 d0                	add    eax,edx
  1004fb:	89 44 24 2c          	mov    DWORD PTR [esp+0x2c],eax
  1004ff:	0f b6 05 08 80 10 00 	movzx  eax,BYTE PTR ds:0x108008
  100506:	0f be d0             	movsx  edx,al
  100509:	0f be 44 24 1c       	movsx  eax,BYTE PTR [esp+0x1c]
  10050e:	89 54 24 04          	mov    DWORD PTR [esp+0x4],edx
  100512:	89 04 24             	mov    DWORD PTR [esp],eax
  100515:	e8 24 ff ff ff       	call   10043e <_make_vgaentry>
  10051a:	8b 15 04 80 10 00    	mov    edx,DWORD PTR ds:0x108004
  100520:	8b 4c 24 2c          	mov    ecx,DWORD PTR [esp+0x2c]
  100524:	01 c9                	add    ecx,ecx
  100526:	01 ca                	add    edx,ecx
  100528:	66 89 02             	mov    WORD PTR [edx],ax
  10052b:	0f b6 05 01 80 10 00 	movzx  eax,BYTE PTR ds:0x108001
  100532:	83 c0 01             	add    eax,0x1
  100535:	a2 01 80 10 00       	mov    ds:0x108001,al
  10053a:	0f b6 05 00 80 10 00 	movzx  eax,BYTE PTR ds:0x108000
  100541:	0f b6 d0             	movzx  edx,al
  100544:	0f b6 05 01 80 10 00 	movzx  eax,BYTE PTR ds:0x108001
  10054b:	0f b6 c0             	movzx  eax,al
  10054e:	89 54 24 04          	mov    DWORD PTR [esp+0x4],edx
  100552:	89 04 24             	mov    DWORD PTR [esp],eax
  100555:	e8 da fd ff ff       	call   100334 <_get_offset>
  10055a:	89 04 24             	mov    DWORD PTR [esp],eax
  10055d:	e8 49 fe ff ff       	call   1003ab <_set_cursor_offset>
  100562:	90                   	nop
  100563:	83 c4 3c             	add    esp,0x3c
  100566:	c3                   	ret    

00100567 <_kprint>:
  100567:	83 ec 2c             	sub    esp,0x2c
  10056a:	c7 44 24 1c 00 00 00 	mov    DWORD PTR [esp+0x1c],0x0
  100571:	00 
  100572:	eb 1d                	jmp    100591 <_kprint+0x2a>
  100574:	8b 54 24 1c          	mov    edx,DWORD PTR [esp+0x1c]
  100578:	8b 44 24 30          	mov    eax,DWORD PTR [esp+0x30]
  10057c:	01 d0                	add    eax,edx
  10057e:	0f b6 00             	movzx  eax,BYTE PTR [eax]
  100581:	0f be c0             	movsx  eax,al
  100584:	89 04 24             	mov    DWORD PTR [esp],eax
  100587:	e8 23 ff ff ff       	call   1004af <_putc>
  10058c:	83 44 24 1c 01       	add    DWORD PTR [esp+0x1c],0x1
  100591:	8b 44 24 30          	mov    eax,DWORD PTR [esp+0x30]
  100595:	89 04 24             	mov    DWORD PTR [esp],eax
  100598:	e8 ef 01 00 00       	call   10078c <_strlen>
  10059d:	39 44 24 1c          	cmp    DWORD PTR [esp+0x1c],eax
  1005a1:	7c d1                	jl     100574 <_kprint+0xd>
  1005a3:	90                   	nop
  1005a4:	83 c4 2c             	add    esp,0x2c
  1005a7:	c3                   	ret    

001005a8 <_clrscr>:
  1005a8:	83 ec 2c             	sub    esp,0x2c
  1005ab:	c7 44 24 1c 00 00 00 	mov    DWORD PTR [esp+0x1c],0x0
  1005b2:	00 
  1005b3:	eb 60                	jmp    100615 <_clrscr+0x6d>
  1005b5:	c7 44 24 18 00 00 00 	mov    DWORD PTR [esp+0x18],0x0
  1005bc:	00 
  1005bd:	eb 4a                	jmp    100609 <_clrscr+0x61>
  1005bf:	8b 54 24 1c          	mov    edx,DWORD PTR [esp+0x1c]
  1005c3:	89 d0                	mov    eax,edx
  1005c5:	c1 e0 02             	shl    eax,0x2
  1005c8:	01 d0                	add    eax,edx
  1005ca:	c1 e0 04             	shl    eax,0x4
  1005cd:	89 c2                	mov    edx,eax
  1005cf:	8b 44 24 18          	mov    eax,DWORD PTR [esp+0x18]
  1005d3:	01 d0                	add    eax,edx
  1005d5:	89 44 24 14          	mov    DWORD PTR [esp+0x14],eax
  1005d9:	0f b6 05 08 80 10 00 	movzx  eax,BYTE PTR ds:0x108008
  1005e0:	0f be c0             	movsx  eax,al
  1005e3:	89 44 24 04          	mov    DWORD PTR [esp+0x4],eax
  1005e7:	c7 04 24 20 00 00 00 	mov    DWORD PTR [esp],0x20
  1005ee:	e8 4b fe ff ff       	call   10043e <_make_vgaentry>
  1005f3:	8b 15 04 80 10 00    	mov    edx,DWORD PTR ds:0x108004
  1005f9:	8b 4c 24 14          	mov    ecx,DWORD PTR [esp+0x14]
  1005fd:	01 c9                	add    ecx,ecx
  1005ff:	01 ca                	add    edx,ecx
  100601:	66 89 02             	mov    WORD PTR [edx],ax
  100604:	83 44 24 18 01       	add    DWORD PTR [esp+0x18],0x1
  100609:	83 7c 24 18 4f       	cmp    DWORD PTR [esp+0x18],0x4f
  10060e:	7e af                	jle    1005bf <_clrscr+0x17>
  100610:	83 44 24 1c 01       	add    DWORD PTR [esp+0x1c],0x1
  100615:	83 7c 24 1c 18       	cmp    DWORD PTR [esp+0x1c],0x18
  10061a:	7e 99                	jle    1005b5 <_clrscr+0xd>
  10061c:	c7 44 24 04 00 00 00 	mov    DWORD PTR [esp+0x4],0x0
  100623:	00 
  100624:	c7 04 24 00 00 00 00 	mov    DWORD PTR [esp],0x0
  10062b:	e8 04 fd ff ff       	call   100334 <_get_offset>
  100630:	89 04 24             	mov    DWORD PTR [esp],eax
  100633:	e8 73 fd ff ff       	call   1003ab <_set_cursor_offset>
  100638:	90                   	nop
  100639:	83 c4 2c             	add    esp,0x2c
  10063c:	c3                   	ret    
  10063d:	90                   	nop
  10063e:	90                   	nop
  10063f:	90                   	nop

00100640 <_port_byte_in>:
  100640:	83 ec 14             	sub    esp,0x14
  100643:	8b 44 24 18          	mov    eax,DWORD PTR [esp+0x18]
  100647:	66 89 04 24          	mov    WORD PTR [esp],ax
  10064b:	0f b7 04 24          	movzx  eax,WORD PTR [esp]
  10064f:	89 c2                	mov    edx,eax
  100651:	ec                   	in     al,dx
  100652:	88 44 24 13          	mov    BYTE PTR [esp+0x13],al
  100656:	0f b6 44 24 13       	movzx  eax,BYTE PTR [esp+0x13]
  10065b:	83 c4 14             	add    esp,0x14
  10065e:	c3                   	ret    

0010065f <_port_byte_out>:
  10065f:	83 ec 08             	sub    esp,0x8
  100662:	8b 44 24 0c          	mov    eax,DWORD PTR [esp+0xc]
  100666:	8b 54 24 10          	mov    edx,DWORD PTR [esp+0x10]
  10066a:	66 89 44 24 04       	mov    WORD PTR [esp+0x4],ax
  10066f:	89 d0                	mov    eax,edx
  100671:	88 04 24             	mov    BYTE PTR [esp],al
  100674:	0f b6 04 24          	movzx  eax,BYTE PTR [esp]
  100678:	0f b7 54 24 04       	movzx  edx,WORD PTR [esp+0x4]
  10067d:	ee                   	out    dx,al
  10067e:	90                   	nop
  10067f:	83 c4 08             	add    esp,0x8
  100682:	c3                   	ret    

00100683 <_port_word_in>:
  100683:	83 ec 14             	sub    esp,0x14
  100686:	8b 44 24 18          	mov    eax,DWORD PTR [esp+0x18]
  10068a:	66 89 04 24          	mov    WORD PTR [esp],ax
  10068e:	0f b7 04 24          	movzx  eax,WORD PTR [esp]
  100692:	89 c2                	mov    edx,eax
  100694:	66 ed                	in     ax,dx
  100696:	66 89 44 24 12       	mov    WORD PTR [esp+0x12],ax
  10069b:	0f b7 44 24 12       	movzx  eax,WORD PTR [esp+0x12]
  1006a0:	83 c4 14             	add    esp,0x14
  1006a3:	c3                   	ret    

001006a4 <_port_word_out>:
  1006a4:	83 ec 08             	sub    esp,0x8
  1006a7:	8b 54 24 0c          	mov    edx,DWORD PTR [esp+0xc]
  1006ab:	8b 44 24 10          	mov    eax,DWORD PTR [esp+0x10]
  1006af:	66 89 54 24 04       	mov    WORD PTR [esp+0x4],dx
  1006b4:	66 89 04 24          	mov    WORD PTR [esp],ax
  1006b8:	0f b7 04 24          	movzx  eax,WORD PTR [esp]
  1006bc:	0f b7 54 24 04       	movzx  edx,WORD PTR [esp+0x4]
  1006c1:	66 ef                	out    dx,ax
  1006c3:	90                   	nop
  1006c4:	83 c4 08             	add    esp,0x8
  1006c7:	c3                   	ret    

001006c8 <_memcmp>:
  1006c8:	eb 22                	jmp    1006ec <_memcmp+0x24>
  1006ca:	8b 44 24 04          	mov    eax,DWORD PTR [esp+0x4]
  1006ce:	0f b6 10             	movzx  edx,BYTE PTR [eax]
  1006d1:	8b 44 24 08          	mov    eax,DWORD PTR [esp+0x8]
  1006d5:	0f b6 00             	movzx  eax,BYTE PTR [eax]
  1006d8:	38 c2                	cmp    dl,al
  1006da:	74 06                	je     1006e2 <_memcmp+0x1a>
  1006dc:	b8 00 00 00 00       	mov    eax,0x0
  1006e1:	c3                   	ret    
  1006e2:	83 44 24 04 01       	add    DWORD PTR [esp+0x4],0x1
  1006e7:	83 44 24 08 01       	add    DWORD PTR [esp+0x8],0x1
  1006ec:	8b 44 24 0c          	mov    eax,DWORD PTR [esp+0xc]
  1006f0:	8d 50 ff             	lea    edx,[eax-0x1]
  1006f3:	89 54 24 0c          	mov    DWORD PTR [esp+0xc],edx
  1006f7:	85 c0                	test   eax,eax
  1006f9:	75 cf                	jne    1006ca <_memcmp+0x2>
  1006fb:	b8 01 00 00 00       	mov    eax,0x1
  100700:	c3                   	ret    

00100701 <_memcpy>:
  100701:	83 ec 10             	sub    esp,0x10
  100704:	8b 44 24 14          	mov    eax,DWORD PTR [esp+0x14]
  100708:	89 44 24 04          	mov    DWORD PTR [esp+0x4],eax
  10070c:	8b 44 24 14          	mov    eax,DWORD PTR [esp+0x14]
  100710:	89 44 24 0c          	mov    DWORD PTR [esp+0xc],eax
  100714:	8b 44 24 18          	mov    eax,DWORD PTR [esp+0x18]
  100718:	89 44 24 08          	mov    DWORD PTR [esp+0x8],eax
  10071c:	eb 1b                	jmp    100739 <_memcpy+0x38>
  10071e:	8b 54 24 08          	mov    edx,DWORD PTR [esp+0x8]
  100722:	8d 42 01             	lea    eax,[edx+0x1]
  100725:	89 44 24 08          	mov    DWORD PTR [esp+0x8],eax
  100729:	8b 44 24 0c          	mov    eax,DWORD PTR [esp+0xc]
  10072d:	8d 48 01             	lea    ecx,[eax+0x1]
  100730:	89 4c 24 0c          	mov    DWORD PTR [esp+0xc],ecx
  100734:	0f b6 12             	movzx  edx,BYTE PTR [edx]
  100737:	88 10                	mov    BYTE PTR [eax],dl
  100739:	8b 44 24 1c          	mov    eax,DWORD PTR [esp+0x1c]
  10073d:	8d 50 ff             	lea    edx,[eax-0x1]
  100740:	89 54 24 1c          	mov    DWORD PTR [esp+0x1c],edx
  100744:	85 c0                	test   eax,eax
  100746:	75 d6                	jne    10071e <_memcpy+0x1d>
  100748:	8b 44 24 04          	mov    eax,DWORD PTR [esp+0x4]
  10074c:	83 c4 10             	add    esp,0x10
  10074f:	c3                   	ret    

00100750 <_memset>:
  100750:	83 ec 14             	sub    esp,0x14
  100753:	8b 44 24 1c          	mov    eax,DWORD PTR [esp+0x1c]
  100757:	88 04 24             	mov    BYTE PTR [esp],al
  10075a:	8b 44 24 18          	mov    eax,DWORD PTR [esp+0x18]
  10075e:	89 44 24 10          	mov    DWORD PTR [esp+0x10],eax
  100762:	eb 16                	jmp    10077a <_memset+0x2a>
  100764:	8b 44 24 10          	mov    eax,DWORD PTR [esp+0x10]
  100768:	8d 50 01             	lea    edx,[eax+0x1]
  10076b:	89 54 24 10          	mov    DWORD PTR [esp+0x10],edx
  10076f:	0f b6 14 24          	movzx  edx,BYTE PTR [esp]
  100773:	88 10                	mov    BYTE PTR [eax],dl
  100775:	83 6c 24 20 01       	sub    DWORD PTR [esp+0x20],0x1
  10077a:	83 7c 24 20 00       	cmp    DWORD PTR [esp+0x20],0x0
  10077f:	75 e3                	jne    100764 <_memset+0x14>
  100781:	8b 44 24 18          	mov    eax,DWORD PTR [esp+0x18]
  100785:	83 c4 14             	add    esp,0x14
  100788:	c3                   	ret    
  100789:	90                   	nop
  10078a:	90                   	nop
  10078b:	90                   	nop

0010078c <_strlen>:
  10078c:	83 ec 10             	sub    esp,0x10
  10078f:	c7 44 24 0c 00 00 00 	mov    DWORD PTR [esp+0xc],0x0
  100796:	00 
  100797:	eb 05                	jmp    10079e <_strlen+0x12>
  100799:	83 44 24 0c 01       	add    DWORD PTR [esp+0xc],0x1
  10079e:	8b 44 24 14          	mov    eax,DWORD PTR [esp+0x14]
  1007a2:	8d 50 01             	lea    edx,[eax+0x1]
  1007a5:	89 54 24 14          	mov    DWORD PTR [esp+0x14],edx
  1007a9:	0f b6 00             	movzx  eax,BYTE PTR [eax]
  1007ac:	84 c0                	test   al,al
  1007ae:	75 e9                	jne    100799 <_strlen+0xd>
  1007b0:	8b 44 24 0c          	mov    eax,DWORD PTR [esp+0xc]
  1007b4:	83 c4 10             	add    esp,0x10
  1007b7:	c3                   	ret    

001007b8 <_strnlen>:
  1007b8:	83 ec 10             	sub    esp,0x10
  1007bb:	8b 44 24 14          	mov    eax,DWORD PTR [esp+0x14]
  1007bf:	89 44 24 0c          	mov    DWORD PTR [esp+0xc],eax
  1007c3:	eb 05                	jmp    1007ca <_strnlen+0x12>
  1007c5:	83 44 24 0c 01       	add    DWORD PTR [esp+0xc],0x1
  1007ca:	8b 44 24 18          	mov    eax,DWORD PTR [esp+0x18]
  1007ce:	8d 50 ff             	lea    edx,[eax-0x1]
  1007d1:	89 54 24 18          	mov    DWORD PTR [esp+0x18],edx
  1007d5:	85 c0                	test   eax,eax
  1007d7:	74 0b                	je     1007e4 <_strnlen+0x2c>
  1007d9:	8b 44 24 0c          	mov    eax,DWORD PTR [esp+0xc]
  1007dd:	0f b6 00             	movzx  eax,BYTE PTR [eax]
  1007e0:	84 c0                	test   al,al
  1007e2:	75 e1                	jne    1007c5 <_strnlen+0xd>
  1007e4:	8b 44 24 0c          	mov    eax,DWORD PTR [esp+0xc]
  1007e8:	2b 44 24 14          	sub    eax,DWORD PTR [esp+0x14]
  1007ec:	83 c4 10             	add    esp,0x10
  1007ef:	c3                   	ret    

001007f0 <_strncpy>:
  1007f0:	83 ec 10             	sub    esp,0x10
  1007f3:	83 7c 24 14 00       	cmp    DWORD PTR [esp+0x14],0x0
  1007f8:	74 07                	je     100801 <_strncpy+0x11>
  1007fa:	83 7c 24 18 00       	cmp    DWORD PTR [esp+0x18],0x0
  1007ff:	75 0e                	jne    10080f <_strncpy+0x1f>
  100801:	c7 44 24 14 00 00 00 	mov    DWORD PTR [esp+0x14],0x0
  100808:	00 
  100809:	8b 44 24 14          	mov    eax,DWORD PTR [esp+0x14]
  10080d:	eb 74                	jmp    100883 <_strncpy+0x93>
  10080f:	81 7c 24 1c ff 00 00 	cmp    DWORD PTR [esp+0x1c],0xff
  100816:	00 
  100817:	7e 08                	jle    100821 <_strncpy+0x31>
  100819:	c7 44 24 1c ff 00 00 	mov    DWORD PTR [esp+0x1c],0xff
  100820:	00 
  100821:	c7 44 24 0c 00 00 00 	mov    DWORD PTR [esp+0xc],0x0
  100828:	00 
  100829:	eb 2f                	jmp    10085a <_strncpy+0x6a>
  10082b:	8b 54 24 18          	mov    edx,DWORD PTR [esp+0x18]
  10082f:	8b 44 24 0c          	mov    eax,DWORD PTR [esp+0xc]
  100833:	01 d0                	add    eax,edx
  100835:	8b 4c 24 14          	mov    ecx,DWORD PTR [esp+0x14]
  100839:	8b 54 24 0c          	mov    edx,DWORD PTR [esp+0xc]
  10083d:	01 ca                	add    edx,ecx
  10083f:	0f b6 00             	movzx  eax,BYTE PTR [eax]
  100842:	88 02                	mov    BYTE PTR [edx],al
  100844:	8b 54 24 18          	mov    edx,DWORD PTR [esp+0x18]
  100848:	8b 44 24 0c          	mov    eax,DWORD PTR [esp+0xc]
  10084c:	01 d0                	add    eax,edx
  10084e:	0f b6 00             	movzx  eax,BYTE PTR [eax]
  100851:	84 c0                	test   al,al
  100853:	74 11                	je     100866 <_strncpy+0x76>
  100855:	83 44 24 0c 01       	add    DWORD PTR [esp+0xc],0x1
  10085a:	8b 44 24 0c          	mov    eax,DWORD PTR [esp+0xc]
  10085e:	39 44 24 1c          	cmp    DWORD PTR [esp+0x1c],eax
  100862:	7f c7                	jg     10082b <_strncpy+0x3b>
  100864:	eb 01                	jmp    100867 <_strncpy+0x77>
  100866:	90                   	nop
  100867:	81 7c 24 0c fe 00 00 	cmp    DWORD PTR [esp+0xc],0xfe
  10086e:	00 
  10086f:	76 0e                	jbe    10087f <_strncpy+0x8f>
  100871:	c7 44 24 14 00 00 00 	mov    DWORD PTR [esp+0x14],0x0
  100878:	00 
  100879:	8b 44 24 14          	mov    eax,DWORD PTR [esp+0x14]
  10087d:	eb 04                	jmp    100883 <_strncpy+0x93>
  10087f:	8b 44 24 14          	mov    eax,DWORD PTR [esp+0x14]
  100883:	83 c4 10             	add    esp,0x10
  100886:	c3                   	ret    

00100887 <_strcmp>:
  100887:	83 ec 10             	sub    esp,0x10
  10088a:	c7 44 24 0c 00 00 00 	mov    DWORD PTR [esp+0xc],0x0
  100891:	00 
  100892:	eb 21                	jmp    1008b5 <_strcmp+0x2e>
  100894:	8b 44 24 0c          	mov    eax,DWORD PTR [esp+0xc]
  100898:	8d 50 01             	lea    edx,[eax+0x1]
  10089b:	89 54 24 0c          	mov    DWORD PTR [esp+0xc],edx
  10089f:	89 c2                	mov    edx,eax
  1008a1:	8b 44 24 18          	mov    eax,DWORD PTR [esp+0x18]
  1008a5:	01 d0                	add    eax,edx
  1008a7:	0f b6 00             	movzx  eax,BYTE PTR [eax]
  1008aa:	84 c0                	test   al,al
  1008ac:	75 07                	jne    1008b5 <_strcmp+0x2e>
  1008ae:	b8 00 00 00 00       	mov    eax,0x0
  1008b3:	eb 23                	jmp    1008d8 <_strcmp+0x51>
  1008b5:	8b 54 24 0c          	mov    edx,DWORD PTR [esp+0xc]
  1008b9:	8b 44 24 14          	mov    eax,DWORD PTR [esp+0x14]
  1008bd:	01 d0                	add    eax,edx
  1008bf:	0f b6 10             	movzx  edx,BYTE PTR [eax]
  1008c2:	8b 4c 24 0c          	mov    ecx,DWORD PTR [esp+0xc]
  1008c6:	8b 44 24 18          	mov    eax,DWORD PTR [esp+0x18]
  1008ca:	01 c8                	add    eax,ecx
  1008cc:	0f b6 00             	movzx  eax,BYTE PTR [eax]
  1008cf:	38 c2                	cmp    dl,al
  1008d1:	74 c1                	je     100894 <_strcmp+0xd>
  1008d3:	b8 01 00 00 00       	mov    eax,0x1
  1008d8:	83 c4 10             	add    esp,0x10
  1008db:	c3                   	ret    

001008dc <_strstr>:
  1008dc:	83 ec 2c             	sub    esp,0x2c
  1008df:	8b 44 24 34          	mov    eax,DWORD PTR [esp+0x34]
  1008e3:	8d 50 01             	lea    edx,[eax+0x1]
  1008e6:	89 54 24 34          	mov    DWORD PTR [esp+0x34],edx
  1008ea:	0f b6 00             	movzx  eax,BYTE PTR [eax]
  1008ed:	88 44 24 1f          	mov    BYTE PTR [esp+0x1f],al
  1008f1:	80 7c 24 1f 00       	cmp    BYTE PTR [esp+0x1f],0x0
  1008f6:	75 06                	jne    1008fe <_strstr+0x22>
  1008f8:	8b 44 24 30          	mov    eax,DWORD PTR [esp+0x30]
  1008fc:	eb 62                	jmp    100960 <_strstr+0x84>
  1008fe:	8b 44 24 34          	mov    eax,DWORD PTR [esp+0x34]
  100902:	89 04 24             	mov    DWORD PTR [esp],eax
  100905:	e8 82 fe ff ff       	call   10078c <_strlen>
  10090a:	89 44 24 18          	mov    DWORD PTR [esp+0x18],eax
  10090e:	8b 44 24 30          	mov    eax,DWORD PTR [esp+0x30]
  100912:	8d 50 01             	lea    edx,[eax+0x1]
  100915:	89 54 24 30          	mov    DWORD PTR [esp+0x30],edx
  100919:	0f b6 00             	movzx  eax,BYTE PTR [eax]
  10091c:	88 44 24 17          	mov    BYTE PTR [esp+0x17],al
  100920:	80 7c 24 17 00       	cmp    BYTE PTR [esp+0x17],0x0
  100925:	75 07                	jne    10092e <_strstr+0x52>
  100927:	b8 00 00 00 00       	mov    eax,0x0
  10092c:	eb 32                	jmp    100960 <_strstr+0x84>
  10092e:	0f b6 44 24 17       	movzx  eax,BYTE PTR [esp+0x17]
  100933:	3a 44 24 1f          	cmp    al,BYTE PTR [esp+0x1f]
  100937:	75 d5                	jne    10090e <_strstr+0x32>
  100939:	8b 44 24 18          	mov    eax,DWORD PTR [esp+0x18]
  10093d:	89 44 24 08          	mov    DWORD PTR [esp+0x8],eax
  100941:	8b 44 24 34          	mov    eax,DWORD PTR [esp+0x34]
  100945:	89 44 24 04          	mov    DWORD PTR [esp+0x4],eax
  100949:	8b 44 24 30          	mov    eax,DWORD PTR [esp+0x30]
  10094d:	89 04 24             	mov    DWORD PTR [esp],eax
  100950:	e8 a6 00 00 00       	call   1009fb <_strncmp>
  100955:	85 c0                	test   eax,eax
  100957:	75 b5                	jne    10090e <_strstr+0x32>
  100959:	8b 44 24 30          	mov    eax,DWORD PTR [esp+0x30]
  10095d:	83 e8 01             	sub    eax,0x1
  100960:	83 c4 2c             	add    esp,0x2c
  100963:	c3                   	ret    

00100964 <_strcpy>:
  100964:	83 ec 10             	sub    esp,0x10
  100967:	c7 44 24 0c 00 00 00 	mov    DWORD PTR [esp+0xc],0x0
  10096e:	00 
  10096f:	eb 05                	jmp    100976 <_strcpy+0x12>
  100971:	83 44 24 0c 01       	add    DWORD PTR [esp+0xc],0x1
  100976:	8b 54 24 18          	mov    edx,DWORD PTR [esp+0x18]
  10097a:	8d 42 01             	lea    eax,[edx+0x1]
  10097d:	89 44 24 18          	mov    DWORD PTR [esp+0x18],eax
  100981:	8b 44 24 14          	mov    eax,DWORD PTR [esp+0x14]
  100985:	8d 48 01             	lea    ecx,[eax+0x1]
  100988:	89 4c 24 14          	mov    DWORD PTR [esp+0x14],ecx
  10098c:	0f b6 12             	movzx  edx,BYTE PTR [edx]
  10098f:	88 10                	mov    BYTE PTR [eax],dl
  100991:	0f b6 00             	movzx  eax,BYTE PTR [eax]
  100994:	84 c0                	test   al,al
  100996:	75 d9                	jne    100971 <_strcpy+0xd>
  100998:	8b 44 24 0c          	mov    eax,DWORD PTR [esp+0xc]
  10099c:	83 c4 10             	add    esp,0x10
  10099f:	c3                   	ret    

001009a0 <_strcat>:
  1009a0:	83 ec 2c             	sub    esp,0x2c
  1009a3:	8b 44 24 30          	mov    eax,DWORD PTR [esp+0x30]
  1009a7:	89 04 24             	mov    DWORD PTR [esp],eax
  1009aa:	e8 dd fd ff ff       	call   10078c <_strlen>
  1009af:	89 c2                	mov    edx,eax
  1009b1:	8b 44 24 30          	mov    eax,DWORD PTR [esp+0x30]
  1009b5:	01 d0                	add    eax,edx
  1009b7:	89 44 24 1c          	mov    DWORD PTR [esp+0x1c],eax
  1009bb:	8b 44 24 34          	mov    eax,DWORD PTR [esp+0x34]
  1009bf:	89 04 24             	mov    DWORD PTR [esp],eax
  1009c2:	e8 c5 fd ff ff       	call   10078c <_strlen>
  1009c7:	89 44 24 08          	mov    DWORD PTR [esp+0x8],eax
  1009cb:	8b 44 24 34          	mov    eax,DWORD PTR [esp+0x34]
  1009cf:	89 44 24 04          	mov    DWORD PTR [esp+0x4],eax
  1009d3:	8b 44 24 1c          	mov    eax,DWORD PTR [esp+0x1c]
  1009d7:	89 04 24             	mov    DWORD PTR [esp],eax
  1009da:	e8 22 fd ff ff       	call   100701 <_memcpy>
  1009df:	8b 44 24 34          	mov    eax,DWORD PTR [esp+0x34]
  1009e3:	89 04 24             	mov    DWORD PTR [esp],eax
  1009e6:	e8 a1 fd ff ff       	call   10078c <_strlen>
  1009eb:	01 44 24 1c          	add    DWORD PTR [esp+0x1c],eax
  1009ef:	8b 44 24 1c          	mov    eax,DWORD PTR [esp+0x1c]
  1009f3:	c6 00 00             	mov    BYTE PTR [eax],0x0
  1009f6:	90                   	nop
  1009f7:	83 c4 2c             	add    esp,0x2c
  1009fa:	c3                   	ret    

001009fb <_strncmp>:
  1009fb:	83 ec 10             	sub    esp,0x10
  1009fe:	c7 44 24 0c 00 00 00 	mov    DWORD PTR [esp+0xc],0x0
  100a05:	00 
  100a06:	eb 41                	jmp    100a49 <_strncmp+0x4e>
  100a08:	8b 44 24 14          	mov    eax,DWORD PTR [esp+0x14]
  100a0c:	0f b6 00             	movzx  eax,BYTE PTR [eax]
  100a0f:	0f be c8             	movsx  ecx,al
  100a12:	8b 44 24 18          	mov    eax,DWORD PTR [esp+0x18]
  100a16:	8d 50 01             	lea    edx,[eax+0x1]
  100a19:	89 54 24 18          	mov    DWORD PTR [esp+0x18],edx
  100a1d:	0f b6 00             	movzx  eax,BYTE PTR [eax]
  100a20:	0f be c0             	movsx  eax,al
  100a23:	29 c1                	sub    ecx,eax
  100a25:	89 c8                	mov    eax,ecx
  100a27:	89 44 24 0c          	mov    DWORD PTR [esp+0xc],eax
  100a2b:	83 7c 24 0c 00       	cmp    DWORD PTR [esp+0xc],0x0
  100a30:	75 1e                	jne    100a50 <_strncmp+0x55>
  100a32:	8b 44 24 14          	mov    eax,DWORD PTR [esp+0x14]
  100a36:	8d 50 01             	lea    edx,[eax+0x1]
  100a39:	89 54 24 14          	mov    DWORD PTR [esp+0x14],edx
  100a3d:	0f b6 00             	movzx  eax,BYTE PTR [eax]
  100a40:	84 c0                	test   al,al
  100a42:	74 0c                	je     100a50 <_strncmp+0x55>
  100a44:	83 6c 24 1c 01       	sub    DWORD PTR [esp+0x1c],0x1
  100a49:	83 7c 24 1c 00       	cmp    DWORD PTR [esp+0x1c],0x0
  100a4e:	75 b8                	jne    100a08 <_strncmp+0xd>
  100a50:	8b 44 24 0c          	mov    eax,DWORD PTR [esp+0xc]
  100a54:	83 c4 10             	add    esp,0x10
  100a57:	c3                   	ret    

00100a58 <_itoa>:
  100a58:	83 ec 10             	sub    esp,0x10
  100a5b:	8b 44 24 18          	mov    eax,DWORD PTR [esp+0x18]
  100a5f:	89 44 24 04          	mov    DWORD PTR [esp+0x4],eax
  100a63:	c7 44 24 0c 00 00 00 	mov    DWORD PTR [esp+0xc],0x0
  100a6a:	00 
  100a6b:	8b 4c 24 1c          	mov    ecx,DWORD PTR [esp+0x1c]
  100a6f:	8b 44 24 18          	mov    eax,DWORD PTR [esp+0x18]
  100a73:	ba 00 00 00 00       	mov    edx,0x0
  100a78:	f7 f1                	div    ecx
  100a7a:	89 54 24 04          	mov    DWORD PTR [esp+0x4],edx
  100a7e:	83 7c 24 04 09       	cmp    DWORD PTR [esp+0x4],0x9
  100a83:	77 0b                	ja     100a90 <_itoa+0x38>
  100a85:	8b 44 24 04          	mov    eax,DWORD PTR [esp+0x4]
  100a89:	83 c0 30             	add    eax,0x30
  100a8c:	89 c1                	mov    ecx,eax
  100a8e:	eb 09                	jmp    100a99 <_itoa+0x41>
  100a90:	8b 44 24 04          	mov    eax,DWORD PTR [esp+0x4]
  100a94:	83 c0 57             	add    eax,0x57
  100a97:	89 c1                	mov    ecx,eax
  100a99:	8b 44 24 0c          	mov    eax,DWORD PTR [esp+0xc]
  100a9d:	8d 50 01             	lea    edx,[eax+0x1]
  100aa0:	89 54 24 0c          	mov    DWORD PTR [esp+0xc],edx
  100aa4:	89 c2                	mov    edx,eax
  100aa6:	8b 44 24 14          	mov    eax,DWORD PTR [esp+0x14]
  100aaa:	01 d0                	add    eax,edx
  100aac:	88 08                	mov    BYTE PTR [eax],cl
  100aae:	8b 4c 24 1c          	mov    ecx,DWORD PTR [esp+0x1c]
  100ab2:	8b 44 24 18          	mov    eax,DWORD PTR [esp+0x18]
  100ab6:	ba 00 00 00 00       	mov    edx,0x0
  100abb:	f7 f1                	div    ecx
  100abd:	89 44 24 18          	mov    DWORD PTR [esp+0x18],eax
  100ac1:	83 7c 24 18 00       	cmp    DWORD PTR [esp+0x18],0x0
  100ac6:	75 a3                	jne    100a6b <_itoa+0x13>
  100ac8:	8b 44 24 0c          	mov    eax,DWORD PTR [esp+0xc]
  100acc:	8d 50 ff             	lea    edx,[eax-0x1]
  100acf:	89 54 24 0c          	mov    DWORD PTR [esp+0xc],edx
  100ad3:	89 c2                	mov    edx,eax
  100ad5:	8b 44 24 14          	mov    eax,DWORD PTR [esp+0x14]
  100ad9:	01 d0                	add    eax,edx
  100adb:	c6 00 00             	mov    BYTE PTR [eax],0x0
  100ade:	c7 44 24 08 00 00 00 	mov    DWORD PTR [esp+0x8],0x0
  100ae5:	00 
  100ae6:	eb 47                	jmp    100b2f <_itoa+0xd7>
  100ae8:	8b 54 24 08          	mov    edx,DWORD PTR [esp+0x8]
  100aec:	8b 44 24 14          	mov    eax,DWORD PTR [esp+0x14]
  100af0:	01 d0                	add    eax,edx
  100af2:	0f b6 00             	movzx  eax,BYTE PTR [eax]
  100af5:	0f be c0             	movsx  eax,al
  100af8:	89 44 24 04          	mov    DWORD PTR [esp+0x4],eax
  100afc:	8b 54 24 0c          	mov    edx,DWORD PTR [esp+0xc]
  100b00:	8b 44 24 14          	mov    eax,DWORD PTR [esp+0x14]
  100b04:	01 d0                	add    eax,edx
  100b06:	8b 4c 24 08          	mov    ecx,DWORD PTR [esp+0x8]
  100b0a:	8b 54 24 14          	mov    edx,DWORD PTR [esp+0x14]
  100b0e:	01 ca                	add    edx,ecx
  100b10:	0f b6 00             	movzx  eax,BYTE PTR [eax]
  100b13:	88 02                	mov    BYTE PTR [edx],al
  100b15:	8b 54 24 0c          	mov    edx,DWORD PTR [esp+0xc]
  100b19:	8b 44 24 14          	mov    eax,DWORD PTR [esp+0x14]
  100b1d:	01 d0                	add    eax,edx
  100b1f:	8b 54 24 04          	mov    edx,DWORD PTR [esp+0x4]
  100b23:	88 10                	mov    BYTE PTR [eax],dl
  100b25:	83 44 24 08 01       	add    DWORD PTR [esp+0x8],0x1
  100b2a:	83 6c 24 0c 01       	sub    DWORD PTR [esp+0xc],0x1
  100b2f:	8b 44 24 08          	mov    eax,DWORD PTR [esp+0x8]
  100b33:	3b 44 24 0c          	cmp    eax,DWORD PTR [esp+0xc]
  100b37:	7c af                	jl     100ae8 <_itoa+0x90>
  100b39:	90                   	nop
  100b3a:	90                   	nop
  100b3b:	83 c4 10             	add    esp,0x10
  100b3e:	c3                   	ret    

00100b3f <_atoi>:
  100b3f:	83 ec 2c             	sub    esp,0x2c
  100b42:	c7 44 24 1c 00 00 00 	mov    DWORD PTR [esp+0x1c],0x0
  100b49:	00 
  100b4a:	eb 05                	jmp    100b51 <_atoi+0x12>
  100b4c:	83 44 24 30 01       	add    DWORD PTR [esp+0x30],0x1
  100b51:	8b 44 24 30          	mov    eax,DWORD PTR [esp+0x30]
  100b55:	0f b6 00             	movzx  eax,BYTE PTR [eax]
  100b58:	0f be c0             	movsx  eax,al
  100b5b:	89 04 24             	mov    DWORD PTR [esp],eax
  100b5e:	e8 86 00 00 00       	call   100be9 <_isspace>
  100b63:	85 c0                	test   eax,eax
  100b65:	75 e5                	jne    100b4c <_atoi+0xd>
  100b67:	8b 44 24 30          	mov    eax,DWORD PTR [esp+0x30]
  100b6b:	0f b6 00             	movzx  eax,BYTE PTR [eax]
  100b6e:	3c 2d                	cmp    al,0x2d
  100b70:	75 0f                	jne    100b81 <_atoi+0x42>
  100b72:	c7 44 24 18 01 00 00 	mov    DWORD PTR [esp+0x18],0x1
  100b79:	00 
  100b7a:	83 44 24 30 01       	add    DWORD PTR [esp+0x30],0x1
  100b7f:	eb 18                	jmp    100b99 <_atoi+0x5a>
  100b81:	c7 44 24 18 00 00 00 	mov    DWORD PTR [esp+0x18],0x0
  100b88:	00 
  100b89:	8b 44 24 30          	mov    eax,DWORD PTR [esp+0x30]
  100b8d:	0f b6 00             	movzx  eax,BYTE PTR [eax]
  100b90:	3c 2b                	cmp    al,0x2b
  100b92:	75 05                	jne    100b99 <_atoi+0x5a>
  100b94:	83 44 24 30 01       	add    DWORD PTR [esp+0x30],0x1
  100b99:	8b 44 24 30          	mov    eax,DWORD PTR [esp+0x30]
  100b9d:	0f b6 00             	movzx  eax,BYTE PTR [eax]
  100ba0:	0f be c0             	movsx  eax,al
  100ba3:	83 e8 30             	sub    eax,0x30
  100ba6:	89 44 24 14          	mov    DWORD PTR [esp+0x14],eax
  100baa:	83 7c 24 14 09       	cmp    DWORD PTR [esp+0x14],0x9
  100baf:	77 20                	ja     100bd1 <_atoi+0x92>
  100bb1:	8b 54 24 1c          	mov    edx,DWORD PTR [esp+0x1c]
  100bb5:	89 d0                	mov    eax,edx
  100bb7:	c1 e0 02             	shl    eax,0x2
  100bba:	01 d0                	add    eax,edx
  100bbc:	01 c0                	add    eax,eax
  100bbe:	89 c2                	mov    edx,eax
  100bc0:	8b 44 24 14          	mov    eax,DWORD PTR [esp+0x14]
  100bc4:	01 d0                	add    eax,edx
  100bc6:	89 44 24 1c          	mov    DWORD PTR [esp+0x1c],eax
  100bca:	83 44 24 30 01       	add    DWORD PTR [esp+0x30],0x1
  100bcf:	eb c8                	jmp    100b99 <_atoi+0x5a>
  100bd1:	90                   	nop
  100bd2:	83 7c 24 18 00       	cmp    DWORD PTR [esp+0x18],0x0
  100bd7:	74 08                	je     100be1 <_atoi+0xa2>
  100bd9:	8b 44 24 1c          	mov    eax,DWORD PTR [esp+0x1c]
  100bdd:	f7 d8                	neg    eax
  100bdf:	eb 04                	jmp    100be5 <_atoi+0xa6>
  100be1:	8b 44 24 1c          	mov    eax,DWORD PTR [esp+0x1c]
  100be5:	83 c4 2c             	add    esp,0x2c
  100be8:	c3                   	ret    

00100be9 <_isspace>:
  100be9:	83 ec 04             	sub    esp,0x4
  100bec:	8b 44 24 08          	mov    eax,DWORD PTR [esp+0x8]
  100bf0:	88 04 24             	mov    BYTE PTR [esp],al
  100bf3:	80 3c 24 20          	cmp    BYTE PTR [esp],0x20
  100bf7:	74 1e                	je     100c17 <_isspace+0x2e>
  100bf9:	80 3c 24 09          	cmp    BYTE PTR [esp],0x9
  100bfd:	74 18                	je     100c17 <_isspace+0x2e>
  100bff:	80 3c 24 0a          	cmp    BYTE PTR [esp],0xa
  100c03:	74 12                	je     100c17 <_isspace+0x2e>
  100c05:	80 3c 24 0b          	cmp    BYTE PTR [esp],0xb
  100c09:	74 0c                	je     100c17 <_isspace+0x2e>
  100c0b:	80 3c 24 0c          	cmp    BYTE PTR [esp],0xc
  100c0f:	74 06                	je     100c17 <_isspace+0x2e>
  100c11:	80 3c 24 0d          	cmp    BYTE PTR [esp],0xd
  100c15:	75 07                	jne    100c1e <_isspace+0x35>
  100c17:	b8 01 00 00 00       	mov    eax,0x1
  100c1c:	eb 05                	jmp    100c23 <_isspace+0x3a>
  100c1e:	b8 00 00 00 00       	mov    eax,0x0
  100c23:	83 c4 04             	add    esp,0x4
  100c26:	c3                   	ret    

00100c27 <_isprint>:
  100c27:	83 ec 04             	sub    esp,0x4
  100c2a:	8b 44 24 08          	mov    eax,DWORD PTR [esp+0x8]
  100c2e:	88 04 24             	mov    BYTE PTR [esp],al
  100c31:	80 3c 24 1f          	cmp    BYTE PTR [esp],0x1f
  100c35:	7e 0d                	jle    100c44 <_isprint+0x1d>
  100c37:	80 3c 24 7f          	cmp    BYTE PTR [esp],0x7f
  100c3b:	74 07                	je     100c44 <_isprint+0x1d>
  100c3d:	b8 01 00 00 00       	mov    eax,0x1
  100c42:	eb 05                	jmp    100c49 <_isprint+0x22>
  100c44:	b8 00 00 00 00       	mov    eax,0x0
  100c49:	83 c4 04             	add    esp,0x4
  100c4c:	c3                   	ret    

00100c4d <_strsep>:
  100c4d:	83 ec 20             	sub    esp,0x20
  100c50:	8b 44 24 24          	mov    eax,DWORD PTR [esp+0x24]
  100c54:	8b 00                	mov    eax,DWORD PTR [eax]
  100c56:	89 44 24 1c          	mov    DWORD PTR [esp+0x1c],eax
  100c5a:	83 7c 24 1c 00       	cmp    DWORD PTR [esp+0x1c],0x0
  100c5f:	75 07                	jne    100c68 <_strsep+0x1b>
  100c61:	b8 00 00 00 00       	mov    eax,0x0
  100c66:	eb 78                	jmp    100ce0 <_strsep+0x93>
  100c68:	8b 44 24 1c          	mov    eax,DWORD PTR [esp+0x1c]
  100c6c:	89 44 24 14          	mov    DWORD PTR [esp+0x14],eax
  100c70:	8b 44 24 1c          	mov    eax,DWORD PTR [esp+0x1c]
  100c74:	8d 50 01             	lea    edx,[eax+0x1]
  100c77:	89 54 24 1c          	mov    DWORD PTR [esp+0x1c],edx
  100c7b:	0f b6 00             	movzx  eax,BYTE PTR [eax]
  100c7e:	0f be c0             	movsx  eax,al
  100c81:	89 44 24 10          	mov    DWORD PTR [esp+0x10],eax
  100c85:	8b 44 24 28          	mov    eax,DWORD PTR [esp+0x28]
  100c89:	89 44 24 18          	mov    DWORD PTR [esp+0x18],eax
  100c8d:	8b 44 24 18          	mov    eax,DWORD PTR [esp+0x18]
  100c91:	8d 50 01             	lea    edx,[eax+0x1]
  100c94:	89 54 24 18          	mov    DWORD PTR [esp+0x18],edx
  100c98:	0f b6 00             	movzx  eax,BYTE PTR [eax]
  100c9b:	0f be c0             	movsx  eax,al
  100c9e:	89 44 24 0c          	mov    DWORD PTR [esp+0xc],eax
  100ca2:	8b 44 24 0c          	mov    eax,DWORD PTR [esp+0xc]
  100ca6:	3b 44 24 10          	cmp    eax,DWORD PTR [esp+0x10]
  100caa:	75 2b                	jne    100cd7 <_strsep+0x8a>
  100cac:	83 7c 24 10 00       	cmp    DWORD PTR [esp+0x10],0x0
  100cb1:	75 0a                	jne    100cbd <_strsep+0x70>
  100cb3:	c7 44 24 1c 00 00 00 	mov    DWORD PTR [esp+0x1c],0x0
  100cba:	00 
  100cbb:	eb 0a                	jmp    100cc7 <_strsep+0x7a>
  100cbd:	8b 44 24 1c          	mov    eax,DWORD PTR [esp+0x1c]
  100cc1:	83 e8 01             	sub    eax,0x1
  100cc4:	c6 00 00             	mov    BYTE PTR [eax],0x0
  100cc7:	8b 44 24 24          	mov    eax,DWORD PTR [esp+0x24]
  100ccb:	8b 54 24 1c          	mov    edx,DWORD PTR [esp+0x1c]
  100ccf:	89 10                	mov    DWORD PTR [eax],edx
  100cd1:	8b 44 24 14          	mov    eax,DWORD PTR [esp+0x14]
  100cd5:	eb 09                	jmp    100ce0 <_strsep+0x93>
  100cd7:	83 7c 24 0c 00       	cmp    DWORD PTR [esp+0xc],0x0
  100cdc:	75 af                	jne    100c8d <_strsep+0x40>
  100cde:	eb 90                	jmp    100c70 <_strsep+0x23>
  100ce0:	83 c4 20             	add    esp,0x20
  100ce3:	c3                   	ret    

00100ce4 <_isdigit>:
  100ce4:	83 7c 24 04 2f       	cmp    DWORD PTR [esp+0x4],0x2f
  100ce9:	7e 0d                	jle    100cf8 <_isdigit+0x14>
  100ceb:	83 7c 24 04 39       	cmp    DWORD PTR [esp+0x4],0x39
  100cf0:	7f 06                	jg     100cf8 <_isdigit+0x14>
  100cf2:	b8 01 00 00 00       	mov    eax,0x1
  100cf7:	c3                   	ret    
  100cf8:	b8 00 00 00 00       	mov    eax,0x0
  100cfd:	c3                   	ret    

00100cfe <_skip_atoi>:
  100cfe:	53                   	push   ebx
  100cff:	83 ec 14             	sub    esp,0x14
  100d02:	c7 44 24 10 00 00 00 	mov    DWORD PTR [esp+0x10],0x0
  100d09:	00 
  100d0a:	eb 2d                	jmp    100d39 <_skip_atoi+0x3b>
  100d0c:	8b 54 24 10          	mov    edx,DWORD PTR [esp+0x10]
  100d10:	89 d0                	mov    eax,edx
  100d12:	c1 e0 02             	shl    eax,0x2
  100d15:	01 d0                	add    eax,edx
  100d17:	01 c0                	add    eax,eax
  100d19:	89 c3                	mov    ebx,eax
  100d1b:	8b 44 24 1c          	mov    eax,DWORD PTR [esp+0x1c]
  100d1f:	8b 00                	mov    eax,DWORD PTR [eax]
  100d21:	8d 48 01             	lea    ecx,[eax+0x1]
  100d24:	8b 54 24 1c          	mov    edx,DWORD PTR [esp+0x1c]
  100d28:	89 0a                	mov    DWORD PTR [edx],ecx
  100d2a:	0f b6 00             	movzx  eax,BYTE PTR [eax]
  100d2d:	0f be c0             	movsx  eax,al
  100d30:	01 d8                	add    eax,ebx
  100d32:	83 e8 30             	sub    eax,0x30
  100d35:	89 44 24 10          	mov    DWORD PTR [esp+0x10],eax
  100d39:	8b 44 24 1c          	mov    eax,DWORD PTR [esp+0x1c]
  100d3d:	8b 00                	mov    eax,DWORD PTR [eax]
  100d3f:	0f b6 00             	movzx  eax,BYTE PTR [eax]
  100d42:	0f be c0             	movsx  eax,al
  100d45:	89 04 24             	mov    DWORD PTR [esp],eax
  100d48:	e8 97 ff ff ff       	call   100ce4 <_isdigit>
  100d4d:	85 c0                	test   eax,eax
  100d4f:	75 bb                	jne    100d0c <_skip_atoi+0xe>
  100d51:	8b 44 24 10          	mov    eax,DWORD PTR [esp+0x10]
  100d55:	83 c4 14             	add    esp,0x14
  100d58:	5b                   	pop    ebx
  100d59:	c3                   	ret    

00100d5a <_knumber>:
  100d5a:	83 ec 60             	sub    esp,0x60
  100d5d:	8b 44 24 78          	mov    eax,DWORD PTR [esp+0x78]
  100d61:	83 e0 20             	and    eax,0x20
  100d64:	88 44 24 57          	mov    BYTE PTR [esp+0x57],al
  100d68:	8b 44 24 78          	mov    eax,DWORD PTR [esp+0x78]
  100d6c:	83 e0 10             	and    eax,0x10
  100d6f:	85 c0                	test   eax,eax
  100d71:	74 05                	je     100d78 <_knumber+0x1e>
  100d73:	83 64 24 78 fe       	and    DWORD PTR [esp+0x78],0xfffffffe
  100d78:	83 7c 24 6c 01       	cmp    DWORD PTR [esp+0x6c],0x1
  100d7d:	7e 07                	jle    100d86 <_knumber+0x2c>
  100d7f:	83 7c 24 6c 10       	cmp    DWORD PTR [esp+0x6c],0x10
  100d84:	7e 0a                	jle    100d90 <_knumber+0x36>
  100d86:	b8 00 00 00 00       	mov    eax,0x0
  100d8b:	e9 47 02 00 00       	jmp    100fd7 <_knumber+0x27d>
  100d90:	8b 44 24 78          	mov    eax,DWORD PTR [esp+0x78]
  100d94:	83 e0 01             	and    eax,0x1
  100d97:	85 c0                	test   eax,eax
  100d99:	74 07                	je     100da2 <_knumber+0x48>
  100d9b:	b8 30 00 00 00       	mov    eax,0x30
  100da0:	eb 05                	jmp    100da7 <_knumber+0x4d>
  100da2:	b8 20 00 00 00       	mov    eax,0x20
  100da7:	88 44 24 56          	mov    BYTE PTR [esp+0x56],al
  100dab:	c6 44 24 5f 00       	mov    BYTE PTR [esp+0x5f],0x0
  100db0:	8b 44 24 78          	mov    eax,DWORD PTR [esp+0x78]
  100db4:	83 e0 02             	and    eax,0x2
  100db7:	85 c0                	test   eax,eax
  100db9:	74 43                	je     100dfe <_knumber+0xa4>
  100dbb:	83 7c 24 68 00       	cmp    DWORD PTR [esp+0x68],0x0
  100dc0:	79 10                	jns    100dd2 <_knumber+0x78>
  100dc2:	c6 44 24 5f 2d       	mov    BYTE PTR [esp+0x5f],0x2d
  100dc7:	f7 5c 24 68          	neg    DWORD PTR [esp+0x68]
  100dcb:	83 6c 24 70 01       	sub    DWORD PTR [esp+0x70],0x1
  100dd0:	eb 2c                	jmp    100dfe <_knumber+0xa4>
  100dd2:	8b 44 24 78          	mov    eax,DWORD PTR [esp+0x78]
  100dd6:	83 e0 04             	and    eax,0x4
  100dd9:	85 c0                	test   eax,eax
  100ddb:	74 0c                	je     100de9 <_knumber+0x8f>
  100ddd:	c6 44 24 5f 2b       	mov    BYTE PTR [esp+0x5f],0x2b
  100de2:	83 6c 24 70 01       	sub    DWORD PTR [esp+0x70],0x1
  100de7:	eb 15                	jmp    100dfe <_knumber+0xa4>
  100de9:	8b 44 24 78          	mov    eax,DWORD PTR [esp+0x78]
  100ded:	83 e0 08             	and    eax,0x8
  100df0:	85 c0                	test   eax,eax
  100df2:	74 0a                	je     100dfe <_knumber+0xa4>
  100df4:	c6 44 24 5f 20       	mov    BYTE PTR [esp+0x5f],0x20
  100df9:	83 6c 24 70 01       	sub    DWORD PTR [esp+0x70],0x1
  100dfe:	8b 44 24 78          	mov    eax,DWORD PTR [esp+0x78]
  100e02:	83 e0 40             	and    eax,0x40
  100e05:	85 c0                	test   eax,eax
  100e07:	74 1a                	je     100e23 <_knumber+0xc9>
  100e09:	83 7c 24 6c 10       	cmp    DWORD PTR [esp+0x6c],0x10
  100e0e:	75 07                	jne    100e17 <_knumber+0xbd>
  100e10:	83 6c 24 70 02       	sub    DWORD PTR [esp+0x70],0x2
  100e15:	eb 0c                	jmp    100e23 <_knumber+0xc9>
  100e17:	83 7c 24 6c 08       	cmp    DWORD PTR [esp+0x6c],0x8
  100e1c:	75 05                	jne    100e23 <_knumber+0xc9>
  100e1e:	83 6c 24 70 01       	sub    DWORD PTR [esp+0x70],0x1
  100e23:	c7 44 24 58 00 00 00 	mov    DWORD PTR [esp+0x58],0x0
  100e2a:	00 
  100e2b:	83 7c 24 68 00       	cmp    DWORD PTR [esp+0x68],0x0
  100e30:	75 58                	jne    100e8a <_knumber+0x130>
  100e32:	8b 44 24 58          	mov    eax,DWORD PTR [esp+0x58]
  100e36:	8d 50 01             	lea    edx,[eax+0x1]
  100e39:	89 54 24 58          	mov    DWORD PTR [esp+0x58],edx
  100e3d:	c6 44 04 0e 30       	mov    BYTE PTR [esp+eax*1+0xe],0x30
  100e42:	eb 4d                	jmp    100e91 <_knumber+0x137>
  100e44:	8b 44 24 68          	mov    eax,DWORD PTR [esp+0x68]
  100e48:	8b 4c 24 6c          	mov    ecx,DWORD PTR [esp+0x6c]
  100e4c:	ba 00 00 00 00       	mov    edx,0x0
  100e51:	f7 f1                	div    ecx
  100e53:	89 d0                	mov    eax,edx
  100e55:	89 44 24 50          	mov    DWORD PTR [esp+0x50],eax
  100e59:	8b 44 24 68          	mov    eax,DWORD PTR [esp+0x68]
  100e5d:	8b 4c 24 6c          	mov    ecx,DWORD PTR [esp+0x6c]
  100e61:	ba 00 00 00 00       	mov    edx,0x0
  100e66:	f7 f1                	div    ecx
  100e68:	89 44 24 68          	mov    DWORD PTR [esp+0x68],eax
  100e6c:	8b 44 24 50          	mov    eax,DWORD PTR [esp+0x50]
  100e70:	0f b6 90 3c 32 10 00 	movzx  edx,BYTE PTR [eax+0x10323c]
  100e77:	8b 44 24 58          	mov    eax,DWORD PTR [esp+0x58]
  100e7b:	8d 48 01             	lea    ecx,[eax+0x1]
  100e7e:	89 4c 24 58          	mov    DWORD PTR [esp+0x58],ecx
  100e82:	0a 54 24 57          	or     dl,BYTE PTR [esp+0x57]
  100e86:	88 54 04 0e          	mov    BYTE PTR [esp+eax*1+0xe],dl
  100e8a:	83 7c 24 68 00       	cmp    DWORD PTR [esp+0x68],0x0
  100e8f:	75 b3                	jne    100e44 <_knumber+0xea>
  100e91:	8b 44 24 58          	mov    eax,DWORD PTR [esp+0x58]
  100e95:	3b 44 24 74          	cmp    eax,DWORD PTR [esp+0x74]
  100e99:	7e 08                	jle    100ea3 <_knumber+0x149>
  100e9b:	8b 44 24 58          	mov    eax,DWORD PTR [esp+0x58]
  100e9f:	89 44 24 74          	mov    DWORD PTR [esp+0x74],eax
  100ea3:	8b 44 24 74          	mov    eax,DWORD PTR [esp+0x74]
  100ea7:	29 44 24 70          	sub    DWORD PTR [esp+0x70],eax
  100eab:	8b 44 24 78          	mov    eax,DWORD PTR [esp+0x78]
  100eaf:	83 e0 11             	and    eax,0x11
  100eb2:	85 c0                	test   eax,eax
  100eb4:	75 1f                	jne    100ed5 <_knumber+0x17b>
  100eb6:	eb 0e                	jmp    100ec6 <_knumber+0x16c>
  100eb8:	8b 44 24 64          	mov    eax,DWORD PTR [esp+0x64]
  100ebc:	8d 50 01             	lea    edx,[eax+0x1]
  100ebf:	89 54 24 64          	mov    DWORD PTR [esp+0x64],edx
  100ec3:	c6 00 20             	mov    BYTE PTR [eax],0x20
  100ec6:	8b 44 24 70          	mov    eax,DWORD PTR [esp+0x70]
  100eca:	8d 50 ff             	lea    edx,[eax-0x1]
  100ecd:	89 54 24 70          	mov    DWORD PTR [esp+0x70],edx
  100ed1:	85 c0                	test   eax,eax
  100ed3:	7f e3                	jg     100eb8 <_knumber+0x15e>
  100ed5:	80 7c 24 5f 00       	cmp    BYTE PTR [esp+0x5f],0x0
  100eda:	74 12                	je     100eee <_knumber+0x194>
  100edc:	8b 44 24 64          	mov    eax,DWORD PTR [esp+0x64]
  100ee0:	8d 50 01             	lea    edx,[eax+0x1]
  100ee3:	89 54 24 64          	mov    DWORD PTR [esp+0x64],edx
  100ee7:	0f b6 54 24 5f       	movzx  edx,BYTE PTR [esp+0x5f]
  100eec:	88 10                	mov    BYTE PTR [eax],dl
  100eee:	8b 44 24 78          	mov    eax,DWORD PTR [esp+0x78]
  100ef2:	83 e0 40             	and    eax,0x40
  100ef5:	85 c0                	test   eax,eax
  100ef7:	74 41                	je     100f3a <_knumber+0x1e0>
  100ef9:	83 7c 24 6c 08       	cmp    DWORD PTR [esp+0x6c],0x8
  100efe:	75 10                	jne    100f10 <_knumber+0x1b6>
  100f00:	8b 44 24 64          	mov    eax,DWORD PTR [esp+0x64]
  100f04:	8d 50 01             	lea    edx,[eax+0x1]
  100f07:	89 54 24 64          	mov    DWORD PTR [esp+0x64],edx
  100f0b:	c6 00 30             	mov    BYTE PTR [eax],0x30
  100f0e:	eb 2a                	jmp    100f3a <_knumber+0x1e0>
  100f10:	83 7c 24 6c 10       	cmp    DWORD PTR [esp+0x6c],0x10
  100f15:	75 23                	jne    100f3a <_knumber+0x1e0>
  100f17:	8b 44 24 64          	mov    eax,DWORD PTR [esp+0x64]
  100f1b:	8d 50 01             	lea    edx,[eax+0x1]
  100f1e:	89 54 24 64          	mov    DWORD PTR [esp+0x64],edx
  100f22:	c6 00 30             	mov    BYTE PTR [eax],0x30
  100f25:	8b 44 24 64          	mov    eax,DWORD PTR [esp+0x64]
  100f29:	8d 50 01             	lea    edx,[eax+0x1]
  100f2c:	89 54 24 64          	mov    DWORD PTR [esp+0x64],edx
  100f30:	0f b6 54 24 57       	movzx  edx,BYTE PTR [esp+0x57]
  100f35:	83 ca 58             	or     edx,0x58
  100f38:	88 10                	mov    BYTE PTR [eax],dl
  100f3a:	8b 44 24 78          	mov    eax,DWORD PTR [esp+0x78]
  100f3e:	83 e0 10             	and    eax,0x10
  100f41:	85 c0                	test   eax,eax
  100f43:	75 33                	jne    100f78 <_knumber+0x21e>
  100f45:	eb 12                	jmp    100f59 <_knumber+0x1ff>
  100f47:	8b 44 24 64          	mov    eax,DWORD PTR [esp+0x64]
  100f4b:	8d 50 01             	lea    edx,[eax+0x1]
  100f4e:	89 54 24 64          	mov    DWORD PTR [esp+0x64],edx
  100f52:	0f b6 54 24 56       	movzx  edx,BYTE PTR [esp+0x56]
  100f57:	88 10                	mov    BYTE PTR [eax],dl
  100f59:	8b 44 24 70          	mov    eax,DWORD PTR [esp+0x70]
  100f5d:	8d 50 ff             	lea    edx,[eax-0x1]
  100f60:	89 54 24 70          	mov    DWORD PTR [esp+0x70],edx
  100f64:	85 c0                	test   eax,eax
  100f66:	7f df                	jg     100f47 <_knumber+0x1ed>
  100f68:	eb 0e                	jmp    100f78 <_knumber+0x21e>
  100f6a:	8b 44 24 64          	mov    eax,DWORD PTR [esp+0x64]
  100f6e:	8d 50 01             	lea    edx,[eax+0x1]
  100f71:	89 54 24 64          	mov    DWORD PTR [esp+0x64],edx
  100f75:	c6 00 30             	mov    BYTE PTR [eax],0x30
  100f78:	8b 44 24 74          	mov    eax,DWORD PTR [esp+0x74]
  100f7c:	8d 50 ff             	lea    edx,[eax-0x1]
  100f7f:	89 54 24 74          	mov    DWORD PTR [esp+0x74],edx
  100f83:	39 44 24 58          	cmp    DWORD PTR [esp+0x58],eax
  100f87:	7c e1                	jl     100f6a <_knumber+0x210>
  100f89:	eb 1a                	jmp    100fa5 <_knumber+0x24b>
  100f8b:	8b 44 24 64          	mov    eax,DWORD PTR [esp+0x64]
  100f8f:	8d 50 01             	lea    edx,[eax+0x1]
  100f92:	89 54 24 64          	mov    DWORD PTR [esp+0x64],edx
  100f96:	8d 4c 24 0e          	lea    ecx,[esp+0xe]
  100f9a:	8b 54 24 58          	mov    edx,DWORD PTR [esp+0x58]
  100f9e:	01 ca                	add    edx,ecx
  100fa0:	0f b6 12             	movzx  edx,BYTE PTR [edx]
  100fa3:	88 10                	mov    BYTE PTR [eax],dl
  100fa5:	8b 44 24 58          	mov    eax,DWORD PTR [esp+0x58]
  100fa9:	8d 50 ff             	lea    edx,[eax-0x1]
  100fac:	89 54 24 58          	mov    DWORD PTR [esp+0x58],edx
  100fb0:	85 c0                	test   eax,eax
  100fb2:	7f d7                	jg     100f8b <_knumber+0x231>
  100fb4:	eb 0e                	jmp    100fc4 <_knumber+0x26a>
  100fb6:	8b 44 24 64          	mov    eax,DWORD PTR [esp+0x64]
  100fba:	8d 50 01             	lea    edx,[eax+0x1]
  100fbd:	89 54 24 64          	mov    DWORD PTR [esp+0x64],edx
  100fc1:	c6 00 20             	mov    BYTE PTR [eax],0x20
  100fc4:	8b 44 24 70          	mov    eax,DWORD PTR [esp+0x70]
  100fc8:	8d 50 ff             	lea    edx,[eax-0x1]
  100fcb:	89 54 24 70          	mov    DWORD PTR [esp+0x70],edx
  100fcf:	85 c0                	test   eax,eax
  100fd1:	7f e3                	jg     100fb6 <_knumber+0x25c>
  100fd3:	8b 44 24 64          	mov    eax,DWORD PTR [esp+0x64]
  100fd7:	83 c4 60             	add    esp,0x60
  100fda:	c3                   	ret    

00100fdb <_kvsprintf>:
  100fdb:	83 ec 5c             	sub    esp,0x5c
  100fde:	8b 44 24 60          	mov    eax,DWORD PTR [esp+0x60]
  100fe2:	89 44 24 40          	mov    DWORD PTR [esp+0x40],eax
  100fe6:	e9 b6 04 00 00       	jmp    1014a1 <_kvsprintf+0x4c6>
  100feb:	8b 44 24 64          	mov    eax,DWORD PTR [esp+0x64]
  100fef:	0f b6 00             	movzx  eax,BYTE PTR [eax]
  100ff2:	3c 25                	cmp    al,0x25
  100ff4:	74 19                	je     10100f <_kvsprintf+0x34>
  100ff6:	8b 54 24 64          	mov    edx,DWORD PTR [esp+0x64]
  100ffa:	8b 44 24 40          	mov    eax,DWORD PTR [esp+0x40]
  100ffe:	8d 48 01             	lea    ecx,[eax+0x1]
  101001:	89 4c 24 40          	mov    DWORD PTR [esp+0x40],ecx
  101005:	0f b6 12             	movzx  edx,BYTE PTR [edx]
  101008:	88 10                	mov    BYTE PTR [eax],dl
  10100a:	e9 87 04 00 00       	jmp    101496 <_kvsprintf+0x4bb>
  10100f:	c7 44 24 38 00 00 00 	mov    DWORD PTR [esp+0x38],0x0
  101016:	00 
  101017:	8b 44 24 64          	mov    eax,DWORD PTR [esp+0x64]
  10101b:	83 c0 01             	add    eax,0x1
  10101e:	89 44 24 64          	mov    DWORD PTR [esp+0x64],eax
  101022:	8b 44 24 64          	mov    eax,DWORD PTR [esp+0x64]
  101026:	0f b6 00             	movzx  eax,BYTE PTR [eax]
  101029:	0f be c0             	movsx  eax,al
  10102c:	83 e8 20             	sub    eax,0x20
  10102f:	83 f8 10             	cmp    eax,0x10
  101032:	77 2c                	ja     101060 <_kvsprintf+0x85>
  101034:	8b 04 85 a8 30 10 00 	mov    eax,DWORD PTR [eax*4+0x1030a8]
  10103b:	ff e0                	jmp    eax
  10103d:	83 4c 24 38 10       	or     DWORD PTR [esp+0x38],0x10
  101042:	eb d3                	jmp    101017 <_kvsprintf+0x3c>
  101044:	83 4c 24 38 04       	or     DWORD PTR [esp+0x38],0x4
  101049:	eb cc                	jmp    101017 <_kvsprintf+0x3c>
  10104b:	83 4c 24 38 08       	or     DWORD PTR [esp+0x38],0x8
  101050:	eb c5                	jmp    101017 <_kvsprintf+0x3c>
  101052:	83 4c 24 38 40       	or     DWORD PTR [esp+0x38],0x40
  101057:	eb be                	jmp    101017 <_kvsprintf+0x3c>
  101059:	83 4c 24 38 01       	or     DWORD PTR [esp+0x38],0x1
  10105e:	eb b7                	jmp    101017 <_kvsprintf+0x3c>
  101060:	c7 44 24 34 ff ff ff 	mov    DWORD PTR [esp+0x34],0xffffffff
  101067:	ff 
  101068:	8b 44 24 64          	mov    eax,DWORD PTR [esp+0x64]
  10106c:	0f b6 00             	movzx  eax,BYTE PTR [eax]
  10106f:	0f be c0             	movsx  eax,al
  101072:	89 04 24             	mov    DWORD PTR [esp],eax
  101075:	e8 6a fc ff ff       	call   100ce4 <_isdigit>
  10107a:	85 c0                	test   eax,eax
  10107c:	74 12                	je     101090 <_kvsprintf+0xb5>
  10107e:	8d 44 24 64          	lea    eax,[esp+0x64]
  101082:	89 04 24             	mov    DWORD PTR [esp],eax
  101085:	e8 74 fc ff ff       	call   100cfe <_skip_atoi>
  10108a:	89 44 24 34          	mov    DWORD PTR [esp+0x34],eax
  10108e:	eb 37                	jmp    1010c7 <_kvsprintf+0xec>
  101090:	8b 44 24 64          	mov    eax,DWORD PTR [esp+0x64]
  101094:	0f b6 00             	movzx  eax,BYTE PTR [eax]
  101097:	3c 2a                	cmp    al,0x2a
  101099:	75 2c                	jne    1010c7 <_kvsprintf+0xec>
  10109b:	8b 44 24 64          	mov    eax,DWORD PTR [esp+0x64]
  10109f:	83 c0 01             	add    eax,0x1
  1010a2:	89 44 24 64          	mov    DWORD PTR [esp+0x64],eax
  1010a6:	8b 44 24 68          	mov    eax,DWORD PTR [esp+0x68]
  1010aa:	8d 50 04             	lea    edx,[eax+0x4]
  1010ad:	89 54 24 68          	mov    DWORD PTR [esp+0x68],edx
  1010b1:	8b 00                	mov    eax,DWORD PTR [eax]
  1010b3:	89 44 24 34          	mov    DWORD PTR [esp+0x34],eax
  1010b7:	83 7c 24 34 00       	cmp    DWORD PTR [esp+0x34],0x0
  1010bc:	79 09                	jns    1010c7 <_kvsprintf+0xec>
  1010be:	f7 5c 24 34          	neg    DWORD PTR [esp+0x34]
  1010c2:	83 4c 24 38 10       	or     DWORD PTR [esp+0x38],0x10
  1010c7:	c7 44 24 30 ff ff ff 	mov    DWORD PTR [esp+0x30],0xffffffff
  1010ce:	ff 
  1010cf:	8b 44 24 64          	mov    eax,DWORD PTR [esp+0x64]
  1010d3:	0f b6 00             	movzx  eax,BYTE PTR [eax]
  1010d6:	3c 2e                	cmp    al,0x2e
  1010d8:	75 69                	jne    101143 <_kvsprintf+0x168>
  1010da:	8b 44 24 64          	mov    eax,DWORD PTR [esp+0x64]
  1010de:	83 c0 01             	add    eax,0x1
  1010e1:	89 44 24 64          	mov    DWORD PTR [esp+0x64],eax
  1010e5:	8b 44 24 64          	mov    eax,DWORD PTR [esp+0x64]
  1010e9:	0f b6 00             	movzx  eax,BYTE PTR [eax]
  1010ec:	0f be c0             	movsx  eax,al
  1010ef:	89 04 24             	mov    DWORD PTR [esp],eax
  1010f2:	e8 ed fb ff ff       	call   100ce4 <_isdigit>
  1010f7:	85 c0                	test   eax,eax
  1010f9:	74 12                	je     10110d <_kvsprintf+0x132>
  1010fb:	8d 44 24 64          	lea    eax,[esp+0x64]
  1010ff:	89 04 24             	mov    DWORD PTR [esp],eax
  101102:	e8 f7 fb ff ff       	call   100cfe <_skip_atoi>
  101107:	89 44 24 30          	mov    DWORD PTR [esp+0x30],eax
  10110b:	eb 27                	jmp    101134 <_kvsprintf+0x159>
  10110d:	8b 44 24 64          	mov    eax,DWORD PTR [esp+0x64]
  101111:	0f b6 00             	movzx  eax,BYTE PTR [eax]
  101114:	3c 2a                	cmp    al,0x2a
  101116:	75 1c                	jne    101134 <_kvsprintf+0x159>
  101118:	8b 44 24 64          	mov    eax,DWORD PTR [esp+0x64]
  10111c:	83 c0 01             	add    eax,0x1
  10111f:	89 44 24 64          	mov    DWORD PTR [esp+0x64],eax
  101123:	8b 44 24 68          	mov    eax,DWORD PTR [esp+0x68]
  101127:	8d 50 04             	lea    edx,[eax+0x4]
  10112a:	89 54 24 68          	mov    DWORD PTR [esp+0x68],edx
  10112e:	8b 00                	mov    eax,DWORD PTR [eax]
  101130:	89 44 24 30          	mov    DWORD PTR [esp+0x30],eax
  101134:	83 7c 24 30 00       	cmp    DWORD PTR [esp+0x30],0x0
  101139:	79 08                	jns    101143 <_kvsprintf+0x168>
  10113b:	c7 44 24 30 00 00 00 	mov    DWORD PTR [esp+0x30],0x0
  101142:	00 
  101143:	c7 44 24 2c ff ff ff 	mov    DWORD PTR [esp+0x2c],0xffffffff
  10114a:	ff 
  10114b:	8b 44 24 64          	mov    eax,DWORD PTR [esp+0x64]
  10114f:	0f b6 00             	movzx  eax,BYTE PTR [eax]
  101152:	3c 68                	cmp    al,0x68
  101154:	74 16                	je     10116c <_kvsprintf+0x191>
  101156:	8b 44 24 64          	mov    eax,DWORD PTR [esp+0x64]
  10115a:	0f b6 00             	movzx  eax,BYTE PTR [eax]
  10115d:	3c 6c                	cmp    al,0x6c
  10115f:	74 0b                	je     10116c <_kvsprintf+0x191>
  101161:	8b 44 24 64          	mov    eax,DWORD PTR [esp+0x64]
  101165:	0f b6 00             	movzx  eax,BYTE PTR [eax]
  101168:	3c 4c                	cmp    al,0x4c
  10116a:	75 19                	jne    101185 <_kvsprintf+0x1aa>
  10116c:	8b 44 24 64          	mov    eax,DWORD PTR [esp+0x64]
  101170:	0f b6 00             	movzx  eax,BYTE PTR [eax]
  101173:	0f be c0             	movsx  eax,al
  101176:	89 44 24 2c          	mov    DWORD PTR [esp+0x2c],eax
  10117a:	8b 44 24 64          	mov    eax,DWORD PTR [esp+0x64]
  10117e:	83 c0 01             	add    eax,0x1
  101181:	89 44 24 64          	mov    DWORD PTR [esp+0x64],eax
  101185:	c7 44 24 44 0a 00 00 	mov    DWORD PTR [esp+0x44],0xa
  10118c:	00 
  10118d:	8b 44 24 64          	mov    eax,DWORD PTR [esp+0x64]
  101191:	0f b6 00             	movzx  eax,BYTE PTR [eax]
  101194:	0f be c0             	movsx  eax,al
  101197:	83 e8 25             	sub    eax,0x25
  10119a:	83 f8 53             	cmp    eax,0x53
  10119d:	0f 87 fe 01 00 00    	ja     1013a1 <_kvsprintf+0x3c6>
  1011a3:	8b 04 85 ec 30 10 00 	mov    eax,DWORD PTR [eax*4+0x1030ec]
  1011aa:	ff e0                	jmp    eax
  1011ac:	8b 44 24 38          	mov    eax,DWORD PTR [esp+0x38]
  1011b0:	83 e0 10             	and    eax,0x10
  1011b3:	85 c0                	test   eax,eax
  1011b5:	75 1c                	jne    1011d3 <_kvsprintf+0x1f8>
  1011b7:	eb 0e                	jmp    1011c7 <_kvsprintf+0x1ec>
  1011b9:	8b 44 24 40          	mov    eax,DWORD PTR [esp+0x40]
  1011bd:	8d 50 01             	lea    edx,[eax+0x1]
  1011c0:	89 54 24 40          	mov    DWORD PTR [esp+0x40],edx
  1011c4:	c6 00 20             	mov    BYTE PTR [eax],0x20
  1011c7:	83 6c 24 34 01       	sub    DWORD PTR [esp+0x34],0x1
  1011cc:	83 7c 24 34 00       	cmp    DWORD PTR [esp+0x34],0x0
  1011d1:	7f e6                	jg     1011b9 <_kvsprintf+0x1de>
  1011d3:	8b 44 24 68          	mov    eax,DWORD PTR [esp+0x68]
  1011d7:	8d 50 04             	lea    edx,[eax+0x4]
  1011da:	89 54 24 68          	mov    DWORD PTR [esp+0x68],edx
  1011de:	8b 08                	mov    ecx,DWORD PTR [eax]
  1011e0:	8b 44 24 40          	mov    eax,DWORD PTR [esp+0x40]
  1011e4:	8d 50 01             	lea    edx,[eax+0x1]
  1011e7:	89 54 24 40          	mov    DWORD PTR [esp+0x40],edx
  1011eb:	89 ca                	mov    edx,ecx
  1011ed:	88 10                	mov    BYTE PTR [eax],dl
  1011ef:	eb 0e                	jmp    1011ff <_kvsprintf+0x224>
  1011f1:	8b 44 24 40          	mov    eax,DWORD PTR [esp+0x40]
  1011f5:	8d 50 01             	lea    edx,[eax+0x1]
  1011f8:	89 54 24 40          	mov    DWORD PTR [esp+0x40],edx
  1011fc:	c6 00 20             	mov    BYTE PTR [eax],0x20
  1011ff:	83 6c 24 34 01       	sub    DWORD PTR [esp+0x34],0x1
  101204:	83 7c 24 34 00       	cmp    DWORD PTR [esp+0x34],0x0
  101209:	7f e6                	jg     1011f1 <_kvsprintf+0x216>
  10120b:	e9 86 02 00 00       	jmp    101496 <_kvsprintf+0x4bb>
  101210:	8b 44 24 68          	mov    eax,DWORD PTR [esp+0x68]
  101214:	8d 50 04             	lea    edx,[eax+0x4]
  101217:	89 54 24 68          	mov    DWORD PTR [esp+0x68],edx
  10121b:	8b 00                	mov    eax,DWORD PTR [eax]
  10121d:	89 44 24 3c          	mov    DWORD PTR [esp+0x3c],eax
  101221:	8b 44 24 30          	mov    eax,DWORD PTR [esp+0x30]
  101225:	89 44 24 04          	mov    DWORD PTR [esp+0x4],eax
  101229:	8b 44 24 3c          	mov    eax,DWORD PTR [esp+0x3c]
  10122d:	89 04 24             	mov    DWORD PTR [esp],eax
  101230:	e8 83 f5 ff ff       	call   1007b8 <_strnlen>
  101235:	89 44 24 28          	mov    DWORD PTR [esp+0x28],eax
  101239:	8b 44 24 38          	mov    eax,DWORD PTR [esp+0x38]
  10123d:	83 e0 10             	and    eax,0x10
  101240:	85 c0                	test   eax,eax
  101242:	75 21                	jne    101265 <_kvsprintf+0x28a>
  101244:	eb 0e                	jmp    101254 <_kvsprintf+0x279>
  101246:	8b 44 24 40          	mov    eax,DWORD PTR [esp+0x40]
  10124a:	8d 50 01             	lea    edx,[eax+0x1]
  10124d:	89 54 24 40          	mov    DWORD PTR [esp+0x40],edx
  101251:	c6 00 20             	mov    BYTE PTR [eax],0x20
  101254:	8b 44 24 34          	mov    eax,DWORD PTR [esp+0x34]
  101258:	8d 50 ff             	lea    edx,[eax-0x1]
  10125b:	89 54 24 34          	mov    DWORD PTR [esp+0x34],edx
  10125f:	39 44 24 28          	cmp    DWORD PTR [esp+0x28],eax
  101263:	7c e1                	jl     101246 <_kvsprintf+0x26b>
  101265:	c7 44 24 48 00 00 00 	mov    DWORD PTR [esp+0x48],0x0
  10126c:	00 
  10126d:	eb 20                	jmp    10128f <_kvsprintf+0x2b4>
  10126f:	8b 54 24 3c          	mov    edx,DWORD PTR [esp+0x3c]
  101273:	8d 42 01             	lea    eax,[edx+0x1]
  101276:	89 44 24 3c          	mov    DWORD PTR [esp+0x3c],eax
  10127a:	8b 44 24 40          	mov    eax,DWORD PTR [esp+0x40]
  10127e:	8d 48 01             	lea    ecx,[eax+0x1]
  101281:	89 4c 24 40          	mov    DWORD PTR [esp+0x40],ecx
  101285:	0f b6 12             	movzx  edx,BYTE PTR [edx]
  101288:	88 10                	mov    BYTE PTR [eax],dl
  10128a:	83 44 24 48 01       	add    DWORD PTR [esp+0x48],0x1
  10128f:	8b 44 24 48          	mov    eax,DWORD PTR [esp+0x48]
  101293:	3b 44 24 28          	cmp    eax,DWORD PTR [esp+0x28]
  101297:	7c d6                	jl     10126f <_kvsprintf+0x294>
  101299:	eb 0e                	jmp    1012a9 <_kvsprintf+0x2ce>
  10129b:	8b 44 24 40          	mov    eax,DWORD PTR [esp+0x40]
  10129f:	8d 50 01             	lea    edx,[eax+0x1]
  1012a2:	89 54 24 40          	mov    DWORD PTR [esp+0x40],edx
  1012a6:	c6 00 20             	mov    BYTE PTR [eax],0x20
  1012a9:	8b 44 24 34          	mov    eax,DWORD PTR [esp+0x34]
  1012ad:	8d 50 ff             	lea    edx,[eax-0x1]
  1012b0:	89 54 24 34          	mov    DWORD PTR [esp+0x34],edx
  1012b4:	39 44 24 28          	cmp    DWORD PTR [esp+0x28],eax
  1012b8:	7c e1                	jl     10129b <_kvsprintf+0x2c0>
  1012ba:	e9 d7 01 00 00       	jmp    101496 <_kvsprintf+0x4bb>
  1012bf:	83 7c 24 34 ff       	cmp    DWORD PTR [esp+0x34],0xffffffff
  1012c4:	75 0d                	jne    1012d3 <_kvsprintf+0x2f8>
  1012c6:	c7 44 24 34 08 00 00 	mov    DWORD PTR [esp+0x34],0x8
  1012cd:	00 
  1012ce:	83 4c 24 38 01       	or     DWORD PTR [esp+0x38],0x1
  1012d3:	8b 44 24 68          	mov    eax,DWORD PTR [esp+0x68]
  1012d7:	8d 50 04             	lea    edx,[eax+0x4]
  1012da:	89 54 24 68          	mov    DWORD PTR [esp+0x68],edx
  1012de:	8b 00                	mov    eax,DWORD PTR [eax]
  1012e0:	89 c2                	mov    edx,eax
  1012e2:	8b 44 24 38          	mov    eax,DWORD PTR [esp+0x38]
  1012e6:	89 44 24 14          	mov    DWORD PTR [esp+0x14],eax
  1012ea:	8b 44 24 30          	mov    eax,DWORD PTR [esp+0x30]
  1012ee:	89 44 24 10          	mov    DWORD PTR [esp+0x10],eax
  1012f2:	8b 44 24 34          	mov    eax,DWORD PTR [esp+0x34]
  1012f6:	89 44 24 0c          	mov    DWORD PTR [esp+0xc],eax
  1012fa:	c7 44 24 08 10 00 00 	mov    DWORD PTR [esp+0x8],0x10
  101301:	00 
  101302:	89 54 24 04          	mov    DWORD PTR [esp+0x4],edx
  101306:	8b 44 24 40          	mov    eax,DWORD PTR [esp+0x40]
  10130a:	89 04 24             	mov    DWORD PTR [esp],eax
  10130d:	e8 48 fa ff ff       	call   100d5a <_knumber>
  101312:	89 44 24 40          	mov    DWORD PTR [esp+0x40],eax
  101316:	e9 7b 01 00 00       	jmp    101496 <_kvsprintf+0x4bb>
  10131b:	83 7c 24 2c 6c       	cmp    DWORD PTR [esp+0x2c],0x6c
  101320:	75 26                	jne    101348 <_kvsprintf+0x36d>
  101322:	8b 44 24 68          	mov    eax,DWORD PTR [esp+0x68]
  101326:	8d 50 04             	lea    edx,[eax+0x4]
  101329:	89 54 24 68          	mov    DWORD PTR [esp+0x68],edx
  10132d:	8b 00                	mov    eax,DWORD PTR [eax]
  10132f:	89 44 24 20          	mov    DWORD PTR [esp+0x20],eax
  101333:	8b 44 24 40          	mov    eax,DWORD PTR [esp+0x40]
  101337:	2b 44 24 60          	sub    eax,DWORD PTR [esp+0x60]
  10133b:	89 c2                	mov    edx,eax
  10133d:	8b 44 24 20          	mov    eax,DWORD PTR [esp+0x20]
  101341:	89 10                	mov    DWORD PTR [eax],edx
  101343:	e9 4e 01 00 00       	jmp    101496 <_kvsprintf+0x4bb>
  101348:	8b 44 24 68          	mov    eax,DWORD PTR [esp+0x68]
  10134c:	8d 50 04             	lea    edx,[eax+0x4]
  10134f:	89 54 24 68          	mov    DWORD PTR [esp+0x68],edx
  101353:	8b 00                	mov    eax,DWORD PTR [eax]
  101355:	89 44 24 24          	mov    DWORD PTR [esp+0x24],eax
  101359:	8b 44 24 40          	mov    eax,DWORD PTR [esp+0x40]
  10135d:	2b 44 24 60          	sub    eax,DWORD PTR [esp+0x60]
  101361:	89 c2                	mov    edx,eax
  101363:	8b 44 24 24          	mov    eax,DWORD PTR [esp+0x24]
  101367:	89 10                	mov    DWORD PTR [eax],edx
  101369:	e9 28 01 00 00       	jmp    101496 <_kvsprintf+0x4bb>
  10136e:	8b 44 24 40          	mov    eax,DWORD PTR [esp+0x40]
  101372:	8d 50 01             	lea    edx,[eax+0x1]
  101375:	89 54 24 40          	mov    DWORD PTR [esp+0x40],edx
  101379:	c6 00 25             	mov    BYTE PTR [eax],0x25
  10137c:	e9 15 01 00 00       	jmp    101496 <_kvsprintf+0x4bb>
  101381:	c7 44 24 44 08 00 00 	mov    DWORD PTR [esp+0x44],0x8
  101388:	00 
  101389:	eb 59                	jmp    1013e4 <_kvsprintf+0x409>
  10138b:	83 4c 24 38 20       	or     DWORD PTR [esp+0x38],0x20
  101390:	c7 44 24 44 10 00 00 	mov    DWORD PTR [esp+0x44],0x10
  101397:	00 
  101398:	eb 4a                	jmp    1013e4 <_kvsprintf+0x409>
  10139a:	83 4c 24 38 02       	or     DWORD PTR [esp+0x38],0x2
  10139f:	eb 42                	jmp    1013e3 <_kvsprintf+0x408>
  1013a1:	8b 44 24 40          	mov    eax,DWORD PTR [esp+0x40]
  1013a5:	8d 50 01             	lea    edx,[eax+0x1]
  1013a8:	89 54 24 40          	mov    DWORD PTR [esp+0x40],edx
  1013ac:	c6 00 25             	mov    BYTE PTR [eax],0x25
  1013af:	8b 44 24 64          	mov    eax,DWORD PTR [esp+0x64]
  1013b3:	0f b6 00             	movzx  eax,BYTE PTR [eax]
  1013b6:	84 c0                	test   al,al
  1013b8:	74 19                	je     1013d3 <_kvsprintf+0x3f8>
  1013ba:	8b 54 24 64          	mov    edx,DWORD PTR [esp+0x64]
  1013be:	8b 44 24 40          	mov    eax,DWORD PTR [esp+0x40]
  1013c2:	8d 48 01             	lea    ecx,[eax+0x1]
  1013c5:	89 4c 24 40          	mov    DWORD PTR [esp+0x40],ecx
  1013c9:	0f b6 12             	movzx  edx,BYTE PTR [edx]
  1013cc:	88 10                	mov    BYTE PTR [eax],dl
  1013ce:	e9 c3 00 00 00       	jmp    101496 <_kvsprintf+0x4bb>
  1013d3:	8b 44 24 64          	mov    eax,DWORD PTR [esp+0x64]
  1013d7:	83 e8 01             	sub    eax,0x1
  1013da:	89 44 24 64          	mov    DWORD PTR [esp+0x64],eax
  1013de:	e9 b3 00 00 00       	jmp    101496 <_kvsprintf+0x4bb>
  1013e3:	90                   	nop
  1013e4:	83 7c 24 2c 6c       	cmp    DWORD PTR [esp+0x2c],0x6c
  1013e9:	75 13                	jne    1013fe <_kvsprintf+0x423>
  1013eb:	8b 44 24 68          	mov    eax,DWORD PTR [esp+0x68]
  1013ef:	8d 50 04             	lea    edx,[eax+0x4]
  1013f2:	89 54 24 68          	mov    DWORD PTR [esp+0x68],edx
  1013f6:	8b 00                	mov    eax,DWORD PTR [eax]
  1013f8:	89 44 24 4c          	mov    DWORD PTR [esp+0x4c],eax
  1013fc:	eb 60                	jmp    10145e <_kvsprintf+0x483>
  1013fe:	83 7c 24 2c 68       	cmp    DWORD PTR [esp+0x2c],0x68
  101403:	75 2a                	jne    10142f <_kvsprintf+0x454>
  101405:	8b 44 24 68          	mov    eax,DWORD PTR [esp+0x68]
  101409:	8d 50 04             	lea    edx,[eax+0x4]
  10140c:	89 54 24 68          	mov    DWORD PTR [esp+0x68],edx
  101410:	8b 00                	mov    eax,DWORD PTR [eax]
  101412:	0f b7 c0             	movzx  eax,ax
  101415:	89 44 24 4c          	mov    DWORD PTR [esp+0x4c],eax
  101419:	8b 44 24 38          	mov    eax,DWORD PTR [esp+0x38]
  10141d:	83 e0 02             	and    eax,0x2
  101420:	85 c0                	test   eax,eax
  101422:	74 3a                	je     10145e <_kvsprintf+0x483>
  101424:	8b 44 24 4c          	mov    eax,DWORD PTR [esp+0x4c]
  101428:	98                   	cwde   
  101429:	89 44 24 4c          	mov    DWORD PTR [esp+0x4c],eax
  10142d:	eb 2f                	jmp    10145e <_kvsprintf+0x483>
  10142f:	8b 44 24 38          	mov    eax,DWORD PTR [esp+0x38]
  101433:	83 e0 02             	and    eax,0x2
  101436:	85 c0                	test   eax,eax
  101438:	74 13                	je     10144d <_kvsprintf+0x472>
  10143a:	8b 44 24 68          	mov    eax,DWORD PTR [esp+0x68]
  10143e:	8d 50 04             	lea    edx,[eax+0x4]
  101441:	89 54 24 68          	mov    DWORD PTR [esp+0x68],edx
  101445:	8b 00                	mov    eax,DWORD PTR [eax]
  101447:	89 44 24 4c          	mov    DWORD PTR [esp+0x4c],eax
  10144b:	eb 11                	jmp    10145e <_kvsprintf+0x483>
  10144d:	8b 44 24 68          	mov    eax,DWORD PTR [esp+0x68]
  101451:	8d 50 04             	lea    edx,[eax+0x4]
  101454:	89 54 24 68          	mov    DWORD PTR [esp+0x68],edx
  101458:	8b 00                	mov    eax,DWORD PTR [eax]
  10145a:	89 44 24 4c          	mov    DWORD PTR [esp+0x4c],eax
  10145e:	8b 44 24 4c          	mov    eax,DWORD PTR [esp+0x4c]
  101462:	8b 54 24 38          	mov    edx,DWORD PTR [esp+0x38]
  101466:	89 54 24 14          	mov    DWORD PTR [esp+0x14],edx
  10146a:	8b 54 24 30          	mov    edx,DWORD PTR [esp+0x30]
  10146e:	89 54 24 10          	mov    DWORD PTR [esp+0x10],edx
  101472:	8b 54 24 34          	mov    edx,DWORD PTR [esp+0x34]
  101476:	89 54 24 0c          	mov    DWORD PTR [esp+0xc],edx
  10147a:	8b 54 24 44          	mov    edx,DWORD PTR [esp+0x44]
  10147e:	89 54 24 08          	mov    DWORD PTR [esp+0x8],edx
  101482:	89 44 24 04          	mov    DWORD PTR [esp+0x4],eax
  101486:	8b 44 24 40          	mov    eax,DWORD PTR [esp+0x40]
  10148a:	89 04 24             	mov    DWORD PTR [esp],eax
  10148d:	e8 c8 f8 ff ff       	call   100d5a <_knumber>
  101492:	89 44 24 40          	mov    DWORD PTR [esp+0x40],eax
  101496:	8b 44 24 64          	mov    eax,DWORD PTR [esp+0x64]
  10149a:	83 c0 01             	add    eax,0x1
  10149d:	89 44 24 64          	mov    DWORD PTR [esp+0x64],eax
  1014a1:	8b 44 24 64          	mov    eax,DWORD PTR [esp+0x64]
  1014a5:	0f b6 00             	movzx  eax,BYTE PTR [eax]
  1014a8:	84 c0                	test   al,al
  1014aa:	0f 85 3b fb ff ff    	jne    100feb <_kvsprintf+0x10>
  1014b0:	8b 44 24 40          	mov    eax,DWORD PTR [esp+0x40]
  1014b4:	c6 00 00             	mov    BYTE PTR [eax],0x0
  1014b7:	8b 44 24 40          	mov    eax,DWORD PTR [esp+0x40]
  1014bb:	2b 44 24 60          	sub    eax,DWORD PTR [esp+0x60]
  1014bf:	83 c4 5c             	add    esp,0x5c
  1014c2:	c3                   	ret    

001014c3 <_ksprintf>:
  1014c3:	83 ec 2c             	sub    esp,0x2c
  1014c6:	8d 44 24 38          	lea    eax,[esp+0x38]
  1014ca:	89 44 24 18          	mov    DWORD PTR [esp+0x18],eax
  1014ce:	8b 44 24 18          	mov    eax,DWORD PTR [esp+0x18]
  1014d2:	89 44 24 08          	mov    DWORD PTR [esp+0x8],eax
  1014d6:	8b 44 24 34          	mov    eax,DWORD PTR [esp+0x34]
  1014da:	89 44 24 04          	mov    DWORD PTR [esp+0x4],eax
  1014de:	8b 44 24 30          	mov    eax,DWORD PTR [esp+0x30]
  1014e2:	89 04 24             	mov    DWORD PTR [esp],eax
  1014e5:	e8 f1 fa ff ff       	call   100fdb <_kvsprintf>
  1014ea:	89 44 24 1c          	mov    DWORD PTR [esp+0x1c],eax
  1014ee:	8b 44 24 1c          	mov    eax,DWORD PTR [esp+0x1c]
  1014f2:	83 c4 2c             	add    esp,0x2c
  1014f5:	c3                   	ret    

001014f6 <_kprintf>:
  1014f6:	81 ec 2c 04 00 00    	sub    esp,0x42c
  1014fc:	8d 84 24 34 04 00 00 	lea    eax,[esp+0x434]
  101503:	89 44 24 18          	mov    DWORD PTR [esp+0x18],eax
  101507:	8b 44 24 18          	mov    eax,DWORD PTR [esp+0x18]
  10150b:	89 44 24 08          	mov    DWORD PTR [esp+0x8],eax
  10150f:	8b 84 24 30 04 00 00 	mov    eax,DWORD PTR [esp+0x430]
  101516:	89 44 24 04          	mov    DWORD PTR [esp+0x4],eax
  10151a:	8d 44 24 1c          	lea    eax,[esp+0x1c]
  10151e:	89 04 24             	mov    DWORD PTR [esp],eax
  101521:	e8 b5 fa ff ff       	call   100fdb <_kvsprintf>
  101526:	89 84 24 1c 04 00 00 	mov    DWORD PTR [esp+0x41c],eax
  10152d:	8d 44 24 1c          	lea    eax,[esp+0x1c]
  101531:	89 04 24             	mov    DWORD PTR [esp],eax
  101534:	e8 2e f0 ff ff       	call   100567 <_kprint>
  101539:	8b 84 24 1c 04 00 00 	mov    eax,DWORD PTR [esp+0x41c]
  101540:	81 c4 2c 04 00 00    	add    esp,0x42c
  101546:	c3                   	ret    
  101547:	90                   	nop

00101548 <_gdt_set_entry>:
  101548:	83 ec 18             	sub    esp,0x18
  10154b:	8b 54 24 28          	mov    edx,DWORD PTR [esp+0x28]
  10154f:	8b 44 24 2c          	mov    eax,DWORD PTR [esp+0x2c]
  101553:	88 54 24 04          	mov    BYTE PTR [esp+0x4],dl
  101557:	88 04 24             	mov    BYTE PTR [esp],al
  10155a:	8b 44 24 1c          	mov    eax,DWORD PTR [esp+0x1c]
  10155e:	c1 e0 03             	shl    eax,0x3
  101561:	05 20 80 10 00       	add    eax,0x108020
  101566:	89 44 24 14          	mov    DWORD PTR [esp+0x14],eax
  10156a:	8b 44 24 20          	mov    eax,DWORD PTR [esp+0x20]
  10156e:	89 c2                	mov    edx,eax
  101570:	8b 44 24 14          	mov    eax,DWORD PTR [esp+0x14]
  101574:	66 89 50 02          	mov    WORD PTR [eax+0x2],dx
  101578:	8b 44 24 20          	mov    eax,DWORD PTR [esp+0x20]
  10157c:	c1 e8 10             	shr    eax,0x10
  10157f:	89 c2                	mov    edx,eax
  101581:	8b 44 24 14          	mov    eax,DWORD PTR [esp+0x14]
  101585:	88 50 04             	mov    BYTE PTR [eax+0x4],dl
  101588:	8b 44 24 20          	mov    eax,DWORD PTR [esp+0x20]
  10158c:	c1 e8 18             	shr    eax,0x18
  10158f:	89 c2                	mov    edx,eax
  101591:	8b 44 24 14          	mov    eax,DWORD PTR [esp+0x14]
  101595:	88 50 07             	mov    BYTE PTR [eax+0x7],dl
  101598:	8b 44 24 24          	mov    eax,DWORD PTR [esp+0x24]
  10159c:	89 c2                	mov    edx,eax
  10159e:	8b 44 24 14          	mov    eax,DWORD PTR [esp+0x14]
  1015a2:	66 89 10             	mov    WORD PTR [eax],dx
  1015a5:	8b 44 24 24          	mov    eax,DWORD PTR [esp+0x24]
  1015a9:	c1 e8 10             	shr    eax,0x10
  1015ac:	83 e0 0f             	and    eax,0xf
  1015af:	89 c2                	mov    edx,eax
  1015b1:	8b 44 24 14          	mov    eax,DWORD PTR [esp+0x14]
  1015b5:	88 50 06             	mov    BYTE PTR [eax+0x6],dl
  1015b8:	8b 44 24 14          	mov    eax,DWORD PTR [esp+0x14]
  1015bc:	0f b6 54 24 04       	movzx  edx,BYTE PTR [esp+0x4]
  1015c1:	88 50 05             	mov    BYTE PTR [eax+0x5],dl
  1015c4:	8b 44 24 14          	mov    eax,DWORD PTR [esp+0x14]
  1015c8:	0f b6 40 06          	movzx  eax,BYTE PTR [eax+0x6]
  1015cc:	89 c2                	mov    edx,eax
  1015ce:	0f b6 04 24          	movzx  eax,BYTE PTR [esp]
  1015d2:	83 e0 f0             	and    eax,0xfffffff0
  1015d5:	09 d0                	or     eax,edx
  1015d7:	89 c2                	mov    edx,eax
  1015d9:	8b 44 24 14          	mov    eax,DWORD PTR [esp+0x14]
  1015dd:	88 50 06             	mov    BYTE PTR [eax+0x6],dl
  1015e0:	90                   	nop
  1015e1:	83 c4 18             	add    esp,0x18
  1015e4:	c3                   	ret    

001015e5 <_gdt_init>:
  1015e5:	83 ec 14             	sub    esp,0x14
  1015e8:	66 c7 05 60 80 10 00 	mov    WORD PTR ds:0x108060,0x3f
  1015ef:	3f 00 
  1015f1:	b8 20 80 10 00       	mov    eax,0x108020
  1015f6:	a3 62 80 10 00       	mov    ds:0x108062,eax
  1015fb:	c7 44 24 10 00 00 00 	mov    DWORD PTR [esp+0x10],0x0
  101602:	00 
  101603:	c7 44 24 0c 00 00 00 	mov    DWORD PTR [esp+0xc],0x0
  10160a:	00 
  10160b:	c7 44 24 08 00 00 00 	mov    DWORD PTR [esp+0x8],0x0
  101612:	00 
  101613:	c7 44 24 04 00 00 00 	mov    DWORD PTR [esp+0x4],0x0
  10161a:	00 
  10161b:	c7 04 24 00 00 00 00 	mov    DWORD PTR [esp],0x0
  101622:	e8 21 ff ff ff       	call   101548 <_gdt_set_entry>
  101627:	c7 44 24 10 cf 00 00 	mov    DWORD PTR [esp+0x10],0xcf
  10162e:	00 
  10162f:	c7 44 24 0c 9a 00 00 	mov    DWORD PTR [esp+0xc],0x9a
  101636:	00 
  101637:	c7 44 24 08 ff ff ff 	mov    DWORD PTR [esp+0x8],0xffffffff
  10163e:	ff 
  10163f:	c7 44 24 04 00 00 00 	mov    DWORD PTR [esp+0x4],0x0
  101646:	00 
  101647:	c7 04 24 01 00 00 00 	mov    DWORD PTR [esp],0x1
  10164e:	e8 f5 fe ff ff       	call   101548 <_gdt_set_entry>
  101653:	c7 44 24 10 cf 00 00 	mov    DWORD PTR [esp+0x10],0xcf
  10165a:	00 
  10165b:	c7 44 24 0c 92 00 00 	mov    DWORD PTR [esp+0xc],0x92
  101662:	00 
  101663:	c7 44 24 08 ff ff ff 	mov    DWORD PTR [esp+0x8],0xffffffff
  10166a:	ff 
  10166b:	c7 44 24 04 00 00 00 	mov    DWORD PTR [esp+0x4],0x0
  101672:	00 
  101673:	c7 04 24 02 00 00 00 	mov    DWORD PTR [esp],0x2
  10167a:	e8 c9 fe ff ff       	call   101548 <_gdt_set_entry>
  10167f:	c7 44 24 10 cf 00 00 	mov    DWORD PTR [esp+0x10],0xcf
  101686:	00 
  101687:	c7 44 24 0c fa 00 00 	mov    DWORD PTR [esp+0xc],0xfa
  10168e:	00 
  10168f:	c7 44 24 08 ff ff ff 	mov    DWORD PTR [esp+0x8],0xffffffff
  101696:	ff 
  101697:	c7 44 24 04 00 00 00 	mov    DWORD PTR [esp+0x4],0x0
  10169e:	00 
  10169f:	c7 04 24 03 00 00 00 	mov    DWORD PTR [esp],0x3
  1016a6:	e8 9d fe ff ff       	call   101548 <_gdt_set_entry>
  1016ab:	c7 44 24 10 cf 00 00 	mov    DWORD PTR [esp+0x10],0xcf
  1016b2:	00 
  1016b3:	c7 44 24 0c f2 00 00 	mov    DWORD PTR [esp+0xc],0xf2
  1016ba:	00 
  1016bb:	c7 44 24 08 ff ff ff 	mov    DWORD PTR [esp+0x8],0xffffffff
  1016c2:	ff 
  1016c3:	c7 44 24 04 00 00 00 	mov    DWORD PTR [esp+0x4],0x0
  1016ca:	00 
  1016cb:	c7 04 24 04 00 00 00 	mov    DWORD PTR [esp],0x4
  1016d2:	e8 71 fe ff ff       	call   101548 <_gdt_set_entry>
  1016d7:	0f 01 15 60 80 10 00 	lgdtd  ds:0x108060
  1016de:	66 b8 10 00          	mov    ax,0x10
  1016e2:	8e d8                	mov    ds,eax
  1016e4:	8e c0                	mov    es,eax
  1016e6:	8e e0                	mov    fs,eax
  1016e8:	8e e8                	mov    gs,eax
  1016ea:	8e d0                	mov    ss,eax
  1016ec:	ea f3 16 10 00 08 00 	jmp    0x8:0x1016f3

001016f3 <.i386_lgdt_jump>:
  1016f3:	90                   	nop
  1016f4:	83 c4 14             	add    esp,0x14
  1016f7:	c3                   	ret    

001016f8 <_register_interrupt_handler>:
  1016f8:	83 ec 1c             	sub    esp,0x1c
  1016fb:	8b 44 24 20          	mov    eax,DWORD PTR [esp+0x20]
  1016ff:	89 44 24 04          	mov    DWORD PTR [esp+0x4],eax
  101703:	c7 04 24 88 33 10 00 	mov    DWORD PTR [esp],0x103388
  10170a:	e8 e7 fd ff ff       	call   1014f6 <_kprintf>
  10170f:	81 7c 24 20 ff 00 00 	cmp    DWORD PTR [esp+0x20],0xff
  101716:	00 
  101717:	7f 0f                	jg     101728 <_register_interrupt_handler+0x30>
  101719:	8b 44 24 20          	mov    eax,DWORD PTR [esp+0x20]
  10171d:	8b 54 24 24          	mov    edx,DWORD PTR [esp+0x24]
  101721:	89 14 85 80 80 10 00 	mov    DWORD PTR [eax*4+0x108080],edx
  101728:	90                   	nop
  101729:	83 c4 1c             	add    esp,0x1c
  10172c:	c3                   	ret    

0010172d <_idt_set_entry>:
  10172d:	83 ec 18             	sub    esp,0x18
  101730:	8b 44 24 24          	mov    eax,DWORD PTR [esp+0x24]
  101734:	8b 54 24 28          	mov    edx,DWORD PTR [esp+0x28]
  101738:	66 89 44 24 04       	mov    WORD PTR [esp+0x4],ax
  10173d:	89 d0                	mov    eax,edx
  10173f:	88 04 24             	mov    BYTE PTR [esp],al
  101742:	8b 44 24 1c          	mov    eax,DWORD PTR [esp+0x1c]
  101746:	c1 e0 03             	shl    eax,0x3
  101749:	05 a0 84 10 00       	add    eax,0x1084a0
  10174e:	89 44 24 14          	mov    DWORD PTR [esp+0x14],eax
  101752:	8b 44 24 20          	mov    eax,DWORD PTR [esp+0x20]
  101756:	89 c2                	mov    edx,eax
  101758:	8b 44 24 14          	mov    eax,DWORD PTR [esp+0x14]
  10175c:	66 89 10             	mov    WORD PTR [eax],dx
  10175f:	8b 44 24 20          	mov    eax,DWORD PTR [esp+0x20]
  101763:	c1 e8 10             	shr    eax,0x10
  101766:	89 c2                	mov    edx,eax
  101768:	8b 44 24 14          	mov    eax,DWORD PTR [esp+0x14]
  10176c:	66 89 50 06          	mov    WORD PTR [eax+0x6],dx
  101770:	8b 44 24 14          	mov    eax,DWORD PTR [esp+0x14]
  101774:	c6 40 04 00          	mov    BYTE PTR [eax+0x4],0x0
  101778:	8b 44 24 14          	mov    eax,DWORD PTR [esp+0x14]
  10177c:	0f b7 54 24 04       	movzx  edx,WORD PTR [esp+0x4]
  101781:	66 89 50 02          	mov    WORD PTR [eax+0x2],dx
  101785:	0f b6 04 24          	movzx  eax,BYTE PTR [esp]
  101789:	83 c8 60             	or     eax,0x60
  10178c:	89 c2                	mov    edx,eax
  10178e:	8b 44 24 14          	mov    eax,DWORD PTR [esp+0x14]
  101792:	88 50 05             	mov    BYTE PTR [eax+0x5],dl
  101795:	90                   	nop
  101796:	83 c4 18             	add    esp,0x18
  101799:	c3                   	ret    

0010179a <_pic_init>:
  10179a:	83 ec 1c             	sub    esp,0x1c
  10179d:	c7 44 24 04 11 00 00 	mov    DWORD PTR [esp+0x4],0x11
  1017a4:	00 
  1017a5:	c7 04 24 20 00 00 00 	mov    DWORD PTR [esp],0x20
  1017ac:	e8 ae ee ff ff       	call   10065f <_port_byte_out>
  1017b1:	c7 44 24 04 11 00 00 	mov    DWORD PTR [esp+0x4],0x11
  1017b8:	00 
  1017b9:	c7 04 24 a0 00 00 00 	mov    DWORD PTR [esp],0xa0
  1017c0:	e8 9a ee ff ff       	call   10065f <_port_byte_out>
  1017c5:	c7 44 24 04 20 00 00 	mov    DWORD PTR [esp+0x4],0x20
  1017cc:	00 
  1017cd:	c7 04 24 21 00 00 00 	mov    DWORD PTR [esp],0x21
  1017d4:	e8 86 ee ff ff       	call   10065f <_port_byte_out>
  1017d9:	c7 44 24 04 28 00 00 	mov    DWORD PTR [esp+0x4],0x28
  1017e0:	00 
  1017e1:	c7 04 24 a1 00 00 00 	mov    DWORD PTR [esp],0xa1
  1017e8:	e8 72 ee ff ff       	call   10065f <_port_byte_out>
  1017ed:	c7 44 24 04 04 00 00 	mov    DWORD PTR [esp+0x4],0x4
  1017f4:	00 
  1017f5:	c7 04 24 21 00 00 00 	mov    DWORD PTR [esp],0x21
  1017fc:	e8 5e ee ff ff       	call   10065f <_port_byte_out>
  101801:	c7 44 24 04 02 00 00 	mov    DWORD PTR [esp+0x4],0x2
  101808:	00 
  101809:	c7 04 24 a1 00 00 00 	mov    DWORD PTR [esp],0xa1
  101810:	e8 4a ee ff ff       	call   10065f <_port_byte_out>
  101815:	c7 44 24 04 01 00 00 	mov    DWORD PTR [esp+0x4],0x1
  10181c:	00 
  10181d:	c7 04 24 21 00 00 00 	mov    DWORD PTR [esp],0x21
  101824:	e8 36 ee ff ff       	call   10065f <_port_byte_out>
  101829:	c7 44 24 04 01 00 00 	mov    DWORD PTR [esp+0x4],0x1
  101830:	00 
  101831:	c7 04 24 a1 00 00 00 	mov    DWORD PTR [esp],0xa1
  101838:	e8 22 ee ff ff       	call   10065f <_port_byte_out>
  10183d:	c7 44 24 04 00 00 00 	mov    DWORD PTR [esp+0x4],0x0
  101844:	00 
  101845:	c7 04 24 21 00 00 00 	mov    DWORD PTR [esp],0x21
  10184c:	e8 0e ee ff ff       	call   10065f <_port_byte_out>
  101851:	c7 44 24 04 00 00 00 	mov    DWORD PTR [esp+0x4],0x0
  101858:	00 
  101859:	c7 04 24 a1 00 00 00 	mov    DWORD PTR [esp],0xa1
  101860:	e8 fa ed ff ff       	call   10065f <_port_byte_out>
  101865:	90                   	nop
  101866:	83 c4 1c             	add    esp,0x1c
  101869:	c3                   	ret    

0010186a <_irq_ack>:
  10186a:	83 ec 2c             	sub    esp,0x2c
  10186d:	8b 44 24 30          	mov    eax,DWORD PTR [esp+0x30]
  101871:	88 44 24 1c          	mov    BYTE PTR [esp+0x1c],al
  101875:	80 7c 24 1c 27       	cmp    BYTE PTR [esp+0x1c],0x27
  10187a:	76 14                	jbe    101890 <_irq_ack+0x26>
  10187c:	c7 44 24 04 20 00 00 	mov    DWORD PTR [esp+0x4],0x20
  101883:	00 
  101884:	c7 04 24 a0 00 00 00 	mov    DWORD PTR [esp],0xa0
  10188b:	e8 cf ed ff ff       	call   10065f <_port_byte_out>
  101890:	c7 44 24 04 20 00 00 	mov    DWORD PTR [esp+0x4],0x20
  101897:	00 
  101898:	c7 04 24 20 00 00 00 	mov    DWORD PTR [esp],0x20
  10189f:	e8 bb ed ff ff       	call   10065f <_port_byte_out>
  1018a4:	90                   	nop
  1018a5:	83 c4 2c             	add    esp,0x2c
  1018a8:	c3                   	ret    

001018a9 <_idt_init>:
  1018a9:	83 ec 1c             	sub    esp,0x1c
  1018ac:	c7 44 24 08 00 08 00 	mov    DWORD PTR [esp+0x8],0x800
  1018b3:	00 
  1018b4:	c7 44 24 04 00 00 00 	mov    DWORD PTR [esp+0x4],0x0
  1018bb:	00 
  1018bc:	c7 04 24 a0 84 10 00 	mov    DWORD PTR [esp],0x1084a0
  1018c3:	e8 88 ee ff ff       	call   100750 <_memset>
  1018c8:	b8 a0 84 10 00       	mov    eax,0x1084a0
  1018cd:	a3 82 84 10 00       	mov    ds:0x108482,eax
  1018d2:	66 c7 05 80 84 10 00 	mov    WORD PTR ds:0x108480,0x7ff
  1018d9:	ff 07 
  1018db:	e8 ba fe ff ff       	call   10179a <_pic_init>
  1018e0:	b8 40 00 10 00       	mov    eax,0x100040
  1018e5:	c7 44 24 0c 8e 00 00 	mov    DWORD PTR [esp+0xc],0x8e
  1018ec:	00 
  1018ed:	c7 44 24 08 08 00 00 	mov    DWORD PTR [esp+0x8],0x8
  1018f4:	00 
  1018f5:	89 44 24 04          	mov    DWORD PTR [esp+0x4],eax
  1018f9:	c7 04 24 00 00 00 00 	mov    DWORD PTR [esp],0x0
  101900:	e8 28 fe ff ff       	call   10172d <_idt_set_entry>
  101905:	b8 4a 00 10 00       	mov    eax,0x10004a
  10190a:	c7 44 24 0c 8e 00 00 	mov    DWORD PTR [esp+0xc],0x8e
  101911:	00 
  101912:	c7 44 24 08 08 00 00 	mov    DWORD PTR [esp+0x8],0x8
  101919:	00 
  10191a:	89 44 24 04          	mov    DWORD PTR [esp+0x4],eax
  10191e:	c7 04 24 01 00 00 00 	mov    DWORD PTR [esp],0x1
  101925:	e8 03 fe ff ff       	call   10172d <_idt_set_entry>
  10192a:	b8 54 00 10 00       	mov    eax,0x100054
  10192f:	c7 44 24 0c 8e 00 00 	mov    DWORD PTR [esp+0xc],0x8e
  101936:	00 
  101937:	c7 44 24 08 08 00 00 	mov    DWORD PTR [esp+0x8],0x8
  10193e:	00 
  10193f:	89 44 24 04          	mov    DWORD PTR [esp+0x4],eax
  101943:	c7 04 24 02 00 00 00 	mov    DWORD PTR [esp],0x2
  10194a:	e8 de fd ff ff       	call   10172d <_idt_set_entry>
  10194f:	b8 5e 00 10 00       	mov    eax,0x10005e
  101954:	c7 44 24 0c 8e 00 00 	mov    DWORD PTR [esp+0xc],0x8e
  10195b:	00 
  10195c:	c7 44 24 08 08 00 00 	mov    DWORD PTR [esp+0x8],0x8
  101963:	00 
  101964:	89 44 24 04          	mov    DWORD PTR [esp+0x4],eax
  101968:	c7 04 24 03 00 00 00 	mov    DWORD PTR [esp],0x3
  10196f:	e8 b9 fd ff ff       	call   10172d <_idt_set_entry>
  101974:	b8 68 00 10 00       	mov    eax,0x100068
  101979:	c7 44 24 0c 8e 00 00 	mov    DWORD PTR [esp+0xc],0x8e
  101980:	00 
  101981:	c7 44 24 08 08 00 00 	mov    DWORD PTR [esp+0x8],0x8
  101988:	00 
  101989:	89 44 24 04          	mov    DWORD PTR [esp+0x4],eax
  10198d:	c7 04 24 04 00 00 00 	mov    DWORD PTR [esp],0x4
  101994:	e8 94 fd ff ff       	call   10172d <_idt_set_entry>
  101999:	b8 72 00 10 00       	mov    eax,0x100072
  10199e:	c7 44 24 0c 8e 00 00 	mov    DWORD PTR [esp+0xc],0x8e
  1019a5:	00 
  1019a6:	c7 44 24 08 08 00 00 	mov    DWORD PTR [esp+0x8],0x8
  1019ad:	00 
  1019ae:	89 44 24 04          	mov    DWORD PTR [esp+0x4],eax
  1019b2:	c7 04 24 05 00 00 00 	mov    DWORD PTR [esp],0x5
  1019b9:	e8 6f fd ff ff       	call   10172d <_idt_set_entry>
  1019be:	b8 7c 00 10 00       	mov    eax,0x10007c
  1019c3:	c7 44 24 0c 8e 00 00 	mov    DWORD PTR [esp+0xc],0x8e
  1019ca:	00 
  1019cb:	c7 44 24 08 08 00 00 	mov    DWORD PTR [esp+0x8],0x8
  1019d2:	00 
  1019d3:	89 44 24 04          	mov    DWORD PTR [esp+0x4],eax
  1019d7:	c7 04 24 06 00 00 00 	mov    DWORD PTR [esp],0x6
  1019de:	e8 4a fd ff ff       	call   10172d <_idt_set_entry>
  1019e3:	b8 86 00 10 00       	mov    eax,0x100086
  1019e8:	c7 44 24 0c 8e 00 00 	mov    DWORD PTR [esp+0xc],0x8e
  1019ef:	00 
  1019f0:	c7 44 24 08 08 00 00 	mov    DWORD PTR [esp+0x8],0x8
  1019f7:	00 
  1019f8:	89 44 24 04          	mov    DWORD PTR [esp+0x4],eax
  1019fc:	c7 04 24 07 00 00 00 	mov    DWORD PTR [esp],0x7
  101a03:	e8 25 fd ff ff       	call   10172d <_idt_set_entry>
  101a08:	b8 90 00 10 00       	mov    eax,0x100090
  101a0d:	c7 44 24 0c 8e 00 00 	mov    DWORD PTR [esp+0xc],0x8e
  101a14:	00 
  101a15:	c7 44 24 08 08 00 00 	mov    DWORD PTR [esp+0x8],0x8
  101a1c:	00 
  101a1d:	89 44 24 04          	mov    DWORD PTR [esp+0x4],eax
  101a21:	c7 04 24 08 00 00 00 	mov    DWORD PTR [esp],0x8
  101a28:	e8 00 fd ff ff       	call   10172d <_idt_set_entry>
  101a2d:	b8 98 00 10 00       	mov    eax,0x100098
  101a32:	c7 44 24 0c 8e 00 00 	mov    DWORD PTR [esp+0xc],0x8e
  101a39:	00 
  101a3a:	c7 44 24 08 08 00 00 	mov    DWORD PTR [esp+0x8],0x8
  101a41:	00 
  101a42:	89 44 24 04          	mov    DWORD PTR [esp+0x4],eax
  101a46:	c7 04 24 09 00 00 00 	mov    DWORD PTR [esp],0x9
  101a4d:	e8 db fc ff ff       	call   10172d <_idt_set_entry>
  101a52:	b8 a2 00 10 00       	mov    eax,0x1000a2
  101a57:	c7 44 24 0c 8e 00 00 	mov    DWORD PTR [esp+0xc],0x8e
  101a5e:	00 
  101a5f:	c7 44 24 08 08 00 00 	mov    DWORD PTR [esp+0x8],0x8
  101a66:	00 
  101a67:	89 44 24 04          	mov    DWORD PTR [esp+0x4],eax
  101a6b:	c7 04 24 0a 00 00 00 	mov    DWORD PTR [esp],0xa
  101a72:	e8 b6 fc ff ff       	call   10172d <_idt_set_entry>
  101a77:	b8 aa 00 10 00       	mov    eax,0x1000aa
  101a7c:	c7 44 24 0c 8e 00 00 	mov    DWORD PTR [esp+0xc],0x8e
  101a83:	00 
  101a84:	c7 44 24 08 08 00 00 	mov    DWORD PTR [esp+0x8],0x8
  101a8b:	00 
  101a8c:	89 44 24 04          	mov    DWORD PTR [esp+0x4],eax
  101a90:	c7 04 24 0b 00 00 00 	mov    DWORD PTR [esp],0xb
  101a97:	e8 91 fc ff ff       	call   10172d <_idt_set_entry>
  101a9c:	b8 b2 00 10 00       	mov    eax,0x1000b2
  101aa1:	c7 44 24 0c 8e 00 00 	mov    DWORD PTR [esp+0xc],0x8e
  101aa8:	00 
  101aa9:	c7 44 24 08 08 00 00 	mov    DWORD PTR [esp+0x8],0x8
  101ab0:	00 
  101ab1:	89 44 24 04          	mov    DWORD PTR [esp+0x4],eax
  101ab5:	c7 04 24 0c 00 00 00 	mov    DWORD PTR [esp],0xc
  101abc:	e8 6c fc ff ff       	call   10172d <_idt_set_entry>
  101ac1:	b8 ba 00 10 00       	mov    eax,0x1000ba
  101ac6:	c7 44 24 0c 8e 00 00 	mov    DWORD PTR [esp+0xc],0x8e
  101acd:	00 
  101ace:	c7 44 24 08 08 00 00 	mov    DWORD PTR [esp+0x8],0x8
  101ad5:	00 
  101ad6:	89 44 24 04          	mov    DWORD PTR [esp+0x4],eax
  101ada:	c7 04 24 0d 00 00 00 	mov    DWORD PTR [esp],0xd
  101ae1:	e8 47 fc ff ff       	call   10172d <_idt_set_entry>
  101ae6:	b8 c2 00 10 00       	mov    eax,0x1000c2
  101aeb:	c7 44 24 0c 8e 00 00 	mov    DWORD PTR [esp+0xc],0x8e
  101af2:	00 
  101af3:	c7 44 24 08 08 00 00 	mov    DWORD PTR [esp+0x8],0x8
  101afa:	00 
  101afb:	89 44 24 04          	mov    DWORD PTR [esp+0x4],eax
  101aff:	c7 04 24 0e 00 00 00 	mov    DWORD PTR [esp],0xe
  101b06:	e8 22 fc ff ff       	call   10172d <_idt_set_entry>
  101b0b:	b8 ca 00 10 00       	mov    eax,0x1000ca
  101b10:	c7 44 24 0c 8e 00 00 	mov    DWORD PTR [esp+0xc],0x8e
  101b17:	00 
  101b18:	c7 44 24 08 08 00 00 	mov    DWORD PTR [esp+0x8],0x8
  101b1f:	00 
  101b20:	89 44 24 04          	mov    DWORD PTR [esp+0x4],eax
  101b24:	c7 04 24 0f 00 00 00 	mov    DWORD PTR [esp],0xf
  101b2b:	e8 fd fb ff ff       	call   10172d <_idt_set_entry>
  101b30:	b8 d1 00 10 00       	mov    eax,0x1000d1
  101b35:	c7 44 24 0c 8e 00 00 	mov    DWORD PTR [esp+0xc],0x8e
  101b3c:	00 
  101b3d:	c7 44 24 08 08 00 00 	mov    DWORD PTR [esp+0x8],0x8
  101b44:	00 
  101b45:	89 44 24 04          	mov    DWORD PTR [esp+0x4],eax
  101b49:	c7 04 24 10 00 00 00 	mov    DWORD PTR [esp],0x10
  101b50:	e8 d8 fb ff ff       	call   10172d <_idt_set_entry>
  101b55:	b8 d8 00 10 00       	mov    eax,0x1000d8
  101b5a:	c7 44 24 0c 8e 00 00 	mov    DWORD PTR [esp+0xc],0x8e
  101b61:	00 
  101b62:	c7 44 24 08 08 00 00 	mov    DWORD PTR [esp+0x8],0x8
  101b69:	00 
  101b6a:	89 44 24 04          	mov    DWORD PTR [esp+0x4],eax
  101b6e:	c7 04 24 11 00 00 00 	mov    DWORD PTR [esp],0x11
  101b75:	e8 b3 fb ff ff       	call   10172d <_idt_set_entry>
  101b7a:	b8 df 00 10 00       	mov    eax,0x1000df
  101b7f:	c7 44 24 0c 8e 00 00 	mov    DWORD PTR [esp+0xc],0x8e
  101b86:	00 
  101b87:	c7 44 24 08 08 00 00 	mov    DWORD PTR [esp+0x8],0x8
  101b8e:	00 
  101b8f:	89 44 24 04          	mov    DWORD PTR [esp+0x4],eax
  101b93:	c7 04 24 12 00 00 00 	mov    DWORD PTR [esp],0x12
  101b9a:	e8 8e fb ff ff       	call   10172d <_idt_set_entry>
  101b9f:	b8 e6 00 10 00       	mov    eax,0x1000e6
  101ba4:	c7 44 24 0c 8e 00 00 	mov    DWORD PTR [esp+0xc],0x8e
  101bab:	00 
  101bac:	c7 44 24 08 08 00 00 	mov    DWORD PTR [esp+0x8],0x8
  101bb3:	00 
  101bb4:	89 44 24 04          	mov    DWORD PTR [esp+0x4],eax
  101bb8:	c7 04 24 13 00 00 00 	mov    DWORD PTR [esp],0x13
  101bbf:	e8 69 fb ff ff       	call   10172d <_idt_set_entry>
  101bc4:	b8 ed 00 10 00       	mov    eax,0x1000ed
  101bc9:	c7 44 24 0c 8e 00 00 	mov    DWORD PTR [esp+0xc],0x8e
  101bd0:	00 
  101bd1:	c7 44 24 08 08 00 00 	mov    DWORD PTR [esp+0x8],0x8
  101bd8:	00 
  101bd9:	89 44 24 04          	mov    DWORD PTR [esp+0x4],eax
  101bdd:	c7 04 24 14 00 00 00 	mov    DWORD PTR [esp],0x14
  101be4:	e8 44 fb ff ff       	call   10172d <_idt_set_entry>
  101be9:	b8 f4 00 10 00       	mov    eax,0x1000f4
  101bee:	c7 44 24 0c 8e 00 00 	mov    DWORD PTR [esp+0xc],0x8e
  101bf5:	00 
  101bf6:	c7 44 24 08 08 00 00 	mov    DWORD PTR [esp+0x8],0x8
  101bfd:	00 
  101bfe:	89 44 24 04          	mov    DWORD PTR [esp+0x4],eax
  101c02:	c7 04 24 15 00 00 00 	mov    DWORD PTR [esp],0x15
  101c09:	e8 1f fb ff ff       	call   10172d <_idt_set_entry>
  101c0e:	b8 fb 00 10 00       	mov    eax,0x1000fb
  101c13:	c7 44 24 0c 8e 00 00 	mov    DWORD PTR [esp+0xc],0x8e
  101c1a:	00 
  101c1b:	c7 44 24 08 08 00 00 	mov    DWORD PTR [esp+0x8],0x8
  101c22:	00 
  101c23:	89 44 24 04          	mov    DWORD PTR [esp+0x4],eax
  101c27:	c7 04 24 16 00 00 00 	mov    DWORD PTR [esp],0x16
  101c2e:	e8 fa fa ff ff       	call   10172d <_idt_set_entry>
  101c33:	b8 02 01 10 00       	mov    eax,0x100102
  101c38:	c7 44 24 0c 8e 00 00 	mov    DWORD PTR [esp+0xc],0x8e
  101c3f:	00 
  101c40:	c7 44 24 08 08 00 00 	mov    DWORD PTR [esp+0x8],0x8
  101c47:	00 
  101c48:	89 44 24 04          	mov    DWORD PTR [esp+0x4],eax
  101c4c:	c7 04 24 17 00 00 00 	mov    DWORD PTR [esp],0x17
  101c53:	e8 d5 fa ff ff       	call   10172d <_idt_set_entry>
  101c58:	b8 09 01 10 00       	mov    eax,0x100109
  101c5d:	c7 44 24 0c 8e 00 00 	mov    DWORD PTR [esp+0xc],0x8e
  101c64:	00 
  101c65:	c7 44 24 08 08 00 00 	mov    DWORD PTR [esp+0x8],0x8
  101c6c:	00 
  101c6d:	89 44 24 04          	mov    DWORD PTR [esp+0x4],eax
  101c71:	c7 04 24 18 00 00 00 	mov    DWORD PTR [esp],0x18
  101c78:	e8 b0 fa ff ff       	call   10172d <_idt_set_entry>
  101c7d:	b8 10 01 10 00       	mov    eax,0x100110
  101c82:	c7 44 24 0c 8e 00 00 	mov    DWORD PTR [esp+0xc],0x8e
  101c89:	00 
  101c8a:	c7 44 24 08 08 00 00 	mov    DWORD PTR [esp+0x8],0x8
  101c91:	00 
  101c92:	89 44 24 04          	mov    DWORD PTR [esp+0x4],eax
  101c96:	c7 04 24 19 00 00 00 	mov    DWORD PTR [esp],0x19
  101c9d:	e8 8b fa ff ff       	call   10172d <_idt_set_entry>
  101ca2:	b8 17 01 10 00       	mov    eax,0x100117
  101ca7:	c7 44 24 0c 8e 00 00 	mov    DWORD PTR [esp+0xc],0x8e
  101cae:	00 
  101caf:	c7 44 24 08 08 00 00 	mov    DWORD PTR [esp+0x8],0x8
  101cb6:	00 
  101cb7:	89 44 24 04          	mov    DWORD PTR [esp+0x4],eax
  101cbb:	c7 04 24 1a 00 00 00 	mov    DWORD PTR [esp],0x1a
  101cc2:	e8 66 fa ff ff       	call   10172d <_idt_set_entry>
  101cc7:	b8 1e 01 10 00       	mov    eax,0x10011e
  101ccc:	c7 44 24 0c 8e 00 00 	mov    DWORD PTR [esp+0xc],0x8e
  101cd3:	00 
  101cd4:	c7 44 24 08 08 00 00 	mov    DWORD PTR [esp+0x8],0x8
  101cdb:	00 
  101cdc:	89 44 24 04          	mov    DWORD PTR [esp+0x4],eax
  101ce0:	c7 04 24 1b 00 00 00 	mov    DWORD PTR [esp],0x1b
  101ce7:	e8 41 fa ff ff       	call   10172d <_idt_set_entry>
  101cec:	b8 25 01 10 00       	mov    eax,0x100125
  101cf1:	c7 44 24 0c 8e 00 00 	mov    DWORD PTR [esp+0xc],0x8e
  101cf8:	00 
  101cf9:	c7 44 24 08 08 00 00 	mov    DWORD PTR [esp+0x8],0x8
  101d00:	00 
  101d01:	89 44 24 04          	mov    DWORD PTR [esp+0x4],eax
  101d05:	c7 04 24 1c 00 00 00 	mov    DWORD PTR [esp],0x1c
  101d0c:	e8 1c fa ff ff       	call   10172d <_idt_set_entry>
  101d11:	b8 2c 01 10 00       	mov    eax,0x10012c
  101d16:	c7 44 24 0c 8e 00 00 	mov    DWORD PTR [esp+0xc],0x8e
  101d1d:	00 
  101d1e:	c7 44 24 08 08 00 00 	mov    DWORD PTR [esp+0x8],0x8
  101d25:	00 
  101d26:	89 44 24 04          	mov    DWORD PTR [esp+0x4],eax
  101d2a:	c7 04 24 1d 00 00 00 	mov    DWORD PTR [esp],0x1d
  101d31:	e8 f7 f9 ff ff       	call   10172d <_idt_set_entry>
  101d36:	b8 33 01 10 00       	mov    eax,0x100133
  101d3b:	c7 44 24 0c 8e 00 00 	mov    DWORD PTR [esp+0xc],0x8e
  101d42:	00 
  101d43:	c7 44 24 08 08 00 00 	mov    DWORD PTR [esp+0x8],0x8
  101d4a:	00 
  101d4b:	89 44 24 04          	mov    DWORD PTR [esp+0x4],eax
  101d4f:	c7 04 24 1e 00 00 00 	mov    DWORD PTR [esp],0x1e
  101d56:	e8 d2 f9 ff ff       	call   10172d <_idt_set_entry>
  101d5b:	b8 3a 01 10 00       	mov    eax,0x10013a
  101d60:	c7 44 24 0c 8e 00 00 	mov    DWORD PTR [esp+0xc],0x8e
  101d67:	00 
  101d68:	c7 44 24 08 08 00 00 	mov    DWORD PTR [esp+0x8],0x8
  101d6f:	00 
  101d70:	89 44 24 04          	mov    DWORD PTR [esp+0x4],eax
  101d74:	c7 04 24 1f 00 00 00 	mov    DWORD PTR [esp],0x1f
  101d7b:	e8 ad f9 ff ff       	call   10172d <_idt_set_entry>
  101d80:	b8 70 01 10 00       	mov    eax,0x100170
  101d85:	c7 44 24 0c 8e 00 00 	mov    DWORD PTR [esp+0xc],0x8e
  101d8c:	00 
  101d8d:	c7 44 24 08 08 00 00 	mov    DWORD PTR [esp+0x8],0x8
  101d94:	00 
  101d95:	89 44 24 04          	mov    DWORD PTR [esp+0x4],eax
  101d99:	c7 04 24 20 00 00 00 	mov    DWORD PTR [esp],0x20
  101da0:	e8 88 f9 ff ff       	call   10172d <_idt_set_entry>
  101da5:	b8 77 01 10 00       	mov    eax,0x100177
  101daa:	c7 44 24 0c 8e 00 00 	mov    DWORD PTR [esp+0xc],0x8e
  101db1:	00 
  101db2:	c7 44 24 08 08 00 00 	mov    DWORD PTR [esp+0x8],0x8
  101db9:	00 
  101dba:	89 44 24 04          	mov    DWORD PTR [esp+0x4],eax
  101dbe:	c7 04 24 21 00 00 00 	mov    DWORD PTR [esp],0x21
  101dc5:	e8 63 f9 ff ff       	call   10172d <_idt_set_entry>
  101dca:	b8 7e 01 10 00       	mov    eax,0x10017e
  101dcf:	c7 44 24 0c 8e 00 00 	mov    DWORD PTR [esp+0xc],0x8e
  101dd6:	00 
  101dd7:	c7 44 24 08 08 00 00 	mov    DWORD PTR [esp+0x8],0x8
  101dde:	00 
  101ddf:	89 44 24 04          	mov    DWORD PTR [esp+0x4],eax
  101de3:	c7 04 24 22 00 00 00 	mov    DWORD PTR [esp],0x22
  101dea:	e8 3e f9 ff ff       	call   10172d <_idt_set_entry>
  101def:	b8 85 01 10 00       	mov    eax,0x100185
  101df4:	c7 44 24 0c 8e 00 00 	mov    DWORD PTR [esp+0xc],0x8e
  101dfb:	00 
  101dfc:	c7 44 24 08 08 00 00 	mov    DWORD PTR [esp+0x8],0x8
  101e03:	00 
  101e04:	89 44 24 04          	mov    DWORD PTR [esp+0x4],eax
  101e08:	c7 04 24 23 00 00 00 	mov    DWORD PTR [esp],0x23
  101e0f:	e8 19 f9 ff ff       	call   10172d <_idt_set_entry>
  101e14:	b8 8c 01 10 00       	mov    eax,0x10018c
  101e19:	c7 44 24 0c 8e 00 00 	mov    DWORD PTR [esp+0xc],0x8e
  101e20:	00 
  101e21:	c7 44 24 08 08 00 00 	mov    DWORD PTR [esp+0x8],0x8
  101e28:	00 
  101e29:	89 44 24 04          	mov    DWORD PTR [esp+0x4],eax
  101e2d:	c7 04 24 24 00 00 00 	mov    DWORD PTR [esp],0x24
  101e34:	e8 f4 f8 ff ff       	call   10172d <_idt_set_entry>
  101e39:	b8 93 01 10 00       	mov    eax,0x100193
  101e3e:	c7 44 24 0c 8e 00 00 	mov    DWORD PTR [esp+0xc],0x8e
  101e45:	00 
  101e46:	c7 44 24 08 08 00 00 	mov    DWORD PTR [esp+0x8],0x8
  101e4d:	00 
  101e4e:	89 44 24 04          	mov    DWORD PTR [esp+0x4],eax
  101e52:	c7 04 24 25 00 00 00 	mov    DWORD PTR [esp],0x25
  101e59:	e8 cf f8 ff ff       	call   10172d <_idt_set_entry>
  101e5e:	b8 9a 01 10 00       	mov    eax,0x10019a
  101e63:	c7 44 24 0c 8e 00 00 	mov    DWORD PTR [esp+0xc],0x8e
  101e6a:	00 
  101e6b:	c7 44 24 08 08 00 00 	mov    DWORD PTR [esp+0x8],0x8
  101e72:	00 
  101e73:	89 44 24 04          	mov    DWORD PTR [esp+0x4],eax
  101e77:	c7 04 24 26 00 00 00 	mov    DWORD PTR [esp],0x26
  101e7e:	e8 aa f8 ff ff       	call   10172d <_idt_set_entry>
  101e83:	b8 a1 01 10 00       	mov    eax,0x1001a1
  101e88:	c7 44 24 0c 8e 00 00 	mov    DWORD PTR [esp+0xc],0x8e
  101e8f:	00 
  101e90:	c7 44 24 08 08 00 00 	mov    DWORD PTR [esp+0x8],0x8
  101e97:	00 
  101e98:	89 44 24 04          	mov    DWORD PTR [esp+0x4],eax
  101e9c:	c7 04 24 27 00 00 00 	mov    DWORD PTR [esp],0x27
  101ea3:	e8 85 f8 ff ff       	call   10172d <_idt_set_entry>
  101ea8:	b8 a8 01 10 00       	mov    eax,0x1001a8
  101ead:	c7 44 24 0c 8e 00 00 	mov    DWORD PTR [esp+0xc],0x8e
  101eb4:	00 
  101eb5:	c7 44 24 08 08 00 00 	mov    DWORD PTR [esp+0x8],0x8
  101ebc:	00 
  101ebd:	89 44 24 04          	mov    DWORD PTR [esp+0x4],eax
  101ec1:	c7 04 24 28 00 00 00 	mov    DWORD PTR [esp],0x28
  101ec8:	e8 60 f8 ff ff       	call   10172d <_idt_set_entry>
  101ecd:	b8 af 01 10 00       	mov    eax,0x1001af
  101ed2:	c7 44 24 0c 8e 00 00 	mov    DWORD PTR [esp+0xc],0x8e
  101ed9:	00 
  101eda:	c7 44 24 08 08 00 00 	mov    DWORD PTR [esp+0x8],0x8
  101ee1:	00 
  101ee2:	89 44 24 04          	mov    DWORD PTR [esp+0x4],eax
  101ee6:	c7 04 24 29 00 00 00 	mov    DWORD PTR [esp],0x29
  101eed:	e8 3b f8 ff ff       	call   10172d <_idt_set_entry>
  101ef2:	b8 b6 01 10 00       	mov    eax,0x1001b6
  101ef7:	c7 44 24 0c 8e 00 00 	mov    DWORD PTR [esp+0xc],0x8e
  101efe:	00 
  101eff:	c7 44 24 08 08 00 00 	mov    DWORD PTR [esp+0x8],0x8
  101f06:	00 
  101f07:	89 44 24 04          	mov    DWORD PTR [esp+0x4],eax
  101f0b:	c7 04 24 2a 00 00 00 	mov    DWORD PTR [esp],0x2a
  101f12:	e8 16 f8 ff ff       	call   10172d <_idt_set_entry>
  101f17:	b8 bd 01 10 00       	mov    eax,0x1001bd
  101f1c:	c7 44 24 0c 8e 00 00 	mov    DWORD PTR [esp+0xc],0x8e
  101f23:	00 
  101f24:	c7 44 24 08 08 00 00 	mov    DWORD PTR [esp+0x8],0x8
  101f2b:	00 
  101f2c:	89 44 24 04          	mov    DWORD PTR [esp+0x4],eax
  101f30:	c7 04 24 2b 00 00 00 	mov    DWORD PTR [esp],0x2b
  101f37:	e8 f1 f7 ff ff       	call   10172d <_idt_set_entry>
  101f3c:	b8 c4 01 10 00       	mov    eax,0x1001c4
  101f41:	c7 44 24 0c 8e 00 00 	mov    DWORD PTR [esp+0xc],0x8e
  101f48:	00 
  101f49:	c7 44 24 08 08 00 00 	mov    DWORD PTR [esp+0x8],0x8
  101f50:	00 
  101f51:	89 44 24 04          	mov    DWORD PTR [esp+0x4],eax
  101f55:	c7 04 24 2c 00 00 00 	mov    DWORD PTR [esp],0x2c
  101f5c:	e8 cc f7 ff ff       	call   10172d <_idt_set_entry>
  101f61:	b8 cb 01 10 00       	mov    eax,0x1001cb
  101f66:	c7 44 24 0c 8e 00 00 	mov    DWORD PTR [esp+0xc],0x8e
  101f6d:	00 
  101f6e:	c7 44 24 08 08 00 00 	mov    DWORD PTR [esp+0x8],0x8
  101f75:	00 
  101f76:	89 44 24 04          	mov    DWORD PTR [esp+0x4],eax
  101f7a:	c7 04 24 2d 00 00 00 	mov    DWORD PTR [esp],0x2d
  101f81:	e8 a7 f7 ff ff       	call   10172d <_idt_set_entry>
  101f86:	b8 d2 01 10 00       	mov    eax,0x1001d2
  101f8b:	c7 44 24 0c 8e 00 00 	mov    DWORD PTR [esp+0xc],0x8e
  101f92:	00 
  101f93:	c7 44 24 08 08 00 00 	mov    DWORD PTR [esp+0x8],0x8
  101f9a:	00 
  101f9b:	89 44 24 04          	mov    DWORD PTR [esp+0x4],eax
  101f9f:	c7 04 24 2e 00 00 00 	mov    DWORD PTR [esp],0x2e
  101fa6:	e8 82 f7 ff ff       	call   10172d <_idt_set_entry>
  101fab:	b8 d9 01 10 00       	mov    eax,0x1001d9
  101fb0:	c7 44 24 0c 8e 00 00 	mov    DWORD PTR [esp+0xc],0x8e
  101fb7:	00 
  101fb8:	c7 44 24 08 08 00 00 	mov    DWORD PTR [esp+0x8],0x8
  101fbf:	00 
  101fc0:	89 44 24 04          	mov    DWORD PTR [esp+0x4],eax
  101fc4:	c7 04 24 2f 00 00 00 	mov    DWORD PTR [esp],0x2f
  101fcb:	e8 5d f7 ff ff       	call   10172d <_idt_set_entry>
  101fd0:	b8 41 01 10 00       	mov    eax,0x100141
  101fd5:	c7 44 24 0c 8e 00 00 	mov    DWORD PTR [esp+0xc],0x8e
  101fdc:	00 
  101fdd:	c7 44 24 08 08 00 00 	mov    DWORD PTR [esp+0x8],0x8
  101fe4:	00 
  101fe5:	89 44 24 04          	mov    DWORD PTR [esp+0x4],eax
  101fe9:	c7 04 24 80 00 00 00 	mov    DWORD PTR [esp],0x80
  101ff0:	e8 38 f7 ff ff       	call   10172d <_idt_set_entry>
  101ff5:	0f 01 1d 80 84 10 00 	lidtd  ds:0x108480
  101ffc:	fb                   	sti    
  101ffd:	90                   	nop
  101ffe:	83 c4 1c             	add    esp,0x1c
  102001:	c3                   	ret    

00102002 <_final_exception_handler>:
  102002:	83 ec 2c             	sub    esp,0x2c
  102005:	8b 44 24 54          	mov    eax,DWORD PTR [esp+0x54]
  102009:	83 f8 1f             	cmp    eax,0x1f
  10200c:	77 25                	ja     102033 <_final_exception_handler+0x31>
  10200e:	8b 54 24 58          	mov    edx,DWORD PTR [esp+0x58]
  102012:	8b 44 24 54          	mov    eax,DWORD PTR [esp+0x54]
  102016:	8b 04 85 00 40 10 00 	mov    eax,DWORD PTR [eax*4+0x104000]
  10201d:	89 54 24 08          	mov    DWORD PTR [esp+0x8],edx
  102021:	89 44 24 04          	mov    DWORD PTR [esp+0x4],eax
  102025:	c7 04 24 9c 33 10 00 	mov    DWORD PTR [esp],0x10339c
  10202c:	e8 c5 f4 ff ff       	call   1014f6 <_kprintf>
  102031:	eb fe                	jmp    102031 <_final_exception_handler+0x2f>
  102033:	8b 44 24 54          	mov    eax,DWORD PTR [esp+0x54]
  102037:	8b 04 85 80 80 10 00 	mov    eax,DWORD PTR [eax*4+0x108080]
  10203e:	85 c0                	test   eax,eax
  102040:	74 1c                	je     10205e <_final_exception_handler+0x5c>
  102042:	8b 44 24 54          	mov    eax,DWORD PTR [esp+0x54]
  102046:	8b 04 85 80 80 10 00 	mov    eax,DWORD PTR [eax*4+0x108080]
  10204d:	89 44 24 1c          	mov    DWORD PTR [esp+0x1c],eax
  102051:	8d 44 24 30          	lea    eax,[esp+0x30]
  102055:	89 04 24             	mov    DWORD PTR [esp],eax
  102058:	8b 44 24 1c          	mov    eax,DWORD PTR [esp+0x1c]
  10205c:	ff d0                	call   eax
  10205e:	90                   	nop
  10205f:	83 c4 2c             	add    esp,0x2c
  102062:	c3                   	ret    

00102063 <_final_irq_handler>:
  102063:	83 ec 2c             	sub    esp,0x2c
  102066:	8b 44 24 30          	mov    eax,DWORD PTR [esp+0x30]
  10206a:	8b 40 24             	mov    eax,DWORD PTR [eax+0x24]
  10206d:	8b 04 85 80 80 10 00 	mov    eax,DWORD PTR [eax*4+0x108080]
  102074:	85 c0                	test   eax,eax
  102076:	74 1f                	je     102097 <_final_irq_handler+0x34>
  102078:	8b 44 24 30          	mov    eax,DWORD PTR [esp+0x30]
  10207c:	8b 40 24             	mov    eax,DWORD PTR [eax+0x24]
  10207f:	8b 04 85 80 80 10 00 	mov    eax,DWORD PTR [eax*4+0x108080]
  102086:	89 44 24 1c          	mov    DWORD PTR [esp+0x1c],eax
  10208a:	8b 44 24 30          	mov    eax,DWORD PTR [esp+0x30]
  10208e:	89 04 24             	mov    DWORD PTR [esp],eax
  102091:	8b 44 24 1c          	mov    eax,DWORD PTR [esp+0x1c]
  102095:	ff d0                	call   eax
  102097:	8b 44 24 30          	mov    eax,DWORD PTR [esp+0x30]
  10209b:	8b 40 24             	mov    eax,DWORD PTR [eax+0x24]
  10209e:	0f b6 c0             	movzx  eax,al
  1020a1:	89 04 24             	mov    DWORD PTR [esp],eax
  1020a4:	e8 c1 f7 ff ff       	call   10186a <_irq_ack>
  1020a9:	90                   	nop
  1020aa:	83 c4 2c             	add    esp,0x2c
  1020ad:	c3                   	ret    
  1020ae:	90                   	nop
  1020af:	90                   	nop

001020b0 <_tss_init>:
  1020b0:	83 ec 3c             	sub    esp,0x3c
  1020b3:	c7 44 24 2c a0 8c 10 	mov    DWORD PTR [esp+0x2c],0x108ca0
  1020ba:	00 
  1020bb:	8b 44 24 2c          	mov    eax,DWORD PTR [esp+0x2c]
  1020bf:	8d 50 68             	lea    edx,[eax+0x68]
  1020c2:	8b 44 24 40          	mov    eax,DWORD PTR [esp+0x40]
  1020c6:	c7 44 24 10 00 00 00 	mov    DWORD PTR [esp+0x10],0x0
  1020cd:	00 
  1020ce:	c7 44 24 0c e9 00 00 	mov    DWORD PTR [esp+0xc],0xe9
  1020d5:	00 
  1020d6:	89 54 24 08          	mov    DWORD PTR [esp+0x8],edx
  1020da:	8b 54 24 2c          	mov    edx,DWORD PTR [esp+0x2c]
  1020de:	89 54 24 04          	mov    DWORD PTR [esp+0x4],edx
  1020e2:	89 04 24             	mov    DWORD PTR [esp],eax
  1020e5:	e8 5e f4 ff ff       	call   101548 <_gdt_set_entry>
  1020ea:	c7 44 24 08 68 00 00 	mov    DWORD PTR [esp+0x8],0x68
  1020f1:	00 
  1020f2:	c7 44 24 04 00 00 00 	mov    DWORD PTR [esp+0x4],0x0
  1020f9:	00 
  1020fa:	c7 04 24 a0 8c 10 00 	mov    DWORD PTR [esp],0x108ca0
  102101:	e8 4a e6 ff ff       	call   100750 <_memset>
  102106:	8b 44 24 44          	mov    eax,DWORD PTR [esp+0x44]
  10210a:	a3 a8 8c 10 00       	mov    ds:0x108ca8,eax
  10210f:	8b 44 24 48          	mov    eax,DWORD PTR [esp+0x48]
  102113:	a3 a4 8c 10 00       	mov    ds:0x108ca4,eax
  102118:	c7 05 ec 8c 10 00 0b 	mov    DWORD PTR ds:0x108cec,0xb
  10211f:	00 00 00 
  102122:	c7 05 f4 8c 10 00 13 	mov    DWORD PTR ds:0x108cf4,0x13
  102129:	00 00 00 
  10212c:	c7 05 e8 8c 10 00 13 	mov    DWORD PTR ds:0x108ce8,0x13
  102133:	00 00 00 
  102136:	c7 05 f8 8c 10 00 13 	mov    DWORD PTR ds:0x108cf8,0x13
  10213d:	00 00 00 
  102140:	c7 05 fc 8c 10 00 13 	mov    DWORD PTR ds:0x108cfc,0x13
  102147:	00 00 00 
  10214a:	c7 05 f0 8c 10 00 13 	mov    DWORD PTR ds:0x108cf0,0x13
  102151:	00 00 00 
  102154:	66 b8 28 00          	mov    ax,0x28
  102158:	0f 00 d8             	ltr    ax
  10215b:	90                   	nop
  10215c:	83 c4 3c             	add    esp,0x3c
  10215f:	c3                   	ret    

00102160 <_tss_set_stack>:
  102160:	8b 44 24 04          	mov    eax,DWORD PTR [esp+0x4]
  102164:	a3 a8 8c 10 00       	mov    ds:0x108ca8,eax
  102169:	8b 44 24 08          	mov    eax,DWORD PTR [esp+0x8]
  10216d:	a3 a4 8c 10 00       	mov    ds:0x108ca4,eax
  102172:	90                   	nop
  102173:	c3                   	ret    

00102174 <___cpuid>:
  102174:	55                   	push   ebp
  102175:	57                   	push   edi
  102176:	56                   	push   esi
  102177:	53                   	push   ebx
  102178:	83 ec 04             	sub    esp,0x4
  10217b:	8b 44 24 18          	mov    eax,DWORD PTR [esp+0x18]
  10217f:	83 c0 04             	add    eax,0x4
  102182:	89 04 24             	mov    DWORD PTR [esp],eax
  102185:	8b 44 24 18          	mov    eax,DWORD PTR [esp+0x18]
  102189:	8d 68 08             	lea    ebp,[eax+0x8]
  10218c:	8b 44 24 18          	mov    eax,DWORD PTR [esp+0x18]
  102190:	8d 78 0c             	lea    edi,[eax+0xc]
  102193:	8b 44 24 1c          	mov    eax,DWORD PTR [esp+0x1c]
  102197:	0f a2                	cpuid  
  102199:	89 c6                	mov    esi,eax
  10219b:	8b 44 24 18          	mov    eax,DWORD PTR [esp+0x18]
  10219f:	89 30                	mov    DWORD PTR [eax],esi
  1021a1:	8b 04 24             	mov    eax,DWORD PTR [esp]
  1021a4:	89 18                	mov    DWORD PTR [eax],ebx
  1021a6:	89 4d 00             	mov    DWORD PTR [ebp+0x0],ecx
  1021a9:	89 17                	mov    DWORD PTR [edi],edx
  1021ab:	90                   	nop
  1021ac:	83 c4 04             	add    esp,0x4
  1021af:	5b                   	pop    ebx
  1021b0:	5e                   	pop    esi
  1021b1:	5f                   	pop    edi
  1021b2:	5d                   	pop    ebp
  1021b3:	c3                   	ret    

001021b4 <___cpuidex>:
  1021b4:	55                   	push   ebp
  1021b5:	57                   	push   edi
  1021b6:	56                   	push   esi
  1021b7:	53                   	push   ebx
  1021b8:	83 ec 04             	sub    esp,0x4
  1021bb:	8b 44 24 18          	mov    eax,DWORD PTR [esp+0x18]
  1021bf:	83 c0 04             	add    eax,0x4
  1021c2:	89 04 24             	mov    DWORD PTR [esp],eax
  1021c5:	8b 44 24 18          	mov    eax,DWORD PTR [esp+0x18]
  1021c9:	8d 68 08             	lea    ebp,[eax+0x8]
  1021cc:	8b 44 24 18          	mov    eax,DWORD PTR [esp+0x18]
  1021d0:	8d 78 0c             	lea    edi,[eax+0xc]
  1021d3:	8b 44 24 1c          	mov    eax,DWORD PTR [esp+0x1c]
  1021d7:	8b 54 24 20          	mov    edx,DWORD PTR [esp+0x20]
  1021db:	89 d1                	mov    ecx,edx
  1021dd:	0f a2                	cpuid  
  1021df:	89 c6                	mov    esi,eax
  1021e1:	8b 44 24 18          	mov    eax,DWORD PTR [esp+0x18]
  1021e5:	89 30                	mov    DWORD PTR [eax],esi
  1021e7:	8b 04 24             	mov    eax,DWORD PTR [esp]
  1021ea:	89 18                	mov    DWORD PTR [eax],ebx
  1021ec:	89 4d 00             	mov    DWORD PTR [ebp+0x0],ecx
  1021ef:	89 17                	mov    DWORD PTR [edi],edx
  1021f1:	90                   	nop
  1021f2:	83 c4 04             	add    esp,0x4
  1021f5:	5b                   	pop    ebx
  1021f6:	5e                   	pop    esi
  1021f7:	5f                   	pop    edi
  1021f8:	5d                   	pop    ebp
  1021f9:	c3                   	ret    

001021fa <_detectCPU>:
  1021fa:	83 ec 3c             	sub    esp,0x3c
  1021fd:	c7 44 24 18 00 00 00 	mov    DWORD PTR [esp+0x18],0x0
  102204:	00 
  102205:	c7 44 24 1c 00 00 00 	mov    DWORD PTR [esp+0x1c],0x0
  10220c:	00 
  10220d:	c7 44 24 20 00 00 00 	mov    DWORD PTR [esp+0x20],0x0
  102214:	00 
  102215:	c7 44 24 24 00 00 00 	mov    DWORD PTR [esp+0x24],0x0
  10221c:	00 
  10221d:	c7 44 24 18 ff ff ff 	mov    DWORD PTR [esp+0x18],0xffffffff
  102224:	ff 
  102225:	c7 44 24 04 00 00 00 	mov    DWORD PTR [esp+0x4],0x0
  10222c:	00 
  10222d:	8d 44 24 18          	lea    eax,[esp+0x18]
  102231:	89 04 24             	mov    DWORD PTR [esp],eax
  102234:	e8 3b ff ff ff       	call   102174 <___cpuid>
  102239:	8b 44 24 18          	mov    eax,DWORD PTR [esp+0x18]
  10223d:	89 44 24 2c          	mov    DWORD PTR [esp+0x2c],eax
  102241:	83 7c 24 2c 00       	cmp    DWORD PTR [esp+0x2c],0x0
  102246:	75 0c                	jne    102254 <_detectCPU+0x5a>
  102248:	c7 04 24 bc 33 10 00 	mov    DWORD PTR [esp],0x1033bc
  10224f:	e8 a2 f2 ff ff       	call   1014f6 <_kprintf>
  102254:	83 7c 24 2c 00       	cmp    DWORD PTR [esp+0x2c],0x0
  102259:	74 67                	je     1022c2 <_detectCPU+0xc8>
  10225b:	c7 44 24 04 01 00 00 	mov    DWORD PTR [esp+0x4],0x1
  102262:	00 
  102263:	8d 44 24 18          	lea    eax,[esp+0x18]
  102267:	89 04 24             	mov    DWORD PTR [esp],eax
  10226a:	e8 05 ff ff ff       	call   102174 <___cpuid>
  10226f:	8b 44 24 18          	mov    eax,DWORD PTR [esp+0x18]
  102273:	c1 f8 08             	sar    eax,0x8
  102276:	83 e0 0f             	and    eax,0xf
  102279:	89 44 24 28          	mov    DWORD PTR [esp+0x28],eax
  10227d:	83 7c 24 28 04       	cmp    DWORD PTR [esp+0x28],0x4
  102282:	7f 16                	jg     10229a <_detectCPU+0xa0>
  102284:	8b 44 24 28          	mov    eax,DWORD PTR [esp+0x28]
  102288:	89 44 24 04          	mov    DWORD PTR [esp+0x4],eax
  10228c:	c7 04 24 0c 34 10 00 	mov    DWORD PTR [esp],0x10340c
  102293:	e8 5e f2 ff ff       	call   1014f6 <_kprintf>
  102298:	eb 14                	jmp    1022ae <_detectCPU+0xb4>
  10229a:	8b 44 24 28          	mov    eax,DWORD PTR [esp+0x28]
  10229e:	89 44 24 04          	mov    DWORD PTR [esp+0x4],eax
  1022a2:	c7 04 24 34 34 10 00 	mov    DWORD PTR [esp],0x103434
  1022a9:	e8 48 f2 ff ff       	call   1014f6 <_kprintf>
  1022ae:	8b 44 24 28          	mov    eax,DWORD PTR [esp+0x28]
  1022b2:	89 44 24 04          	mov    DWORD PTR [esp+0x4],eax
  1022b6:	c7 04 24 60 34 10 00 	mov    DWORD PTR [esp],0x103460
  1022bd:	e8 34 f2 ff ff       	call   1014f6 <_kprintf>
  1022c2:	90                   	nop
  1022c3:	83 c4 3c             	add    esp,0x3c
  1022c6:	c3                   	ret    

001022c7 <_detectHardware>:
  1022c7:	83 ec 0c             	sub    esp,0xc
  1022ca:	e8 2b ff ff ff       	call   1021fa <_detectCPU>
  1022cf:	90                   	nop
  1022d0:	83 c4 0c             	add    esp,0xc
  1022d3:	c3                   	ret    

001022d4 <_pmm_init>:
  1022d4:	83 ec 1c             	sub    esp,0x1c
  1022d7:	8b 44 24 20          	mov    eax,DWORD PTR [esp+0x20]
  1022db:	c1 e8 0c             	shr    eax,0xc
  1022de:	a3 08 8d 10 00       	mov    ds:0x108d08,eax
  1022e3:	a1 08 8d 10 00       	mov    eax,ds:0x108d08
  1022e8:	c1 e8 03             	shr    eax,0x3
  1022eb:	a3 0c 8d 10 00       	mov    ds:0x108d0c,eax
  1022f0:	a1 0c 8d 10 00       	mov    eax,ds:0x108d0c
  1022f5:	8d 14 c5 00 00 00 00 	lea    edx,[eax*8+0x0]
  1022fc:	a1 08 8d 10 00       	mov    eax,ds:0x108d08
  102301:	39 c2                	cmp    edx,eax
  102303:	73 0d                	jae    102312 <_pmm_init+0x3e>
  102305:	a1 0c 8d 10 00       	mov    eax,ds:0x108d0c
  10230a:	83 c0 01             	add    eax,0x1
  10230d:	a3 0c 8d 10 00       	mov    ds:0x108d0c,eax
  102312:	a1 0c 8d 10 00       	mov    eax,ds:0x108d0c
  102317:	89 c2                	mov    edx,eax
  102319:	a1 80 40 10 00       	mov    eax,ds:0x104080
  10231e:	89 54 24 08          	mov    DWORD PTR [esp+0x8],edx
  102322:	c7 44 24 04 00 00 00 	mov    DWORD PTR [esp+0x4],0x0
  102329:	00 
  10232a:	89 04 24             	mov    DWORD PTR [esp],eax
  10232d:	e8 1e e4 ff ff       	call   100750 <_memset>
  102332:	8b 15 80 40 10 00    	mov    edx,DWORD PTR ds:0x104080
  102338:	a1 0c 8d 10 00       	mov    eax,ds:0x108d0c
  10233d:	01 d0                	add    eax,edx
  10233f:	25 00 f0 ff ff       	and    eax,0xfffff000
  102344:	05 00 10 00 00       	add    eax,0x1000
  102349:	a3 10 8d 10 00       	mov    ds:0x108d10,eax
  10234e:	8b 44 24 20          	mov    eax,DWORD PTR [esp+0x20]
  102352:	c1 e8 14             	shr    eax,0x14
  102355:	89 44 24 04          	mov    DWORD PTR [esp+0x4],eax
  102359:	c7 04 24 98 34 10 00 	mov    DWORD PTR [esp],0x103498
  102360:	e8 91 f1 ff ff       	call   1014f6 <_kprintf>
  102365:	a1 08 8d 10 00       	mov    eax,ds:0x108d08
  10236a:	89 44 24 04          	mov    DWORD PTR [esp+0x4],eax
  10236e:	c7 04 24 ad 34 10 00 	mov    DWORD PTR [esp],0x1034ad
  102375:	e8 7c f1 ff ff       	call   1014f6 <_kprintf>
  10237a:	a1 80 40 10 00       	mov    eax,ds:0x104080
  10237f:	89 44 24 04          	mov    DWORD PTR [esp+0x4],eax
  102383:	c7 04 24 bf 34 10 00 	mov    DWORD PTR [esp],0x1034bf
  10238a:	e8 67 f1 ff ff       	call   1014f6 <_kprintf>
  10238f:	a1 0c 8d 10 00       	mov    eax,ds:0x108d0c
  102394:	89 44 24 04          	mov    DWORD PTR [esp+0x4],eax
  102398:	c7 04 24 d3 34 10 00 	mov    DWORD PTR [esp],0x1034d3
  10239f:	e8 52 f1 ff ff       	call   1014f6 <_kprintf>
  1023a4:	a1 10 8d 10 00       	mov    eax,ds:0x108d10
  1023a9:	89 44 24 04          	mov    DWORD PTR [esp+0x4],eax
  1023ad:	c7 04 24 e5 34 10 00 	mov    DWORD PTR [esp],0x1034e5
  1023b4:	e8 3d f1 ff ff       	call   1014f6 <_kprintf>
  1023b9:	90                   	nop
  1023ba:	83 c4 1c             	add    esp,0x1c
  1023bd:	c3                   	ret    
  1023be:	90                   	nop
  1023bf:	90                   	nop

Disassembly of section .rdata:

00103000 <.rdata>:
  103000:	30 2e                	xor    BYTE PTR [esi],ch
  103002:	30 31                	xor    BYTE PTR [ecx],dh
  103004:	20 41 6c             	and    BYTE PTR [ecx+0x6c],al
  103007:	70 68                	jo     103071 <.rdata+0x71>
  103009:	61                   	popa   
  10300a:	00 57 65             	add    BYTE PTR [edi+0x65],dl
  10300d:	6c                   	ins    BYTE PTR es:[edi],dx
  10300e:	63 6f 6d             	arpl   WORD PTR [edi+0x6d],bp
  103011:	65 20 74 6f 20       	and    BYTE PTR gs:[edi+ebp*2+0x20],dh
  103016:	4a                   	dec    edx
  103017:	61                   	popa   
  103018:	72 76                	jb     103090 <.rdata+0x90>
  10301a:	69 73 20 4f 53 20 76 	imul   esi,DWORD PTR [ebx+0x20],0x7620534f
  103021:	25 73 0a 00 41       	and    eax,0x41000a73
  103026:	20 33                	and    BYTE PTR [ebx],dh
  103028:	32 20                	xor    ah,BYTE PTR [eax]
  10302a:	62 69 74             	bound  ebp,QWORD PTR [ecx+0x74]
  10302d:	20 70 72             	and    BYTE PTR [eax+0x72],dh
  103030:	6f                   	outs   dx,DWORD PTR ds:[esi]
  103031:	74 65                	je     103098 <.rdata+0x98>
  103033:	63 74 65 64          	arpl   WORD PTR [ebp+eiz*2+0x64],si
  103037:	20 6d 6f             	and    BYTE PTR [ebp+0x6f],ch
  10303a:	64 65 20 4f 53       	fs and BYTE PTR gs:[edi+0x53],cl
  10303f:	0a 00                	or     al,BYTE PTR [eax]
  103041:	00 00                	add    BYTE PTR [eax],al
  103043:	00 47 44             	add    BYTE PTR [edi+0x44],al
  103046:	54                   	push   esp
  103047:	2c 20                	sub    al,0x20
  103049:	49                   	dec    ecx
  10304a:	44                   	inc    esp
  10304b:	54                   	push   esp
  10304c:	2c 20                	sub    al,0x20
  10304e:	61                   	popa   
  10304f:	6e                   	outs   dx,BYTE PTR ds:[esi]
  103050:	64 20 54 53 53       	and    BYTE PTR fs:[ebx+edx*2+0x53],dl
  103055:	20 69 6e             	and    BYTE PTR [ecx+0x6e],ch
  103058:	69 74 69 61 6c 69 7a 	imul   esi,DWORD PTR [ecx+ebp*2+0x61],0x657a696c
  10305f:	65 
  103060:	64 0a 00             	or     al,BYTE PTR fs:[eax]
  103063:	00 50 68             	add    BYTE PTR [eax+0x68],dl
  103066:	79 73                	jns    1030db <.rdata+0x33>
  103068:	69 63 61 6c 20 4d 65 	imul   esp,DWORD PTR [ebx+0x61],0x654d206c
  10306f:	6d                   	ins    DWORD PTR es:[edi],dx
  103070:	6f                   	outs   dx,DWORD PTR ds:[esi]
  103071:	72 79                	jb     1030ec <.rdata+0x44>
  103073:	20 4d 61             	and    BYTE PTR [ebp+0x61],cl
  103076:	6e                   	outs   dx,BYTE PTR ds:[esi]
  103077:	61                   	popa   
  103078:	67 65 72 20          	addr16 gs jb 10309c <.rdata+0x9c>
  10307c:	69 6e 69 74 69 61 6c 	imul   ebp,DWORD PTR [esi+0x69],0x6c616974
  103083:	69 7a 65 64 0a 00 50 	imul   edi,DWORD PTR [edx+0x65],0x50000a64
  10308a:	72 69                	jb     1030f5 <.rdata+0x4d>
  10308c:	6d                   	ins    DWORD PTR es:[edi],dx
  10308d:	69 74 69 76 65 20 50 	imul   esi,DWORD PTR [ecx+ebp*2+0x76],0x61502065
  103094:	61 
  103095:	67 69 6e 67 20 69 6e 	imul   ebp,DWORD PTR [bp+0x67],0x696e6920
  10309c:	69 
  10309d:	74 69                	je     103108 <.rdata+0x60>
  10309f:	61                   	popa   
  1030a0:	6c                   	ins    BYTE PTR es:[edi],dx
  1030a1:	69 7a 65 64 0a 00 00 	imul   edi,DWORD PTR [edx+0x65],0xa64

001030a8 <.rdata>:
  1030a8:	4b                   	dec    ebx
  1030a9:	10 10                	adc    BYTE PTR [eax],dl
  1030ab:	00 60 10             	add    BYTE PTR [eax+0x10],ah
  1030ae:	10 00                	adc    BYTE PTR [eax],al
  1030b0:	60                   	pusha  
  1030b1:	10 10                	adc    BYTE PTR [eax],dl
  1030b3:	00 52 10             	add    BYTE PTR [edx+0x10],dl
  1030b6:	10 00                	adc    BYTE PTR [eax],al
  1030b8:	60                   	pusha  
  1030b9:	10 10                	adc    BYTE PTR [eax],dl
  1030bb:	00 60 10             	add    BYTE PTR [eax+0x10],ah
  1030be:	10 00                	adc    BYTE PTR [eax],al
  1030c0:	60                   	pusha  
  1030c1:	10 10                	adc    BYTE PTR [eax],dl
  1030c3:	00 60 10             	add    BYTE PTR [eax+0x10],ah
  1030c6:	10 00                	adc    BYTE PTR [eax],al
  1030c8:	60                   	pusha  
  1030c9:	10 10                	adc    BYTE PTR [eax],dl
  1030cb:	00 60 10             	add    BYTE PTR [eax+0x10],ah
  1030ce:	10 00                	adc    BYTE PTR [eax],al
  1030d0:	60                   	pusha  
  1030d1:	10 10                	adc    BYTE PTR [eax],dl
  1030d3:	00 44 10 10          	add    BYTE PTR [eax+edx*1+0x10],al
  1030d7:	00 60 10             	add    BYTE PTR [eax+0x10],ah
  1030da:	10 00                	adc    BYTE PTR [eax],al
  1030dc:	3d 10 10 00 60       	cmp    eax,0x60001010
  1030e1:	10 10                	adc    BYTE PTR [eax],dl
  1030e3:	00 60 10             	add    BYTE PTR [eax+0x10],ah
  1030e6:	10 00                	adc    BYTE PTR [eax],al
  1030e8:	59                   	pop    ecx
  1030e9:	10 10                	adc    BYTE PTR [eax],dl
  1030eb:	00 6e 13             	add    BYTE PTR [esi+0x13],ch
  1030ee:	10 00                	adc    BYTE PTR [eax],al
  1030f0:	a1 13 10 00 a1       	mov    eax,ds:0xa1001013
  1030f5:	13 10                	adc    edx,DWORD PTR [eax]
  1030f7:	00 a1 13 10 00 a1    	add    BYTE PTR [ecx-0x5effefed],ah
  1030fd:	13 10                	adc    edx,DWORD PTR [eax]
  1030ff:	00 a1 13 10 00 a1    	add    BYTE PTR [ecx-0x5effefed],ah
  103105:	13 10                	adc    edx,DWORD PTR [eax]
  103107:	00 a1 13 10 00 a1    	add    BYTE PTR [ecx-0x5effefed],ah
  10310d:	13 10                	adc    edx,DWORD PTR [eax]
  10310f:	00 a1 13 10 00 a1    	add    BYTE PTR [ecx-0x5effefed],ah
  103115:	13 10                	adc    edx,DWORD PTR [eax]
  103117:	00 a1 13 10 00 a1    	add    BYTE PTR [ecx-0x5effefed],ah
  10311d:	13 10                	adc    edx,DWORD PTR [eax]
  10311f:	00 a1 13 10 00 a1    	add    BYTE PTR [ecx-0x5effefed],ah
  103125:	13 10                	adc    edx,DWORD PTR [eax]
  103127:	00 a1 13 10 00 a1    	add    BYTE PTR [ecx-0x5effefed],ah
  10312d:	13 10                	adc    edx,DWORD PTR [eax]
  10312f:	00 a1 13 10 00 a1    	add    BYTE PTR [ecx-0x5effefed],ah
  103135:	13 10                	adc    edx,DWORD PTR [eax]
  103137:	00 a1 13 10 00 a1    	add    BYTE PTR [ecx-0x5effefed],ah
  10313d:	13 10                	adc    edx,DWORD PTR [eax]
  10313f:	00 a1 13 10 00 a1    	add    BYTE PTR [ecx-0x5effefed],ah
  103145:	13 10                	adc    edx,DWORD PTR [eax]
  103147:	00 a1 13 10 00 a1    	add    BYTE PTR [ecx-0x5effefed],ah
  10314d:	13 10                	adc    edx,DWORD PTR [eax]
  10314f:	00 a1 13 10 00 a1    	add    BYTE PTR [ecx-0x5effefed],ah
  103155:	13 10                	adc    edx,DWORD PTR [eax]
  103157:	00 a1 13 10 00 a1    	add    BYTE PTR [ecx-0x5effefed],ah
  10315d:	13 10                	adc    edx,DWORD PTR [eax]
  10315f:	00 a1 13 10 00 a1    	add    BYTE PTR [ecx-0x5effefed],ah
  103165:	13 10                	adc    edx,DWORD PTR [eax]
  103167:	00 a1 13 10 00 a1    	add    BYTE PTR [ecx-0x5effefed],ah
  10316d:	13 10                	adc    edx,DWORD PTR [eax]
  10316f:	00 a1 13 10 00 a1    	add    BYTE PTR [ecx-0x5effefed],ah
  103175:	13 10                	adc    edx,DWORD PTR [eax]
  103177:	00 a1 13 10 00 a1    	add    BYTE PTR [ecx-0x5effefed],ah
  10317d:	13 10                	adc    edx,DWORD PTR [eax]
  10317f:	00 a1 13 10 00 a1    	add    BYTE PTR [ecx-0x5effefed],ah
  103185:	13 10                	adc    edx,DWORD PTR [eax]
  103187:	00 a1 13 10 00 a1    	add    BYTE PTR [ecx-0x5effefed],ah
  10318d:	13 10                	adc    edx,DWORD PTR [eax]
  10318f:	00 a1 13 10 00 a1    	add    BYTE PTR [ecx-0x5effefed],ah
  103195:	13 10                	adc    edx,DWORD PTR [eax]
  103197:	00 a1 13 10 00 a1    	add    BYTE PTR [ecx-0x5effefed],ah
  10319d:	13 10                	adc    edx,DWORD PTR [eax]
  10319f:	00 a1 13 10 00 a1    	add    BYTE PTR [ecx-0x5effefed],ah
  1031a5:	13 10                	adc    edx,DWORD PTR [eax]
  1031a7:	00 a1 13 10 00 a1    	add    BYTE PTR [ecx-0x5effefed],ah
  1031ad:	13 10                	adc    edx,DWORD PTR [eax]
  1031af:	00 a1 13 10 00 a1    	add    BYTE PTR [ecx-0x5effefed],ah
  1031b5:	13 10                	adc    edx,DWORD PTR [eax]
  1031b7:	00 90 13 10 00 a1    	add    BYTE PTR [eax-0x5effefed],dl
  1031bd:	13 10                	adc    edx,DWORD PTR [eax]
  1031bf:	00 a1 13 10 00 a1    	add    BYTE PTR [ecx-0x5effefed],ah
  1031c5:	13 10                	adc    edx,DWORD PTR [eax]
  1031c7:	00 a1 13 10 00 a1    	add    BYTE PTR [ecx-0x5effefed],ah
  1031cd:	13 10                	adc    edx,DWORD PTR [eax]
  1031cf:	00 a1 13 10 00 a1    	add    BYTE PTR [ecx-0x5effefed],ah
  1031d5:	13 10                	adc    edx,DWORD PTR [eax]
  1031d7:	00 a1 13 10 00 a1    	add    BYTE PTR [ecx-0x5effefed],ah
  1031dd:	13 10                	adc    edx,DWORD PTR [eax]
  1031df:	00 a1 13 10 00 ac    	add    BYTE PTR [ecx-0x53ffefed],ah
  1031e5:	11 10                	adc    DWORD PTR [eax],edx
  1031e7:	00 9a 13 10 00 a1    	add    BYTE PTR [edx-0x5effefed],bl
  1031ed:	13 10                	adc    edx,DWORD PTR [eax]
  1031ef:	00 a1 13 10 00 a1    	add    BYTE PTR [ecx-0x5effefed],ah
  1031f5:	13 10                	adc    edx,DWORD PTR [eax]
  1031f7:	00 a1 13 10 00 9a    	add    BYTE PTR [ecx-0x65ffefed],ah
  1031fd:	13 10                	adc    edx,DWORD PTR [eax]
  1031ff:	00 a1 13 10 00 a1    	add    BYTE PTR [ecx-0x5effefed],ah
  103205:	13 10                	adc    edx,DWORD PTR [eax]
  103207:	00 a1 13 10 00 a1    	add    BYTE PTR [ecx-0x5effefed],ah
  10320d:	13 10                	adc    edx,DWORD PTR [eax]
  10320f:	00 1b                	add    BYTE PTR [ebx],bl
  103211:	13 10                	adc    edx,DWORD PTR [eax]
  103213:	00 81 13 10 00 bf    	add    BYTE PTR [ecx-0x40ffefed],al
  103219:	12 10                	adc    dl,BYTE PTR [eax]
  10321b:	00 a1 13 10 00 a1    	add    BYTE PTR [ecx-0x5effefed],ah
  103221:	13 10                	adc    edx,DWORD PTR [eax]
  103223:	00 10                	add    BYTE PTR [eax],dl
  103225:	12 10                	adc    dl,BYTE PTR [eax]
  103227:	00 a1 13 10 00 e3    	add    BYTE PTR [ecx-0x1cffefed],ah
  10322d:	13 10                	adc    edx,DWORD PTR [eax]
  10322f:	00 a1 13 10 00 a1    	add    BYTE PTR [ecx-0x5effefed],ah
  103235:	13 10                	adc    edx,DWORD PTR [eax]
  103237:	00 8b 13 10 00     	add    BYTE PTR [ebx+0x30001013],cl

0010323c <_digits.1556>:
  10323c:	30 31                	xor    BYTE PTR [ecx],dh
  10323e:	32 33                	xor    dh,BYTE PTR [ebx]
  103240:	34 35                	xor    al,0x35
  103242:	36 37                	ss aaa 
  103244:	38 39                	cmp    BYTE PTR [ecx],bh
  103246:	41                   	inc    ecx
  103247:	42                   	inc    edx
  103248:	43                   	inc    ebx
  103249:	44                   	inc    esp
  10324a:	45                   	inc    ebp
  10324b:	46                   	inc    esi

0010324c <.rdata>:
  10324c:	44                   	inc    esp
  10324d:	69 76 69 73 69 6f 6e 	imul   esi,DWORD PTR [esi+0x69],0x6e6f6973
  103254:	20 42 79             	and    BYTE PTR [edx+0x79],al
  103257:	20 5a 65             	and    BYTE PTR [edx+0x65],bl
  10325a:	72 6f                	jb     1032cb <.rdata+0x7f>
  10325c:	00 44 65 62          	add    BYTE PTR [ebp+eiz*2+0x62],al
  103260:	75 67                	jne    1032c9 <.rdata+0x7d>
  103262:	00 4e 6f             	add    BYTE PTR [esi+0x6f],cl
  103265:	6e                   	outs   dx,BYTE PTR ds:[esi]
  103266:	20 4d 61             	and    BYTE PTR [ebp+0x61],cl
  103269:	73 6b                	jae    1032d6 <.rdata+0x8a>
  10326b:	61                   	popa   
  10326c:	62 6c 65 20          	bound  ebp,QWORD PTR [ebp+eiz*2+0x20]
  103270:	49                   	dec    ecx
  103271:	6e                   	outs   dx,BYTE PTR ds:[esi]
  103272:	74 65                	je     1032d9 <.rdata+0x8d>
  103274:	72 72                	jb     1032e8 <.rdata+0x9c>
  103276:	75 70                	jne    1032e8 <.rdata+0x9c>
  103278:	74 00                	je     10327a <.rdata+0x2e>
  10327a:	42                   	inc    edx
  10327b:	72 65                	jb     1032e2 <.rdata+0x96>
  10327d:	61                   	popa   
  10327e:	6b 70 6f 69          	imul   esi,DWORD PTR [eax+0x6f],0x69
  103282:	6e                   	outs   dx,BYTE PTR ds:[esi]
  103283:	74 00                	je     103285 <.rdata+0x39>
  103285:	49                   	dec    ecx
  103286:	6e                   	outs   dx,BYTE PTR ds:[esi]
  103287:	74 6f                	je     1032f8 <.rdata+0xac>
  103289:	20 44 65 74          	and    BYTE PTR [ebp+eiz*2+0x74],al
  10328d:	65 63 74 65 64       	arpl   WORD PTR gs:[ebp+eiz*2+0x64],si
  103292:	20 4f 76             	and    BYTE PTR [edi+0x76],cl
  103295:	65 72 66             	gs jb  1032fe <.rdata+0xb2>
  103298:	6c                   	ins    BYTE PTR es:[edi],dx
  103299:	6f                   	outs   dx,DWORD PTR ds:[esi]
  10329a:	77 00                	ja     10329c <.rdata+0x50>
  10329c:	4f                   	dec    edi
  10329d:	75 74                	jne    103313 <.rdata+0xc7>
  10329f:	20 6f 66             	and    BYTE PTR [edi+0x66],ch
  1032a2:	20 42 6f             	and    BYTE PTR [edx+0x6f],al
  1032a5:	75 6e                	jne    103315 <.rdata+0xc9>
  1032a7:	64 73 00             	fs jae 1032aa <.rdata+0x5e>
  1032aa:	49                   	dec    ecx
  1032ab:	6e                   	outs   dx,BYTE PTR ds:[esi]
  1032ac:	76 61                	jbe    10330f <.rdata+0xc3>
  1032ae:	6c                   	ins    BYTE PTR es:[edi],dx
  1032af:	69 64 20 4f 70 63 6f 	imul   esp,DWORD PTR [eax+eiz*1+0x4f],0x646f6370
  1032b6:	64 
  1032b7:	65 00 4e 6f          	add    BYTE PTR gs:[esi+0x6f],cl
  1032bb:	20 43 6f             	and    BYTE PTR [ebx+0x6f],al
  1032be:	70 72                	jo     103332 <.rdata+0xe6>
  1032c0:	6f                   	outs   dx,DWORD PTR ds:[esi]
  1032c1:	63 65 73             	arpl   WORD PTR [ebp+0x73],sp
  1032c4:	73 6f                	jae    103335 <.rdata+0xe9>
  1032c6:	72 00                	jb     1032c8 <.rdata+0x7c>
  1032c8:	44                   	inc    esp
  1032c9:	6f                   	outs   dx,DWORD PTR ds:[esi]
  1032ca:	75 62                	jne    10332e <.rdata+0xe2>
  1032cc:	6c                   	ins    BYTE PTR es:[edi],dx
  1032cd:	65 20 46 61          	and    BYTE PTR gs:[esi+0x61],al
  1032d1:	75 6c                	jne    10333f <.rdata+0xf3>
  1032d3:	74 00                	je     1032d5 <.rdata+0x89>
  1032d5:	43                   	inc    ebx
  1032d6:	6f                   	outs   dx,DWORD PTR ds:[esi]
  1032d7:	70 72                	jo     10334b <.rdata+0xff>
  1032d9:	6f                   	outs   dx,DWORD PTR ds:[esi]
  1032da:	63 65 73             	arpl   WORD PTR [ebp+0x73],sp
  1032dd:	73 6f                	jae    10334e <.rdata+0x102>
  1032df:	72 20                	jb     103301 <.rdata+0xb5>
  1032e1:	53                   	push   ebx
  1032e2:	65 67 6d             	gs ins DWORD PTR es:[di],dx
  1032e5:	65 6e                	outs   dx,BYTE PTR gs:[esi]
  1032e7:	74 20                	je     103309 <.rdata+0xbd>
  1032e9:	4f                   	dec    edi
  1032ea:	76 65                	jbe    103351 <.rdata+0x105>
  1032ec:	72 72                	jb     103360 <.rdata+0x114>
  1032ee:	75 6e                	jne    10335e <.rdata+0x112>
  1032f0:	00 42 61             	add    BYTE PTR [edx+0x61],al
  1032f3:	64 20 54 53 53       	and    BYTE PTR fs:[ebx+edx*2+0x53],dl
  1032f8:	00 53 65             	add    BYTE PTR [ebx+0x65],dl
  1032fb:	67 6d                	ins    DWORD PTR es:[di],dx
  1032fd:	65 6e                	outs   dx,BYTE PTR gs:[esi]
  1032ff:	74 20                	je     103321 <.rdata+0xd5>
  103301:	4e                   	dec    esi
  103302:	6f                   	outs   dx,DWORD PTR ds:[esi]
  103303:	74 20                	je     103325 <.rdata+0xd9>
  103305:	50                   	push   eax
  103306:	72 65                	jb     10336d <.rdata+0x121>
  103308:	73 65                	jae    10336f <.rdata+0x123>
  10330a:	6e                   	outs   dx,BYTE PTR ds:[esi]
  10330b:	74 00                	je     10330d <.rdata+0xc1>
  10330d:	53                   	push   ebx
  10330e:	74 61                	je     103371 <.rdata+0x125>
  103310:	63 6b 20             	arpl   WORD PTR [ebx+0x20],bp
  103313:	46                   	inc    esi
  103314:	61                   	popa   
  103315:	75 6c                	jne    103383 <.rdata+0x137>
  103317:	74 00                	je     103319 <.rdata+0xcd>
  103319:	47                   	inc    edi
  10331a:	65 6e                	outs   dx,BYTE PTR gs:[esi]
  10331c:	65 72 61             	gs jb  103380 <.rdata+0x134>
  10331f:	6c                   	ins    BYTE PTR es:[edi],dx
  103320:	20 50 72             	and    BYTE PTR [eax+0x72],dl
  103323:	6f                   	outs   dx,DWORD PTR ds:[esi]
  103324:	74 65                	je     10338b <.rdata+0x13f>
  103326:	63 74 69 6f          	arpl   WORD PTR [ecx+ebp*2+0x6f],si
  10332a:	6e                   	outs   dx,BYTE PTR ds:[esi]
  10332b:	20 46 61             	and    BYTE PTR [esi+0x61],al
  10332e:	75 6c                	jne    10339c <.rdata+0x150>
  103330:	74 00                	je     103332 <.rdata+0xe6>
  103332:	50                   	push   eax
  103333:	61                   	popa   
  103334:	67 65 20 46 61       	and    BYTE PTR gs:[bp+0x61],al
  103339:	75 6c                	jne    1033a7 <.rdata+0x15b>
  10333b:	74 00                	je     10333d <.rdata+0xf1>
  10333d:	55                   	push   ebp
  10333e:	6e                   	outs   dx,BYTE PTR ds:[esi]
  10333f:	6b 6e 6f 77          	imul   ebp,DWORD PTR [esi+0x6f],0x77
  103343:	6e                   	outs   dx,BYTE PTR ds:[esi]
  103344:	20 49 6e             	and    BYTE PTR [ecx+0x6e],cl
  103347:	74 65                	je     1033ae <.rdata+0x162>
  103349:	72 72                	jb     1033bd <.rdata+0x1>
  10334b:	75 70                	jne    1033bd <.rdata+0x1>
  10334d:	74 00                	je     10334f <.rdata+0x103>
  10334f:	43                   	inc    ebx
  103350:	6f                   	outs   dx,DWORD PTR ds:[esi]
  103351:	70 72                	jo     1033c5 <.rdata+0x9>
  103353:	6f                   	outs   dx,DWORD PTR ds:[esi]
  103354:	63 65 73             	arpl   WORD PTR [ebp+0x73],sp
  103357:	73 6f                	jae    1033c8 <.rdata+0xc>
  103359:	72 20                	jb     10337b <.rdata+0x12f>
  10335b:	46                   	inc    esi
  10335c:	61                   	popa   
  10335d:	75 6c                	jne    1033cb <.rdata+0xf>
  10335f:	74 00                	je     103361 <.rdata+0x115>
  103361:	41                   	inc    ecx
  103362:	6c                   	ins    BYTE PTR es:[edi],dx
  103363:	69 67 6e 6d 65 6e 74 	imul   esp,DWORD PTR [edi+0x6e],0x746e656d
  10336a:	20 43 68             	and    BYTE PTR [ebx+0x68],al
  10336d:	65 63 6b 00          	arpl   WORD PTR gs:[ebx+0x0],bp
  103371:	4d                   	dec    ebp
  103372:	61                   	popa   
  103373:	63 68 69             	arpl   WORD PTR [eax+0x69],bp
  103376:	6e                   	outs   dx,BYTE PTR ds:[esi]
  103377:	65 20 43 68          	and    BYTE PTR gs:[ebx+0x68],al
  10337b:	65 63 6b 00          	arpl   WORD PTR gs:[ebx+0x0],bp
  10337f:	52                   	push   edx
  103380:	65 73 65             	gs jae 1033e8 <.rdata+0x2c>
  103383:	72 76                	jb     1033fb <.rdata+0x3f>
  103385:	65 64 00 49 52       	gs add BYTE PTR fs:[ecx+0x52],cl
  10338a:	51                   	push   ecx
  10338b:	20 25 64 20 52 65    	and    BYTE PTR ds:0x65522064,ah
  103391:	67 69 73 74 65 72 65 	imul   esi,DWORD PTR [bp+di+0x74],0x64657265
  103398:	64 
  103399:	0a 00                	or     al,BYTE PTR [eax]
  10339b:	00 45 58             	add    BYTE PTR [ebp+0x58],al
  10339e:	43                   	inc    ebx
  10339f:	45                   	inc    ebp
  1033a0:	50                   	push   eax
  1033a1:	54                   	push   esp
  1033a2:	49                   	dec    ecx
  1033a3:	4f                   	dec    edi
  1033a4:	4e                   	dec    esi
  1033a5:	3a 20                	cmp    ah,BYTE PTR [eax]
  1033a7:	25 73 20 28 65       	and    eax,0x65282073
  1033ac:	72 72                	jb     103420 <.rdata+0x64>
  1033ae:	20 63 6f             	and    BYTE PTR [ebx+0x6f],ah
  1033b1:	64 65 20 69 73       	fs and BYTE PTR gs:[ecx+0x73],ch
  1033b6:	20 25 78 29 0a 00    	and    BYTE PTR ds:0xa2978,ah

001033bc <.rdata>:
  1033bc:	4a                   	dec    edx
  1033bd:	61                   	popa   
  1033be:	72 76                	jb     103436 <.rdata+0x7a>
  1033c0:	69 73 4f 53 20 72 65 	imul   esi,DWORD PTR [ebx+0x4f],0x65722053
  1033c7:	71 75                	jno    10343e <.rdata+0x82>
  1033c9:	69 72 65 73 20 74 68 	imul   esi,DWORD PTR [edx+0x65],0x68742073
  1033d0:	65 20 43 50          	and    BYTE PTR gs:[ebx+0x50],al
  1033d4:	55                   	push   ebp
  1033d5:	49                   	dec    ecx
  1033d6:	44                   	inc    esp
  1033d7:	20 69 6e             	and    BYTE PTR [ecx+0x6e],ch
  1033da:	73 74                	jae    103450 <.rdata+0x94>
  1033dc:	72 75                	jb     103453 <.rdata+0x97>
  1033de:	63 74 69 6f          	arpl   WORD PTR [ecx+ebp*2+0x6f],si
  1033e2:	6e                   	outs   dx,BYTE PTR ds:[esi]
  1033e3:	20 74 6f 20          	and    BYTE PTR [edi+ebp*2+0x20],dh
  1033e7:	72 65                	jb     10344e <.rdata+0x92>
  1033e9:	74 75                	je     103460 <.rdata+0xa4>
  1033eb:	72 6e                	jb     10345b <.rdata+0x9f>
  1033ed:	20 6d 6f             	and    BYTE PTR [ebp+0x6f],ch
  1033f0:	72 65                	jb     103457 <.rdata+0x9b>
  1033f2:	20 74 68 61          	and    BYTE PTR [eax+ebp*2+0x61],dh
  1033f6:	6e                   	outs   dx,BYTE PTR ds:[esi]
  1033f7:	20 6f 6e             	and    BYTE PTR [edi+0x6e],ch
  1033fa:	65 20 73 75          	and    BYTE PTR gs:[ebx+0x75],dh
  1033fe:	70 70                	jo     103470 <.rdata+0xb4>
  103400:	6f                   	outs   dx,DWORD PTR ds:[esi]
  103401:	72 74                	jb     103477 <.rdata+0xbb>
  103403:	65 64 20 49 44       	gs and BYTE PTR fs:[ecx+0x44],cl
  103408:	2e 0a 00             	or     al,BYTE PTR cs:[eax]
  10340b:	00 50 72             	add    BYTE PTR [eax+0x72],dl
  10340e:	6f                   	outs   dx,DWORD PTR ds:[esi]
  10340f:	63 65 73             	arpl   WORD PTR [ebp+0x73],sp
  103412:	73 6f                	jae    103483 <.rdata+0xc7>
  103414:	72 20                	jb     103436 <.rdata+0x7a>
  103416:	69 73 20 74 6f 6f 20 	imul   esi,DWORD PTR [ebx+0x20],0x206f6f74
  10341d:	6f                   	outs   dx,DWORD PTR ds:[esi]
  10341e:	6c                   	ins    BYTE PTR es:[edi],dx
  10341f:	64 20 28             	and    BYTE PTR fs:[eax],ch
  103422:	66 61                	popaw  
  103424:	6d                   	ins    DWORD PTR es:[edi],dx
  103425:	69 6c 79 20 25 75 20 	imul   ebp,DWORD PTR [ecx+edi*2+0x20],0x3c207525
  10342c:	3c 
  10342d:	20 35 29 0a 00 00    	and    BYTE PTR ds:0xa29,dh
  103433:	00 50 72             	add    BYTE PTR [eax+0x72],dl
  103436:	6f                   	outs   dx,DWORD PTR ds:[esi]
  103437:	63 65 73             	arpl   WORD PTR [ebp+0x73],sp
  10343a:	73 6f                	jae    1034ab <.rdata+0x13>
  10343c:	72 20                	jb     10345e <.rdata+0xa2>
  10343e:	69 73 20 61 63 63 65 	imul   esi,DWORD PTR [ebx+0x20],0x65636361
  103445:	70 74                	jo     1034bb <.rdata+0x23>
  103447:	61                   	popa   
  103448:	62 6c 65 20          	bound  ebp,QWORD PTR [ebp+eiz*2+0x20]
  10344c:	28 66 61             	sub    BYTE PTR [esi+0x61],ah
  10344f:	6d                   	ins    DWORD PTR es:[edi],dx
  103450:	69 6c 79 20 25 75 20 	imul   ebp,DWORD PTR [ecx+edi*2+0x20],0x3e207525
  103457:	3e 
  103458:	20 35 29 0a 00 00    	and    BYTE PTR ds:0xa29,dh
  10345e:	00 00                	add    BYTE PTR [eax],al
  103460:	4a                   	dec    edx
  103461:	61                   	popa   
  103462:	72 76                	jb     1034da <.rdata+0x42>
  103464:	69 73 4f 53 20 72 65 	imul   esi,DWORD PTR [ebx+0x4f],0x65722053
  10346b:	71 75                	jno    1034e2 <.rdata+0x4a>
  10346d:	69 72 65 73 20 61 20 	imul   esi,DWORD PTR [edx+0x65],0x20612073
  103474:	50                   	push   eax
  103475:	65 6e                	outs   dx,BYTE PTR gs:[esi]
  103477:	74 69                	je     1034e2 <.rdata+0x4a>
  103479:	75 6d                	jne    1034e8 <.rdata+0x50>
  10347b:	2d 6c 65 76 65       	sub    eax,0x6576656c
  103480:	6c                   	ins    BYTE PTR es:[edi],dx
  103481:	20 70 72             	and    BYTE PTR [eax+0x72],dh
  103484:	6f                   	outs   dx,DWORD PTR ds:[esi]
  103485:	63 65 73             	arpl   WORD PTR [ebp+0x73],sp
  103488:	73 6f                	jae    1034f9 <.rdata+0x61>
  10348a:	72 20                	jb     1034ac <.rdata+0x14>
  10348c:	6f                   	outs   dx,DWORD PTR ds:[esi]
  10348d:	72 20                	jb     1034af <.rdata+0x17>
  10348f:	6e                   	outs   dx,BYTE PTR ds:[esi]
  103490:	65 77 65             	gs ja  1034f8 <.rdata+0x60>
  103493:	72 2e                	jb     1034c3 <.rdata+0x2b>
  103495:	0a 00                	or     al,BYTE PTR [eax]
	...

00103498 <.rdata>:
  103498:	6d                   	ins    DWORD PTR es:[edi],dx
  103499:	65 6d                	gs ins DWORD PTR es:[edi],dx
  10349b:	20 73 69             	and    BYTE PTR [ebx+0x69],dh
  10349e:	7a 65                	jp     103505 <.rdata$zzz+0x9>
  1034a0:	3a 20                	cmp    ah,BYTE PTR [eax]
  1034a2:	20 20                	and    BYTE PTR [eax],ah
  1034a4:	20 20                	and    BYTE PTR [eax],ah
  1034a6:	25 75 20 6d 62       	and    eax,0x626d2075
  1034ab:	0a 00                	or     al,BYTE PTR [eax]
  1034ad:	74 6f                	je     10351e <.rdata$zzz+0x2>
  1034af:	74 61                	je     103512 <.rdata$zzz+0x16>
  1034b1:	6c                   	ins    BYTE PTR es:[edi],dx
  1034b2:	5f                   	pop    edi
  1034b3:	62 6c 6f 63          	bound  ebp,QWORD PTR [edi+ebp*2+0x63]
  1034b7:	6b 73 3a 20          	imul   esi,DWORD PTR [ebx+0x3a],0x20
  1034bb:	25 75 0a 00 62       	and    eax,0x62000a75
  1034c0:	69 74 6d 61 70 20 61 	imul   esi,DWORD PTR [ebp+ebp*2+0x61],0x64612070
  1034c7:	64 
  1034c8:	64 72 3a             	fs jb  103505 <.rdata$zzz+0x9>
  1034cb:	20 20                	and    BYTE PTR [eax],ah
  1034cd:	30 78 25             	xor    BYTE PTR [eax+0x25],bh
  1034d0:	70 0a                	jo     1034dc <.rdata+0x44>
  1034d2:	00 62 69             	add    BYTE PTR [edx+0x69],ah
  1034d5:	74 6d                	je     103544 <.rdata$zzz+0x8>
  1034d7:	61                   	popa   
  1034d8:	70 5f                	jo     103539 <.rdata$zzz+0x1d>
  1034da:	73 69                	jae    103545 <.rdata$zzz+0x9>
  1034dc:	7a 65                	jp     103543 <.rdata$zzz+0x7>
  1034de:	3a 20                	cmp    ah,BYTE PTR [eax]
  1034e0:	20 25 75 0a 00 6d    	and    BYTE PTR ds:0x6d000a75,ah
  1034e6:	65 6d                	gs ins DWORD PTR es:[edi],dx
  1034e8:	5f                   	pop    edi
  1034e9:	73 74                	jae    10355f <.rdata$zzz+0x3>
  1034eb:	61                   	popa   
  1034ec:	72 74                	jb     103562 <.rdata$zzz+0x6>
  1034ee:	3a 20                	cmp    ah,BYTE PTR [eax]
  1034f0:	20 20                	and    BYTE PTR [eax],ah
  1034f2:	20 30                	and    BYTE PTR [eax],dh
  1034f4:	78 25                	js     10351b <.rdata$zzz+0x1f>
  1034f6:	70 0a                	jo     103502 <.rdata$zzz+0x6>
  1034f8:	00 00                	add    BYTE PTR [eax],al
	...

001034fc <.rdata$zzz>:
  1034fc:	47                   	inc    edi
  1034fd:	43                   	inc    ebx
  1034fe:	43                   	inc    ebx
  1034ff:	3a 20                	cmp    ah,BYTE PTR [eax]
  103501:	28 47 4e             	sub    BYTE PTR [edi+0x4e],al
  103504:	55                   	push   ebp
  103505:	29 20                	sub    DWORD PTR [eax],esp
  103507:	39 2e                	cmp    DWORD PTR [esi],ebp
  103509:	33 2d 77 69 6e 33    	xor    ebp,DWORD PTR ds:0x336e6977
  10350f:	32 20                	xor    ah,BYTE PTR [eax]
  103511:	32 30                	xor    dh,BYTE PTR [eax]
  103513:	32 30                	xor    dh,BYTE PTR [eax]
  103515:	30 33                	xor    BYTE PTR [ebx],dh
  103517:	32 30                	xor    dh,BYTE PTR [eax]
  103519:	00 00                	add    BYTE PTR [eax],al
	...

0010351c <.rdata$zzz>:
  10351c:	47                   	inc    edi
  10351d:	43                   	inc    ebx
  10351e:	43                   	inc    ebx
  10351f:	3a 20                	cmp    ah,BYTE PTR [eax]
  103521:	28 47 4e             	sub    BYTE PTR [edi+0x4e],al
  103524:	55                   	push   ebp
  103525:	29 20                	sub    DWORD PTR [eax],esp
  103527:	39 2e                	cmp    DWORD PTR [esi],ebp
  103529:	33 2d 77 69 6e 33    	xor    ebp,DWORD PTR ds:0x336e6977
  10352f:	32 20                	xor    ah,BYTE PTR [eax]
  103531:	32 30                	xor    dh,BYTE PTR [eax]
  103533:	32 30                	xor    dh,BYTE PTR [eax]
  103535:	30 33                	xor    BYTE PTR [ebx],dh
  103537:	32 30                	xor    dh,BYTE PTR [eax]
  103539:	00 00                	add    BYTE PTR [eax],al
	...

0010353c <.rdata$zzz>:
  10353c:	47                   	inc    edi
  10353d:	43                   	inc    ebx
  10353e:	43                   	inc    ebx
  10353f:	3a 20                	cmp    ah,BYTE PTR [eax]
  103541:	28 47 4e             	sub    BYTE PTR [edi+0x4e],al
  103544:	55                   	push   ebp
  103545:	29 20                	sub    DWORD PTR [eax],esp
  103547:	39 2e                	cmp    DWORD PTR [esi],ebp
  103549:	33 2d 77 69 6e 33    	xor    ebp,DWORD PTR ds:0x336e6977
  10354f:	32 20                	xor    ah,BYTE PTR [eax]
  103551:	32 30                	xor    dh,BYTE PTR [eax]
  103553:	32 30                	xor    dh,BYTE PTR [eax]
  103555:	30 33                	xor    BYTE PTR [ebx],dh
  103557:	32 30                	xor    dh,BYTE PTR [eax]
  103559:	00 00                	add    BYTE PTR [eax],al
	...

0010355c <.rdata$zzz>:
  10355c:	47                   	inc    edi
  10355d:	43                   	inc    ebx
  10355e:	43                   	inc    ebx
  10355f:	3a 20                	cmp    ah,BYTE PTR [eax]
  103561:	28 47 4e             	sub    BYTE PTR [edi+0x4e],al
  103564:	55                   	push   ebp
  103565:	29 20                	sub    DWORD PTR [eax],esp
  103567:	39 2e                	cmp    DWORD PTR [esi],ebp
  103569:	33 2d 77 69 6e 33    	xor    ebp,DWORD PTR ds:0x336e6977
  10356f:	32 20                	xor    ah,BYTE PTR [eax]
  103571:	32 30                	xor    dh,BYTE PTR [eax]
  103573:	32 30                	xor    dh,BYTE PTR [eax]
  103575:	30 33                	xor    BYTE PTR [ebx],dh
  103577:	32 30                	xor    dh,BYTE PTR [eax]
  103579:	00 00                	add    BYTE PTR [eax],al
	...

0010357c <.rdata$zzz>:
  10357c:	47                   	inc    edi
  10357d:	43                   	inc    ebx
  10357e:	43                   	inc    ebx
  10357f:	3a 20                	cmp    ah,BYTE PTR [eax]
  103581:	28 47 4e             	sub    BYTE PTR [edi+0x4e],al
  103584:	55                   	push   ebp
  103585:	29 20                	sub    DWORD PTR [eax],esp
  103587:	39 2e                	cmp    DWORD PTR [esi],ebp
  103589:	33 2d 77 69 6e 33    	xor    ebp,DWORD PTR ds:0x336e6977
  10358f:	32 20                	xor    ah,BYTE PTR [eax]
  103591:	32 30                	xor    dh,BYTE PTR [eax]
  103593:	32 30                	xor    dh,BYTE PTR [eax]
  103595:	30 33                	xor    BYTE PTR [ebx],dh
  103597:	32 30                	xor    dh,BYTE PTR [eax]
  103599:	00 00                	add    BYTE PTR [eax],al
	...

0010359c <.rdata$zzz>:
  10359c:	47                   	inc    edi
  10359d:	43                   	inc    ebx
  10359e:	43                   	inc    ebx
  10359f:	3a 20                	cmp    ah,BYTE PTR [eax]
  1035a1:	28 47 4e             	sub    BYTE PTR [edi+0x4e],al
  1035a4:	55                   	push   ebp
  1035a5:	29 20                	sub    DWORD PTR [eax],esp
  1035a7:	39 2e                	cmp    DWORD PTR [esi],ebp
  1035a9:	33 2d 77 69 6e 33    	xor    ebp,DWORD PTR ds:0x336e6977
  1035af:	32 20                	xor    ah,BYTE PTR [eax]
  1035b1:	32 30                	xor    dh,BYTE PTR [eax]
  1035b3:	32 30                	xor    dh,BYTE PTR [eax]
  1035b5:	30 33                	xor    BYTE PTR [ebx],dh
  1035b7:	32 30                	xor    dh,BYTE PTR [eax]
  1035b9:	00 00                	add    BYTE PTR [eax],al
	...

001035bc <.rdata$zzz>:
  1035bc:	47                   	inc    edi
  1035bd:	43                   	inc    ebx
  1035be:	43                   	inc    ebx
  1035bf:	3a 20                	cmp    ah,BYTE PTR [eax]
  1035c1:	28 47 4e             	sub    BYTE PTR [edi+0x4e],al
  1035c4:	55                   	push   ebp
  1035c5:	29 20                	sub    DWORD PTR [eax],esp
  1035c7:	39 2e                	cmp    DWORD PTR [esi],ebp
  1035c9:	33 2d 77 69 6e 33    	xor    ebp,DWORD PTR ds:0x336e6977
  1035cf:	32 20                	xor    ah,BYTE PTR [eax]
  1035d1:	32 30                	xor    dh,BYTE PTR [eax]
  1035d3:	32 30                	xor    dh,BYTE PTR [eax]
  1035d5:	30 33                	xor    BYTE PTR [ebx],dh
  1035d7:	32 30                	xor    dh,BYTE PTR [eax]
  1035d9:	00 00                	add    BYTE PTR [eax],al
	...

001035dc <.rdata$zzz>:
  1035dc:	47                   	inc    edi
  1035dd:	43                   	inc    ebx
  1035de:	43                   	inc    ebx
  1035df:	3a 20                	cmp    ah,BYTE PTR [eax]
  1035e1:	28 47 4e             	sub    BYTE PTR [edi+0x4e],al
  1035e4:	55                   	push   ebp
  1035e5:	29 20                	sub    DWORD PTR [eax],esp
  1035e7:	39 2e                	cmp    DWORD PTR [esi],ebp
  1035e9:	33 2d 77 69 6e 33    	xor    ebp,DWORD PTR ds:0x336e6977
  1035ef:	32 20                	xor    ah,BYTE PTR [eax]
  1035f1:	32 30                	xor    dh,BYTE PTR [eax]
  1035f3:	32 30                	xor    dh,BYTE PTR [eax]
  1035f5:	30 33                	xor    BYTE PTR [ebx],dh
  1035f7:	32 30                	xor    dh,BYTE PTR [eax]
  1035f9:	00 00                	add    BYTE PTR [eax],al
	...

001035fc <.rdata$zzz>:
  1035fc:	47                   	inc    edi
  1035fd:	43                   	inc    ebx
  1035fe:	43                   	inc    ebx
  1035ff:	3a 20                	cmp    ah,BYTE PTR [eax]
  103601:	28 47 4e             	sub    BYTE PTR [edi+0x4e],al
  103604:	55                   	push   ebp
  103605:	29 20                	sub    DWORD PTR [eax],esp
  103607:	39 2e                	cmp    DWORD PTR [esi],ebp
  103609:	33 2d 77 69 6e 33    	xor    ebp,DWORD PTR ds:0x336e6977
  10360f:	32 20                	xor    ah,BYTE PTR [eax]
  103611:	32 30                	xor    dh,BYTE PTR [eax]
  103613:	32 30                	xor    dh,BYTE PTR [eax]
  103615:	30 33                	xor    BYTE PTR [ebx],dh
  103617:	32 30                	xor    dh,BYTE PTR [eax]
  103619:	00 00                	add    BYTE PTR [eax],al
	...

0010361c <.rdata$zzz>:
  10361c:	47                   	inc    edi
  10361d:	43                   	inc    ebx
  10361e:	43                   	inc    ebx
  10361f:	3a 20                	cmp    ah,BYTE PTR [eax]
  103621:	28 47 4e             	sub    BYTE PTR [edi+0x4e],al
  103624:	55                   	push   ebp
  103625:	29 20                	sub    DWORD PTR [eax],esp
  103627:	39 2e                	cmp    DWORD PTR [esi],ebp
  103629:	33 2d 77 69 6e 33    	xor    ebp,DWORD PTR ds:0x336e6977
  10362f:	32 20                	xor    ah,BYTE PTR [eax]
  103631:	32 30                	xor    dh,BYTE PTR [eax]
  103633:	32 30                	xor    dh,BYTE PTR [eax]
  103635:	30 33                	xor    BYTE PTR [ebx],dh
  103637:	32 30                	xor    dh,BYTE PTR [eax]
  103639:	00 00                	add    BYTE PTR [eax],al
	...

0010363c <.rdata$zzz>:
  10363c:	47                   	inc    edi
  10363d:	43                   	inc    ebx
  10363e:	43                   	inc    ebx
  10363f:	3a 20                	cmp    ah,BYTE PTR [eax]
  103641:	28 47 4e             	sub    BYTE PTR [edi+0x4e],al
  103644:	55                   	push   ebp
  103645:	29 20                	sub    DWORD PTR [eax],esp
  103647:	39 2e                	cmp    DWORD PTR [esi],ebp
  103649:	33 2d 77 69 6e 33    	xor    ebp,DWORD PTR ds:0x336e6977
  10364f:	32 20                	xor    ah,BYTE PTR [eax]
  103651:	32 30                	xor    dh,BYTE PTR [eax]
  103653:	32 30                	xor    dh,BYTE PTR [eax]
  103655:	30 33                	xor    BYTE PTR [ebx],dh
  103657:	32 30                	xor    dh,BYTE PTR [eax]
  103659:	00 00                	add    BYTE PTR [eax],al
	...

Disassembly of section .data:

00104000 <_exception_messages>:
  104000:	4c                   	dec    esp
  104001:	32 10                	xor    dl,BYTE PTR [eax]
  104003:	00 5d 32             	add    BYTE PTR [ebp+0x32],bl
  104006:	10 00                	adc    BYTE PTR [eax],al
  104008:	63 32                	arpl   WORD PTR [edx],si
  10400a:	10 00                	adc    BYTE PTR [eax],al
  10400c:	7a 32                	jp     104040 <_exception_messages+0x40>
  10400e:	10 00                	adc    BYTE PTR [eax],al
  104010:	85 32                	test   DWORD PTR [edx],esi
  104012:	10 00                	adc    BYTE PTR [eax],al
  104014:	9c                   	pushf  
  104015:	32 10                	xor    dl,BYTE PTR [eax]
  104017:	00 aa 32 10 00 b9    	add    BYTE PTR [edx-0x46ffefce],ch
  10401d:	32 10                	xor    dl,BYTE PTR [eax]
  10401f:	00 c8                	add    al,cl
  104021:	32 10                	xor    dl,BYTE PTR [eax]
  104023:	00 d5                	add    ch,dl
  104025:	32 10                	xor    dl,BYTE PTR [eax]
  104027:	00 f1                	add    cl,dh
  104029:	32 10                	xor    dl,BYTE PTR [eax]
  10402b:	00 f9                	add    cl,bh
  10402d:	32 10                	xor    dl,BYTE PTR [eax]
  10402f:	00 0d 33 10 00 19    	add    BYTE PTR ds:0x19001033,cl
  104035:	33 10                	xor    edx,DWORD PTR [eax]
  104037:	00 32                	add    BYTE PTR [edx],dh
  104039:	33 10                	xor    edx,DWORD PTR [eax]
  10403b:	00 3d 33 10 00 4f    	add    BYTE PTR ds:0x4f001033,bh
  104041:	33 10                	xor    edx,DWORD PTR [eax]
  104043:	00 61 33             	add    BYTE PTR [ecx+0x33],ah
  104046:	10 00                	adc    BYTE PTR [eax],al
  104048:	71 33                	jno    10407d <_exception_messages+0x7d>
  10404a:	10 00                	adc    BYTE PTR [eax],al
  10404c:	7f 33                	jg     104081 <_bitmap+0x1>
  10404e:	10 00                	adc    BYTE PTR [eax],al
  104050:	7f 33                	jg     104085 <_bitmap+0x5>
  104052:	10 00                	adc    BYTE PTR [eax],al
  104054:	7f 33                	jg     104089 <_bitmap+0x9>
  104056:	10 00                	adc    BYTE PTR [eax],al
  104058:	7f 33                	jg     10408d <_bitmap+0xd>
  10405a:	10 00                	adc    BYTE PTR [eax],al
  10405c:	7f 33                	jg     104091 <_bitmap+0x11>
  10405e:	10 00                	adc    BYTE PTR [eax],al
  104060:	7f 33                	jg     104095 <_bitmap+0x15>
  104062:	10 00                	adc    BYTE PTR [eax],al
  104064:	7f 33                	jg     104099 <_bitmap+0x19>
  104066:	10 00                	adc    BYTE PTR [eax],al
  104068:	7f 33                	jg     10409d <_bitmap+0x1d>
  10406a:	10 00                	adc    BYTE PTR [eax],al
  10406c:	7f 33                	jg     1040a1 <_bitmap+0x21>
  10406e:	10 00                	adc    BYTE PTR [eax],al
  104070:	7f 33                	jg     1040a5 <_bitmap+0x25>
  104072:	10 00                	adc    BYTE PTR [eax],al
  104074:	7f 33                	jg     1040a9 <_bitmap+0x29>
  104076:	10 00                	adc    BYTE PTR [eax],al
  104078:	7f 33                	jg     1040ad <_bitmap+0x2d>
  10407a:	10 00                	adc    BYTE PTR [eax],al
  10407c:	7f 33                	jg     1040b1 <_bitmap+0x31>
  10407e:	10 00                	adc    BYTE PTR [eax],al

00104080 <_bitmap>:
  104080:	b8                   	.byte 0xb8
  104081:	26 12 00             	adc    al,BYTE PTR es:[eax]

Disassembly of section .drectve:

00105000 <.drectve>:
  105000:	20 2d 61 6c 69 67    	and    BYTE PTR ds:0x67696c61,ch
  105006:	6e                   	outs   dx,BYTE PTR ds:[esi]
  105007:	63 6f 6d             	arpl   WORD PTR [edi+0x6d],bp
  10500a:	6d                   	ins    DWORD PTR es:[edi],dx
  10500b:	3a 22                	cmp    ah,BYTE PTR [edx]
  10500d:	5f                   	pop    edi
  10500e:	70 61                	jo     105071 <.drectve+0xd>
  105010:	67 65 5f             	addr16 gs pop edi
  105013:	64 69 72 65 63 74 6f 	imul   esi,DWORD PTR fs:[edx+0x65],0x726f7463
  10501a:	72 
  10501b:	79 22                	jns    10503f <.drectve+0x3f>
  10501d:	2c 31                	sub    al,0x31
  10501f:	32 20                	xor    ah,BYTE PTR [eax]
  105021:	2d 61 6c 69 67       	sub    eax,0x67696c61
  105026:	6e                   	outs   dx,BYTE PTR ds:[esi]
  105027:	63 6f 6d             	arpl   WORD PTR [edi+0x6d],bp
  10502a:	6d                   	ins    DWORD PTR es:[edi],dx
  10502b:	3a 22                	cmp    ah,BYTE PTR [edx]
  10502d:	5f                   	pop    edi
  10502e:	66 69 72 73 74 5f    	imul   si,WORD PTR [edx+0x73],0x5f74
  105034:	70 61                	jo     105097 <.drectve+0x33>
  105036:	67 65 5f             	addr16 gs pop edi
  105039:	74 61                	je     10509c <.drectve+0x4>
  10503b:	62 6c 65 22          	bound  ebp,QWORD PTR [ebp+eiz*2+0x22]
  10503f:	2c 31                	sub    al,0x31
  105041:	32 00                	xor    al,BYTE PTR [eax]
	...

00105044 <.drectve>:
  105044:	20 2d 61 6c 69 67    	and    BYTE PTR ds:0x67696c61,ch
  10504a:	6e                   	outs   dx,BYTE PTR ds:[esi]
  10504b:	63 6f 6d             	arpl   WORD PTR [edi+0x6d],bp
  10504e:	6d                   	ins    DWORD PTR es:[edi],dx
  10504f:	3a 22                	cmp    ah,BYTE PTR [edx]
  105051:	5f                   	pop    edi
  105052:	76 69                	jbe    1050bd <.drectve+0x25>
  105054:	64 65 6f             	fs outs dx,DWORD PTR gs:[esi]
  105057:	5f                   	pop    edi
  105058:	6d                   	ins    DWORD PTR es:[edi],dx
  105059:	65 6d                	gs ins DWORD PTR es:[edi],dx
  10505b:	6f                   	outs   dx,DWORD PTR ds:[esi]
  10505c:	72 79                	jb     1050d7 <.drectve+0x3f>
  10505e:	22 2c 32             	and    ch,BYTE PTR [edx+esi*1]
  105061:	00 00                	add    BYTE PTR [eax],al
	...

00105064 <.drectve>:
  105064:	20 2d 61 6c 69 67    	and    BYTE PTR ds:0x67696c61,ch
  10506a:	6e                   	outs   dx,BYTE PTR ds:[esi]
  10506b:	63 6f 6d             	arpl   WORD PTR [edi+0x6d],bp
  10506e:	6d                   	ins    DWORD PTR es:[edi],dx
  10506f:	3a 22                	cmp    ah,BYTE PTR [edx]
  105071:	5f                   	pop    edi
  105072:	67 64 74 5f          	addr16 fs je 1050d5 <.drectve+0x3d>
  105076:	65 6e                	outs   dx,BYTE PTR gs:[esi]
  105078:	74 72                	je     1050ec <.drectve+0x54>
  10507a:	69 65 73 22 2c 35 20 	imul   esp,DWORD PTR [ebp+0x73],0x20352c22
  105081:	2d 61 6c 69 67       	sub    eax,0x67696c61
  105086:	6e                   	outs   dx,BYTE PTR ds:[esi]
  105087:	63 6f 6d             	arpl   WORD PTR [edi+0x6d],bp
  10508a:	6d                   	ins    DWORD PTR es:[edi],dx
  10508b:	3a 22                	cmp    ah,BYTE PTR [edx]
  10508d:	5f                   	pop    edi
  10508e:	67 64 74 5f          	addr16 fs je 1050f1 <.drectve+0x1>
  105092:	70 74                	jo     105108 <.drectve+0x18>
  105094:	72 22                	jb     1050b8 <.drectve+0x20>
  105096:	2c 32                	sub    al,0x32

00105098 <.drectve>:
  105098:	20 2d 61 6c 69 67    	and    BYTE PTR ds:0x67696c61,ch
  10509e:	6e                   	outs   dx,BYTE PTR ds:[esi]
  10509f:	63 6f 6d             	arpl   WORD PTR [edi+0x6d],bp
  1050a2:	6d                   	ins    DWORD PTR es:[edi],dx
  1050a3:	3a 22                	cmp    ah,BYTE PTR [edx]
  1050a5:	5f                   	pop    edi
  1050a6:	69 64 74 5f 65 6e 74 	imul   esp,DWORD PTR [esp+esi*2+0x5f],0x72746e65
  1050ad:	72 
  1050ae:	69 65 73 22 2c 35 20 	imul   esp,DWORD PTR [ebp+0x73],0x20352c22
  1050b5:	2d 61 6c 69 67       	sub    eax,0x67696c61
  1050ba:	6e                   	outs   dx,BYTE PTR ds:[esi]
  1050bb:	63 6f 6d             	arpl   WORD PTR [edi+0x6d],bp
  1050be:	6d                   	ins    DWORD PTR es:[edi],dx
  1050bf:	3a 22                	cmp    ah,BYTE PTR [edx]
  1050c1:	5f                   	pop    edi
  1050c2:	69 64 74 5f 70 74 72 	imul   esp,DWORD PTR [esp+esi*2+0x5f],0x22727470
  1050c9:	22 
  1050ca:	2c 32                	sub    al,0x32
  1050cc:	20 2d 61 6c 69 67    	and    BYTE PTR ds:0x67696c61,ch
  1050d2:	6e                   	outs   dx,BYTE PTR ds:[esi]
  1050d3:	63 6f 6d             	arpl   WORD PTR [edi+0x6d],bp
  1050d6:	6d                   	ins    DWORD PTR es:[edi],dx
  1050d7:	3a 22                	cmp    ah,BYTE PTR [edx]
  1050d9:	5f                   	pop    edi
  1050da:	69 6e 74 65 72 72 75 	imul   ebp,DWORD PTR [esi+0x74],0x75727265
  1050e1:	70 74                	jo     105157 <.drectve+0x4b>
  1050e3:	5f                   	pop    edi
  1050e4:	68 61 6e 64 6c       	push   0x6c646e61
  1050e9:	65 72 73             	gs jb  10515f <.drectve+0x53>
  1050ec:	22 2c 35 00    	and    ch,BYTE PTR [esi*1+0x612d2000]

001050f0 <.drectve>:
  1050f0:	20 2d 61 6c 69 67    	and    BYTE PTR ds:0x67696c61,ch
  1050f6:	6e                   	outs   dx,BYTE PTR ds:[esi]
  1050f7:	63 6f 6d             	arpl   WORD PTR [edi+0x6d],bp
  1050fa:	6d                   	ins    DWORD PTR es:[edi],dx
  1050fb:	3a 22                	cmp    ah,BYTE PTR [edx]
  1050fd:	5f                   	pop    edi
  1050fe:	6b 65 72 6e          	imul   esp,DWORD PTR [ebp+0x72],0x6e
  105102:	65 6c                	gs ins BYTE PTR es:[edi],dx
  105104:	5f                   	pop    edi
  105105:	74 73                	je     10517a <.drectve+0x6e>
  105107:	73 22                	jae    10512b <.drectve+0x1f>
  105109:	2c 35                	sub    al,0x35
	...

0010510c <.drectve>:
  10510c:	20 2d 61 6c 69 67    	and    BYTE PTR ds:0x67696c61,ch
  105112:	6e                   	outs   dx,BYTE PTR ds:[esi]
  105113:	63 6f 6d             	arpl   WORD PTR [edi+0x6d],bp
  105116:	6d                   	ins    DWORD PTR es:[edi],dx
  105117:	3a 22                	cmp    ah,BYTE PTR [edx]
  105119:	5f                   	pop    edi
  10511a:	6d                   	ins    DWORD PTR es:[edi],dx
  10511b:	65 6d                	gs ins DWORD PTR es:[edi],dx
  10511d:	5f                   	pop    edi
  10511e:	73 74                	jae    105194 <.drectve+0x88>
  105120:	61                   	popa   
  105121:	72 74                	jb     105197 <.drectve+0x8b>
  105123:	22 2c 32             	and    ch,BYTE PTR [edx+esi*1]
  105126:	20 2d 61 6c 69 67    	and    BYTE PTR ds:0x67696c61,ch
  10512c:	6e                   	outs   dx,BYTE PTR ds:[esi]
  10512d:	63 6f 6d             	arpl   WORD PTR [edi+0x6d],bp
  105130:	6d                   	ins    DWORD PTR es:[edi],dx
  105131:	3a 22                	cmp    ah,BYTE PTR [edx]
  105133:	5f                   	pop    edi
  105134:	74 6f                	je     1051a5 <.drectve+0x99>
  105136:	74 61                	je     105199 <.drectve+0x8d>
  105138:	6c                   	ins    BYTE PTR es:[edi],dx
  105139:	5f                   	pop    edi
  10513a:	62 6c 6f 63          	bound  ebp,QWORD PTR [edi+ebp*2+0x63]
  10513e:	6b 73 22 2c          	imul   esi,DWORD PTR [ebx+0x22],0x2c
  105142:	32 20                	xor    ah,BYTE PTR [eax]
  105144:	2d 61 6c 69 67       	sub    eax,0x67696c61
  105149:	6e                   	outs   dx,BYTE PTR ds:[esi]
  10514a:	63 6f 6d             	arpl   WORD PTR [edi+0x6d],bp
  10514d:	6d                   	ins    DWORD PTR es:[edi],dx
  10514e:	3a 22                	cmp    ah,BYTE PTR [edx]
  105150:	5f                   	pop    edi
  105151:	62 69 74             	bound  ebp,QWORD PTR [ecx+0x74]
  105154:	6d                   	ins    DWORD PTR es:[edi],dx
  105155:	61                   	popa   
  105156:	70 5f                	jo     1051b7 <.drectve+0xab>
  105158:	73 69                	jae    1051c3 <.drectve+0xb7>
  10515a:	7a 65                	jp     1051c1 <.drectve+0xb5>
  10515c:	22 2c 32             	and    ch,BYTE PTR [edx+esi*1]
	...
x86_64-w64-mingw32-objdump: error: bin/kernel.exe(.bss) section size (0x1c6b8 bytes) is larger than file size (0xd829 bytes)
x86_64-w64-mingw32-objdump: Reading section .bss failed because: memory exhausted
