
bin/kernel.exe:     file format pei-i386


Disassembly of section .text:

00100000 <_start>:
  100000:	eb 22                	jmp    100024 <multiboot_entry>
  100002:	90                   	nop
  100003:	90                   	nop

00100004 <multiboot_header>:
  100004:	02 b0 ad 1b 03 00    	add    dh,BYTE PTR [eax+0x31bad]
  10000a:	01 00                	add    DWORD PTR [eax],eax
  10000c:	fb                   	sti    
  10000d:	4f                   	dec    edi
  10000e:	51                   	push   ecx
  10000f:	e4 04                	in     al,0x4
  100011:	00 10                	add    BYTE PTR [eax],dl
  100013:	00 00                	add    BYTE PTR [eax],al
  100015:	00 10                	add    BYTE PTR [eax],dl
	...
  10001f:	00 24 00             	add    BYTE PTR [eax+eax*1],ah
  100022:	10 00                	adc    BYTE PTR [eax],al

00100024 <multiboot_entry>:
  100024:	bc b8 26 12 00       	mov    esp,0x1226b8
  100029:	e8 02 02 00 00       	call   100230 <_kernel_main>
  10002e:	83 c4 08             	add    esp,0x8
  100031:	fa                   	cli    

00100032 <endloop>:
  100032:	f4                   	hlt    
  100033:	eb fd                	jmp    100032 <endloop>

00100035 <endloop.end>:
  100035:	66 90                	xchg   ax,ax
  100037:	66 90                	xchg   ax,ax
  100039:	66 90                	xchg   ax,ax
  10003b:	66 90                	xchg   ax,ax
  10003d:	66 90                	xchg   ax,ax
  10003f:	90                   	nop

00100040 <_exception0>:
  100040:	fa                   	cli    
  100041:	6a 00                	push   0x0
  100043:	6a 00                	push   0x0
  100045:	e9 01 01 00 00       	jmp    10014b <temp_exception_handler>

0010004a <_exception1>:
  10004a:	fa                   	cli    
  10004b:	6a 00                	push   0x0
  10004d:	6a 01                	push   0x1
  10004f:	e9 f7 00 00 00       	jmp    10014b <temp_exception_handler>

00100054 <_exception2>:
  100054:	fa                   	cli    
  100055:	6a 00                	push   0x0
  100057:	6a 02                	push   0x2
  100059:	e9 ed 00 00 00       	jmp    10014b <temp_exception_handler>

0010005e <_exception3>:
  10005e:	fa                   	cli    
  10005f:	6a 00                	push   0x0
  100061:	6a 03                	push   0x3
  100063:	e9 e3 00 00 00       	jmp    10014b <temp_exception_handler>

00100068 <_exception4>:
  100068:	fa                   	cli    
  100069:	6a 00                	push   0x0
  10006b:	6a 04                	push   0x4
  10006d:	e9 d9 00 00 00       	jmp    10014b <temp_exception_handler>

00100072 <_exception5>:
  100072:	fa                   	cli    
  100073:	6a 00                	push   0x0
  100075:	6a 05                	push   0x5
  100077:	e9 cf 00 00 00       	jmp    10014b <temp_exception_handler>

0010007c <_exception6>:
  10007c:	fa                   	cli    
  10007d:	6a 00                	push   0x0
  10007f:	6a 06                	push   0x6
  100081:	e9 c5 00 00 00       	jmp    10014b <temp_exception_handler>

00100086 <_exception7>:
  100086:	fa                   	cli    
  100087:	6a 00                	push   0x0
  100089:	6a 07                	push   0x7
  10008b:	e9 bb 00 00 00       	jmp    10014b <temp_exception_handler>

00100090 <_exception8>:
  100090:	fa                   	cli    
  100091:	6a 08                	push   0x8
  100093:	e9 b3 00 00 00       	jmp    10014b <temp_exception_handler>

00100098 <_exception9>:
  100098:	fa                   	cli    
  100099:	6a 00                	push   0x0
  10009b:	6a 09                	push   0x9
  10009d:	e9 a9 00 00 00       	jmp    10014b <temp_exception_handler>

001000a2 <_exception10>:
  1000a2:	fa                   	cli    
  1000a3:	6a 0a                	push   0xa
  1000a5:	e9 a1 00 00 00       	jmp    10014b <temp_exception_handler>

001000aa <_exception11>:
  1000aa:	fa                   	cli    
  1000ab:	6a 0b                	push   0xb
  1000ad:	e9 99 00 00 00       	jmp    10014b <temp_exception_handler>

001000b2 <_exception12>:
  1000b2:	fa                   	cli    
  1000b3:	6a 0c                	push   0xc
  1000b5:	e9 91 00 00 00       	jmp    10014b <temp_exception_handler>

001000ba <_exception13>:
  1000ba:	fa                   	cli    
  1000bb:	6a 0d                	push   0xd
  1000bd:	e9 89 00 00 00       	jmp    10014b <temp_exception_handler>

001000c2 <_exception14>:
  1000c2:	fa                   	cli    
  1000c3:	6a 0e                	push   0xe
  1000c5:	e9 81 00 00 00       	jmp    10014b <temp_exception_handler>

001000ca <_exception15>:
  1000ca:	fa                   	cli    
  1000cb:	6a 00                	push   0x0
  1000cd:	6a 0f                	push   0xf
  1000cf:	eb 7a                	jmp    10014b <temp_exception_handler>

001000d1 <_exception16>:
  1000d1:	fa                   	cli    
  1000d2:	6a 00                	push   0x0
  1000d4:	6a 10                	push   0x10
  1000d6:	eb 73                	jmp    10014b <temp_exception_handler>

001000d8 <_exception17>:
  1000d8:	fa                   	cli    
  1000d9:	6a 00                	push   0x0
  1000db:	6a 11                	push   0x11
  1000dd:	eb 6c                	jmp    10014b <temp_exception_handler>

001000df <_exception18>:
  1000df:	fa                   	cli    
  1000e0:	6a 00                	push   0x0
  1000e2:	6a 12                	push   0x12
  1000e4:	eb 65                	jmp    10014b <temp_exception_handler>

001000e6 <_exception19>:
  1000e6:	fa                   	cli    
  1000e7:	6a 00                	push   0x0
  1000e9:	6a 13                	push   0x13
  1000eb:	eb 5e                	jmp    10014b <temp_exception_handler>

001000ed <_exception20>:
  1000ed:	fa                   	cli    
  1000ee:	6a 00                	push   0x0
  1000f0:	6a 14                	push   0x14
  1000f2:	eb 57                	jmp    10014b <temp_exception_handler>

001000f4 <_exception21>:
  1000f4:	fa                   	cli    
  1000f5:	6a 00                	push   0x0
  1000f7:	6a 15                	push   0x15
  1000f9:	eb 50                	jmp    10014b <temp_exception_handler>

001000fb <_exception22>:
  1000fb:	fa                   	cli    
  1000fc:	6a 00                	push   0x0
  1000fe:	6a 16                	push   0x16
  100100:	eb 49                	jmp    10014b <temp_exception_handler>

00100102 <_exception23>:
  100102:	fa                   	cli    
  100103:	6a 00                	push   0x0
  100105:	6a 17                	push   0x17
  100107:	eb 42                	jmp    10014b <temp_exception_handler>

00100109 <_exception24>:
  100109:	fa                   	cli    
  10010a:	6a 00                	push   0x0
  10010c:	6a 18                	push   0x18
  10010e:	eb 3b                	jmp    10014b <temp_exception_handler>

00100110 <_exception25>:
  100110:	fa                   	cli    
  100111:	6a 00                	push   0x0
  100113:	6a 19                	push   0x19
  100115:	eb 34                	jmp    10014b <temp_exception_handler>

00100117 <_exception26>:
  100117:	fa                   	cli    
  100118:	6a 00                	push   0x0
  10011a:	6a 1a                	push   0x1a
  10011c:	eb 2d                	jmp    10014b <temp_exception_handler>

0010011e <_exception27>:
  10011e:	fa                   	cli    
  10011f:	6a 00                	push   0x0
  100121:	6a 1b                	push   0x1b
  100123:	eb 26                	jmp    10014b <temp_exception_handler>

00100125 <_exception28>:
  100125:	fa                   	cli    
  100126:	6a 00                	push   0x0
  100128:	6a 1c                	push   0x1c
  10012a:	eb 1f                	jmp    10014b <temp_exception_handler>

0010012c <_exception29>:
  10012c:	fa                   	cli    
  10012d:	6a 00                	push   0x0
  10012f:	6a 1d                	push   0x1d
  100131:	eb 18                	jmp    10014b <temp_exception_handler>

00100133 <_exception30>:
  100133:	fa                   	cli    
  100134:	6a 00                	push   0x0
  100136:	6a 1e                	push   0x1e
  100138:	eb 11                	jmp    10014b <temp_exception_handler>

0010013a <_exception31>:
  10013a:	fa                   	cli    
  10013b:	6a 00                	push   0x0
  10013d:	6a 1f                	push   0x1f
  10013f:	eb 0a                	jmp    10014b <temp_exception_handler>

00100141 <_exception128>:
  100141:	fa                   	cli    
  100142:	6a 00                	push   0x0
  100144:	68 80 00 00 00       	push   0x80
  100149:	eb 00                	jmp    10014b <temp_exception_handler>

0010014b <temp_exception_handler>:
  10014b:	60                   	pusha  
  10014c:	66 8c d8             	mov    ax,ds
  10014f:	50                   	push   eax
  100150:	66 b8 10 00          	mov    ax,0x10
  100154:	8e d8                	mov    ds,eax
  100156:	8e c0                	mov    es,eax
  100158:	8e e0                	mov    fs,eax
  10015a:	8e e8                	mov    gs,eax
  10015c:	e8 a1 1e 00 00       	call   102002 <_final_exception_handler>
  100161:	5b                   	pop    ebx
  100162:	8e db                	mov    ds,ebx
  100164:	8e c3                	mov    es,ebx
  100166:	8e e3                	mov    fs,ebx
  100168:	8e eb                	mov    gs,ebx
  10016a:	61                   	popa   
  10016b:	83 c4 08             	add    esp,0x8
  10016e:	fb                   	sti    
  10016f:	cf                   	iret   

00100170 <_irq0>:
  100170:	fa                   	cli    
  100171:	6a 00                	push   0x0
  100173:	6a 20                	push   0x20
  100175:	eb 69                	jmp    1001e0 <temp_irq_handler>

00100177 <_irq1>:
  100177:	fa                   	cli    
  100178:	6a 00                	push   0x0
  10017a:	6a 21                	push   0x21
  10017c:	eb 62                	jmp    1001e0 <temp_irq_handler>

0010017e <_irq2>:
  10017e:	fa                   	cli    
  10017f:	6a 00                	push   0x0
  100181:	6a 22                	push   0x22
  100183:	eb 5b                	jmp    1001e0 <temp_irq_handler>

00100185 <_irq3>:
  100185:	fa                   	cli    
  100186:	6a 00                	push   0x0
  100188:	6a 23                	push   0x23
  10018a:	eb 54                	jmp    1001e0 <temp_irq_handler>

0010018c <_irq4>:
  10018c:	fa                   	cli    
  10018d:	6a 00                	push   0x0
  10018f:	6a 24                	push   0x24
  100191:	eb 4d                	jmp    1001e0 <temp_irq_handler>

00100193 <_irq5>:
  100193:	fa                   	cli    
  100194:	6a 00                	push   0x0
  100196:	6a 25                	push   0x25
  100198:	eb 46                	jmp    1001e0 <temp_irq_handler>

0010019a <_irq6>:
  10019a:	fa                   	cli    
  10019b:	6a 00                	push   0x0
  10019d:	6a 26                	push   0x26
  10019f:	eb 3f                	jmp    1001e0 <temp_irq_handler>

001001a1 <_irq7>:
  1001a1:	fa                   	cli    
  1001a2:	6a 00                	push   0x0
  1001a4:	6a 27                	push   0x27
  1001a6:	eb 38                	jmp    1001e0 <temp_irq_handler>

001001a8 <_irq8>:
  1001a8:	fa                   	cli    
  1001a9:	6a 00                	push   0x0
  1001ab:	6a 28                	push   0x28
  1001ad:	eb 31                	jmp    1001e0 <temp_irq_handler>

001001af <_irq9>:
  1001af:	fa                   	cli    
  1001b0:	6a 00                	push   0x0
  1001b2:	6a 29                	push   0x29
  1001b4:	eb 2a                	jmp    1001e0 <temp_irq_handler>

001001b6 <_irq10>:
  1001b6:	fa                   	cli    
  1001b7:	6a 00                	push   0x0
  1001b9:	6a 2a                	push   0x2a
  1001bb:	eb 23                	jmp    1001e0 <temp_irq_handler>

001001bd <_irq11>:
  1001bd:	fa                   	cli    
  1001be:	6a 00                	push   0x0
  1001c0:	6a 2b                	push   0x2b
  1001c2:	eb 1c                	jmp    1001e0 <temp_irq_handler>

001001c4 <_irq12>:
  1001c4:	fa                   	cli    
  1001c5:	6a 00                	push   0x0
  1001c7:	6a 2c                	push   0x2c
  1001c9:	eb 15                	jmp    1001e0 <temp_irq_handler>

001001cb <_irq13>:
  1001cb:	fa                   	cli    
  1001cc:	6a 00                	push   0x0
  1001ce:	6a 2d                	push   0x2d
  1001d0:	eb 0e                	jmp    1001e0 <temp_irq_handler>

001001d2 <_irq14>:
  1001d2:	fa                   	cli    
  1001d3:	6a 00                	push   0x0
  1001d5:	6a 2e                	push   0x2e
  1001d7:	eb 07                	jmp    1001e0 <temp_irq_handler>

001001d9 <_irq15>:
  1001d9:	fa                   	cli    
  1001da:	6a 00                	push   0x0
  1001dc:	6a 2f                	push   0x2f
  1001de:	eb 00                	jmp    1001e0 <temp_irq_handler>

001001e0 <temp_irq_handler>:
  1001e0:	60                   	pusha  
  1001e1:	66 8c d8             	mov    ax,ds
  1001e4:	50                   	push   eax
  1001e5:	66 b8 10 00          	mov    ax,0x10
  1001e9:	8e d8                	mov    ds,eax
  1001eb:	8e c0                	mov    es,eax
  1001ed:	8e e0                	mov    fs,eax
  1001ef:	8e e8                	mov    gs,eax
  1001f1:	54                   	push   esp
  1001f2:	e8 6c 1e 00 00       	call   102063 <_final_irq_handler>
  1001f7:	5c                   	pop    esp
  1001f8:	5b                   	pop    ebx
  1001f9:	8e db                	mov    ds,ebx
  1001fb:	8e c3                	mov    es,ebx
  1001fd:	8e e3                	mov    fs,ebx
  1001ff:	8e eb                	mov    gs,ebx
  100201:	61                   	popa   
  100202:	83 c4 08             	add    esp,0x8
  100205:	fb                   	sti    
  100206:	cf                   	iret   
  100207:	66 90                	xchg   ax,ax
  100209:	66 90                	xchg   ax,ax
  10020b:	66 90                	xchg   ax,ax
  10020d:	66 90                	xchg   ax,ax
  10020f:	90                   	nop

00100210 <_loadPageDirectory>:
  100210:	55                   	push   ebp
  100211:	89 e5                	mov    ebp,esp
  100213:	8b 44 24 08          	mov    eax,DWORD PTR [esp+0x8]
  100217:	0f 22 d8             	mov    cr3,eax
  10021a:	89 ec                	mov    esp,ebp
  10021c:	5d                   	pop    ebp
  10021d:	c3                   	ret    

0010021e <_enablePaging>:
  10021e:	55                   	push   ebp
  10021f:	89 e5                	mov    ebp,esp
  100221:	0f 20 c0             	mov    eax,cr0
  100224:	0d 00 00 00 80       	or     eax,0x80000000
  100229:	0f 22 c0             	mov    cr0,eax
  10022c:	89 ec                	mov    esp,ebp
  10022e:	5d                   	pop    ebp
  10022f:	c3                   	ret    

00100230 <_kernel_main>:
  100230:	83 ec 2c             	sub    esp,0x2c
  100233:	e8 3e 02 00 00       	call   100476 <_InitializeVideo>
  100238:	e8 6b 03 00 00       	call   1005a8 <_clrscr>
  10023d:	e8 85 20 00 00       	call   1022c7 <_detectHardware>
  100242:	c7 44 24 04 00 30 10 	mov    DWORD PTR [esp+0x4],0x103000
  100249:	00 
  10024a:	c7 04 24 0b 30 10 00 	mov    DWORD PTR [esp],0x10300b
  100251:	e8 a0 12 00 00       	call   1014f6 <_kprintf>
  100256:	c7 04 24 25 30 10 00 	mov    DWORD PTR [esp],0x103025
  10025d:	e8 94 12 00 00       	call   1014f6 <_kprintf>
  100262:	e8 7e 13 00 00       	call   1015e5 <_gdt_init>
  100267:	e8 3d 16 00 00       	call   1018a9 <_idt_init>
  10026c:	c7 44 24 08 00 00 00 	mov    DWORD PTR [esp+0x8],0x0
  100273:	00 
  100274:	c7 44 24 04 10 00 00 	mov    DWORD PTR [esp+0x4],0x10
  10027b:	00 
  10027c:	c7 04 24 05 00 00 00 	mov    DWORD PTR [esp],0x5
  100283:	e8 28 1e 00 00       	call   1020b0 <_tss_init>
  100288:	c7 04 24 44 30 10 00 	mov    DWORD PTR [esp],0x103044
  10028f:	e8 62 12 00 00       	call   1014f6 <_kprintf>
  100294:	c7 04 24 00 00 80 44 	mov    DWORD PTR [esp],0x44800000
  10029b:	e8 34 20 00 00       	call   1022d4 <_pmm_init>
  1002a0:	c7 04 24 64 30 10 00 	mov    DWORD PTR [esp],0x103064
  1002a7:	e8 4a 12 00 00       	call   1014f6 <_kprintf>
  1002ac:	c7 44 24 1c 00 00 00 	mov    DWORD PTR [esp+0x1c],0x0
  1002b3:	00 
  1002b4:	eb 14                	jmp    1002ca <_kernel_main+0x9a>
  1002b6:	8b 44 24 1c          	mov    eax,DWORD PTR [esp+0x1c]
  1002ba:	c7 04 85 00 60 10 00 	mov    DWORD PTR [eax*4+0x106000],0x2
  1002c1:	02 00 00 00 
  1002c5:	83 44 24 1c 01       	add    DWORD PTR [esp+0x1c],0x1
  1002ca:	81 7c 24 1c ff 03 00 	cmp    DWORD PTR [esp+0x1c],0x3ff
  1002d1:	00 
  1002d2:	7e e2                	jle    1002b6 <_kernel_main+0x86>
  1002d4:	c7 44 24 1c 00 00 00 	mov    DWORD PTR [esp+0x1c],0x0
  1002db:	00 
  1002dc:	eb 1c                	jmp    1002fa <_kernel_main+0xca>
  1002de:	8b 44 24 1c          	mov    eax,DWORD PTR [esp+0x1c]
  1002e2:	c1 e0 0c             	shl    eax,0xc
  1002e5:	83 c8 03             	or     eax,0x3
  1002e8:	89 c2                	mov    edx,eax
  1002ea:	8b 44 24 1c          	mov    eax,DWORD PTR [esp+0x1c]
  1002ee:	89 14 85 00 70 10 00 	mov    DWORD PTR [eax*4+0x107000],edx
  1002f5:	83 44 24 1c 01       	add    DWORD PTR [esp+0x1c],0x1
  1002fa:	81 7c 24 1c ff 03 00 	cmp    DWORD PTR [esp+0x1c],0x3ff
  100301:	00 
  100302:	7e da                	jle    1002de <_kernel_main+0xae>
  100304:	b8 00 70 10 00       	mov    eax,0x107000
  100309:	83 c8 03             	or     eax,0x3
  10030c:	a3 00 60 10 00       	mov    ds:0x106000,eax
  100311:	c7 04 24 00 60 10 00 	mov    DWORD PTR [esp],0x106000
  100318:	e8 f3 fe ff ff       	call   100210 <_loadPageDirectory>
  10031d:	e8 fc fe ff ff       	call   10021e <_enablePaging>
  100322:	c7 04 24 89 30 10 00 	mov    DWORD PTR [esp],0x103089
  100329:	e8 c8 11 00 00       	call   1014f6 <_kprintf>
  10032e:	90                   	nop
  10032f:	83 c4 2c             	add    esp,0x2c
  100332:	c3                   	ret    
  100333:	90                   	nop

00100334 <_get_offset>:
  100334:	8b 54 24 08          	mov    edx,DWORD PTR [esp+0x8]
  100338:	89 d0                	mov    eax,edx
  10033a:	c1 e0 02             	shl    eax,0x2
  10033d:	01 d0                	add    eax,edx
  10033f:	c1 e0 04             	shl    eax,0x4
  100342:	89 c2                	mov    edx,eax
  100344:	8b 44 24 04          	mov    eax,DWORD PTR [esp+0x4]
  100348:	01 d0                	add    eax,edx
  10034a:	01 c0                	add    eax,eax
  10034c:	c3                   	ret    

0010034d <_get_cursor_offset>:
  10034d:	83 ec 2c             	sub    esp,0x2c
  100350:	c7 44 24 04 0e 00 00 	mov    DWORD PTR [esp+0x4],0xe
  100357:	00 
  100358:	c7 04 24 d4 03 00 00 	mov    DWORD PTR [esp],0x3d4
  10035f:	e8 fb 02 00 00       	call   10065f <_port_byte_out>
  100364:	c7 04 24 d5 03 00 00 	mov    DWORD PTR [esp],0x3d5
  10036b:	e8 d0 02 00 00       	call   100640 <_port_byte_in>
  100370:	0f b6 c0             	movzx  eax,al
  100373:	c1 e0 08             	shl    eax,0x8
  100376:	89 44 24 1c          	mov    DWORD PTR [esp+0x1c],eax
  10037a:	c7 44 24 04 0f 00 00 	mov    DWORD PTR [esp+0x4],0xf
  100381:	00 
  100382:	c7 04 24 d4 03 00 00 	mov    DWORD PTR [esp],0x3d4
  100389:	e8 d1 02 00 00       	call   10065f <_port_byte_out>
  10038e:	c7 04 24 d5 03 00 00 	mov    DWORD PTR [esp],0x3d5
  100395:	e8 a6 02 00 00       	call   100640 <_port_byte_in>
  10039a:	0f b6 c0             	movzx  eax,al
  10039d:	01 44 24 1c          	add    DWORD PTR [esp+0x1c],eax
  1003a1:	8b 44 24 1c          	mov    eax,DWORD PTR [esp+0x1c]
  1003a5:	01 c0                	add    eax,eax
  1003a7:	83 c4 2c             	add    esp,0x2c
  1003aa:	c3                   	ret    

001003ab <_set_cursor_offset>:
  1003ab:	83 ec 1c             	sub    esp,0x1c
  1003ae:	8b 44 24 20          	mov    eax,DWORD PTR [esp+0x20]
  1003b2:	89 c2                	mov    edx,eax
  1003b4:	c1 ea 1f             	shr    edx,0x1f
  1003b7:	01 d0                	add    eax,edx
  1003b9:	d1 f8                	sar    eax,1
  1003bb:	89 44 24 20          	mov    DWORD PTR [esp+0x20],eax
  1003bf:	c7 44 24 04 0e 00 00 	mov    DWORD PTR [esp+0x4],0xe
  1003c6:	00 
  1003c7:	c7 04 24 d4 03 00 00 	mov    DWORD PTR [esp],0x3d4
  1003ce:	e8 8c 02 00 00       	call   10065f <_port_byte_out>
  1003d3:	8b 44 24 20          	mov    eax,DWORD PTR [esp+0x20]
  1003d7:	c1 f8 08             	sar    eax,0x8
  1003da:	0f b6 c0             	movzx  eax,al
  1003dd:	89 44 24 04          	mov    DWORD PTR [esp+0x4],eax
  1003e1:	c7 04 24 d5 03 00 00 	mov    DWORD PTR [esp],0x3d5
  1003e8:	e8 72 02 00 00       	call   10065f <_port_byte_out>
  1003ed:	c7 44 24 04 0f 00 00 	mov    DWORD PTR [esp+0x4],0xf
  1003f4:	00 
  1003f5:	c7 04 24 d4 03 00 00 	mov    DWORD PTR [esp],0x3d4
  1003fc:	e8 5e 02 00 00       	call   10065f <_port_byte_out>
  100401:	8b 44 24 20          	mov    eax,DWORD PTR [esp+0x20]
  100405:	0f b6 c0             	movzx  eax,al
  100408:	89 44 24 04          	mov    DWORD PTR [esp+0x4],eax
  10040c:	c7 04 24 d5 03 00 00 	mov    DWORD PTR [esp],0x3d5
  100413:	e8 47 02 00 00       	call   10065f <_port_byte_out>
  100418:	90                   	nop
  100419:	83 c4 1c             	add    esp,0x1c
  10041c:	c3                   	ret    

0010041d <_make_color>:
  10041d:	83 ec 08             	sub    esp,0x8
  100420:	8b 54 24 0c          	mov    edx,DWORD PTR [esp+0xc]
  100424:	8b 44 24 10          	mov    eax,DWORD PTR [esp+0x10]
  100428:	88 54 24 04          	mov    BYTE PTR [esp+0x4],dl
  10042c:	88 04 24             	mov    BYTE PTR [esp],al
  10042f:	0f be 04 24          	movsx  eax,BYTE PTR [esp]
  100433:	c1 e0 04             	shl    eax,0x4
  100436:	0a 44 24 04          	or     al,BYTE PTR [esp+0x4]
  10043a:	83 c4 08             	add    esp,0x8
  10043d:	c3                   	ret    

0010043e <_make_vgaentry>:
  10043e:	83 ec 18             	sub    esp,0x18
  100441:	8b 54 24 1c          	mov    edx,DWORD PTR [esp+0x1c]
  100445:	8b 44 24 20          	mov    eax,DWORD PTR [esp+0x20]
  100449:	88 54 24 04          	mov    BYTE PTR [esp+0x4],dl
  10044d:	88 04 24             	mov    BYTE PTR [esp],al
  100450:	66 0f be 44 24 04    	movsx  ax,BYTE PTR [esp+0x4]
  100456:	66 89 44 24 16       	mov    WORD PTR [esp+0x16],ax
  10045b:	66 0f be 04 24       	movsx  ax,BYTE PTR [esp]
  100460:	66 89 44 24 14       	mov    WORD PTR [esp+0x14],ax
  100465:	0f bf 44 24 14       	movsx  eax,WORD PTR [esp+0x14]
  10046a:	c1 e0 08             	shl    eax,0x8
  10046d:	66 0b 44 24 16       	or     ax,WORD PTR [esp+0x16]
  100472:	83 c4 18             	add    esp,0x18
  100475:	c3                   	ret    

00100476 <_InitializeVideo>:
  100476:	83 ec 08             	sub    esp,0x8
  100479:	c7 05 04 80 10 00 00 	mov    DWORD PTR ds:0x108004,0xb8000
  100480:	80 0b 00 
  100483:	c7 44 24 04 00 00 00 	mov    DWORD PTR [esp+0x4],0x0
  10048a:	00 
  10048b:	c7 04 24 0f 00 00 00 	mov    DWORD PTR [esp],0xf
  100492:	e8 86 ff ff ff       	call   10041d <_make_color>
  100497:	a2 08 80 10 00       	mov    ds:0x108008,al
  10049c:	c6 05 01 80 10 00 00 	mov    BYTE PTR ds:0x108001,0x0
  1004a3:	c6 05 00 80 10 00 00 	mov    BYTE PTR ds:0x108000,0x0
  1004aa:	90                   	nop
  1004ab:	83 c4 08             	add    esp,0x8
  1004ae:	c3                   	ret    

001004af <_putc>:
  1004af:	83 ec 3c             	sub    esp,0x3c
  1004b2:	8b 44 24 40          	mov    eax,DWORD PTR [esp+0x40]
  1004b6:	88 44 24 1c          	mov    BYTE PTR [esp+0x1c],al
  1004ba:	80 7c 24 1c 0a       	cmp    BYTE PTR [esp+0x1c],0xa
  1004bf:	75 18                	jne    1004d9 <_putc+0x2a>
  1004c1:	c6 05 01 80 10 00 00 	mov    BYTE PTR ds:0x108001,0x0
  1004c8:	0f b6 05 00 80 10 00 	movzx  eax,BYTE PTR ds:0x108000
  1004cf:	83 c0 01             	add    eax,0x1
  1004d2:	a2 00 80 10 00       	mov    ds:0x108000,al
  1004d7:	eb 61                	jmp    10053a <_putc+0x8b>
  1004d9:	0f b6 05 00 80 10 00 	movzx  eax,BYTE PTR ds:0x108000
  1004e0:	0f b6 d0             	movzx  edx,al
  1004e3:	89 d0                	mov    eax,edx
  1004e5:	c1 e0 02             	shl    eax,0x2
  1004e8:	01 d0                	add    eax,edx
  1004ea:	c1 e0 04             	shl    eax,0x4
  1004ed:	89 c2                	mov    edx,eax
  1004ef:	0f b6 05 01 80 10 00 	movzx  eax,BYTE PTR ds:0x108001
  1004f6:	0f b6 c0             	movzx  eax,al
  1004f9:	01 d0                	add    eax,edx
  1004fb:	89 44 24 2c          	mov    DWORD PTR [esp+0x2c],eax
  1004ff:	0f b6 05 08 80 10 00 	movzx  eax,BYTE PTR ds:0x108008
  100506:	0f be d0             	movsx  edx,al
  100509:	0f be 44 24 1c       	movsx  eax,BYTE PTR [esp+0x1c]
  10050e:	89 54 24 04          	mov    DWORD PTR [esp+0x4],edx
  100512:	89 04 24             	mov    DWORD PTR [esp],eax
  100515:	e8 24 ff ff ff       	call   10043e <_make_vgaentry>
  10051a:	8b 15 04 80 10 00    	mov    edx,DWORD PTR ds:0x108004
  100520:	8b 4c 24 2c          	mov    ecx,DWORD PTR [esp+0x2c]
  100524:	01 c9                	add    ecx,ecx
  100526:	01 ca                	add    edx,ecx
  100528:	66 89 02             	mov    WORD PTR [edx],ax
  10052b:	0f b6 05 01 80 10 00 	movzx  eax,BYTE PTR ds:0x108001
  100532:	83 c0 01             	add    eax,0x1
  100535:	a2 01 80 10 00       	mov    ds:0x108001,al
  10053a:	0f b6 05 00 80 10 00 	movzx  eax,BYTE PTR ds:0x108000
  100541:	0f b6 d0             	movzx  edx,al
  100544:	0f b6 05 01 80 10 00 	movzx  eax,BYTE PTR ds:0x108001
  10054b:	0f b6 c0             	movzx  eax,al
  10054e:	89 54 24 04          	mov    DWORD PTR [esp+0x4],edx
  100552:	89 04 24             	mov    DWORD PTR [esp],eax
  100555:	e8 da fd ff ff       	call   100334 <_get_offset>
  10055a:	89 04 24             	mov    DWORD PTR [esp],eax
  10055d:	e8 49 fe ff ff       	call   1003ab <_set_cursor_offset>
  100562:	90                   	nop
  100563:	83 c4 3c             	add    esp,0x3c
  100566:	c3                   	ret    

00100567 <_kprint>:
  100567:	83 ec 2c             	sub    esp,0x2c
  10056a:	c7 44 24 1c 00 00 00 	mov    DWORD PTR [esp+0x1c],0x0
  100571:	00 
  100572:	eb 1d                	jmp    100591 <_kprint+0x2a>
  100574:	8b 54 24 1c          	mov    edx,DWORD PTR [esp+0x1c]
  100578:	8b 44 24 30          	mov    eax,DWORD PTR [esp+0x30]
  10057c:	01 d0                	add    eax,edx
  10057e:	0f b6 00             	movzx  eax,BYTE PTR [eax]
  100581:	0f be c0             	movsx  eax,al
  100584:	89 04 24             	mov    DWORD PTR [esp],eax
  100587:	e8 23 ff ff ff       	call   1004af <_putc>
  10058c:	83 44 24 1c 01       	add    DWORD PTR [esp+0x1c],0x1
  100591:	8b 44 24 30          	mov    eax,DWORD PTR [esp+0x30]
  100595:	89 04 24             	mov    DWORD PTR [esp],eax
  100598:	e8 ef 01 00 00       	call   10078c <_strlen>
  10059d:	39 44 24 1c          	cmp    DWORD PTR [esp+0x1c],eax
  1005a1:	7c d1                	jl     100574 <_kprint+0xd>
  1005a3:	90                   	nop
  1005a4:	83 c4 2c             	add    esp,0x2c
  1005a7:	c3                   	ret    

001005a8 <_clrscr>:
  1005a8:	83 ec 2c             	sub    esp,0x2c
  1005ab:	c7 44 24 1c 00 00 00 	mov    DWORD PTR [esp+0x1c],0x0
  1005b2:	00 
  1005b3:	eb 60                	jmp    100615 <_clrscr+0x6d>
  1005b5:	c7 44 24 18 00 00 00 	mov    DWORD PTR [esp+0x18],0x0
  1005bc:	00 
  1005bd:	eb 4a                	jmp    100609 <_clrscr+0x61>
  1005bf:	8b 54 24 1c          	mov    edx,DWORD PTR [esp+0x1c]
  1005c3:	89 d0                	mov    eax,edx
  1005c5:	c1 e0 02             	shl    eax,0x2
  1005c8:	01 d0                	add    eax,edx
  1005ca:	c1 e0 04             	shl    eax,0x4
  1005cd:	89 c2                	mov    edx,eax
  1005cf:	8b 44 24 18          	mov    eax,DWORD PTR [esp+0x18]
  1005d3:	01 d0                	add    eax,edx
  1005d5:	89 44 24 14          	mov    DWORD PTR [esp+0x14],eax
  1005d9:	0f b6 05 08 80 10 00 	movzx  eax,BYTE PTR ds:0x108008
  1005e0:	0f be c0             	movsx  eax,al
  1005e3:	89 44 24 04          	mov    DWORD PTR [esp+0x4],eax
  1005e7:	c7 04 24 20 00 00 00 	mov    DWORD PTR [esp],0x20
  1005ee:	e8 4b fe ff ff       	call   10043e <_make_vgaentry>
  1005f3:	8b 15 04 80 10 00    	mov    edx,DWORD PTR ds:0x108004
  1005f9:	8b 4c 24 14          	mov    ecx,DWORD PTR [esp+0x14]
  1005fd:	01 c9                	add    ecx,ecx
  1005ff:	01 ca                	add    edx,ecx
  100601:	66 89 02             	mov    WORD PTR [edx],ax
  100604:	83 44 24 18 01       	add    DWORD PTR [esp+0x18],0x1
  100609:	83 7c 24 18 4f       	cmp    DWORD PTR [esp+0x18],0x4f
  10060e:	7e af                	jle    1005bf <_clrscr+0x17>
  100610:	83 44 24 1c 01       	add    DWORD PTR [esp+0x1c],0x1
  100615:	83 7c 24 1c 18       	cmp    DWORD PTR [esp+0x1c],0x18
  10061a:	7e 99                	jle    1005b5 <_clrscr+0xd>
  10061c:	c7 44 24 04 00 00 00 	mov    DWORD PTR [esp+0x4],0x0
  100623:	00 
  100624:	c7 04 24 00 00 00 00 	mov    DWORD PTR [esp],0x0
  10062b:	e8 04 fd ff ff       	call   100334 <_get_offset>
  100630:	89 04 24             	mov    DWORD PTR [esp],eax
  100633:	e8 73 fd ff ff       	call   1003ab <_set_cursor_offset>
  100638:	90                   	nop
  100639:	83 c4 2c             	add    esp,0x2c
  10063c:	c3                   	ret    
  10063d:	90                   	nop
  10063e:	90                   	nop
  10063f:	90                   	nop

00100640 <_port_byte_in>:
  100640:	83 ec 14             	sub    esp,0x14
  100643:	8b 44 24 18          	mov    eax,DWORD PTR [esp+0x18]
  100647:	66 89 04 24          	mov    WORD PTR [esp],ax
  10064b:	0f b7 04 24          	movzx  eax,WORD PTR [esp]
  10064f:	89 c2                	mov    edx,eax
  100651:	ec                   	in     al,dx
  100652:	88 44 24 13          	mov    BYTE PTR [esp+0x13],al
  100656:	0f b6 44 24 13       	movzx  eax,BYTE PTR [esp+0x13]
  10065b:	83 c4 14             	add    esp,0x14
  10065e:	c3                   	ret    

0010065f <_port_byte_out>:
  10065f:	83 ec 08             	sub    esp,0x8
  100662:	8b 44 24 0c          	mov    eax,DWORD PTR [esp+0xc]
  100666:	8b 54 24 10          	mov    edx,DWORD PTR [esp+0x10]
  10066a:	66 89 44 24 04       	mov    WORD PTR [esp+0x4],ax
  10066f:	89 d0                	mov    eax,edx
  100671:	88 04 24             	mov    BYTE PTR [esp],al
  100674:	0f b6 04 24          	movzx  eax,BYTE PTR [esp]
  100678:	0f b7 54 24 04       	movzx  edx,WORD PTR [esp+0x4]
  10067d:	ee                   	out    dx,al
  10067e:	90                   	nop
  10067f:	83 c4 08             	add    esp,0x8
  100682:	c3                   	ret    

00100683 <_port_word_in>:
  100683:	83 ec 14             	sub    esp,0x14
  100686:	8b 44 24 18          	mov    eax,DWORD PTR [esp+0x18]
  10068a:	66 89 04 24          	mov    WORD PTR [esp],ax
  10068e:	0f b7 04 24          	movzx  eax,WORD PTR [esp]
  100692:	89 c2                	mov    edx,eax
  100694:	66 ed                	in     ax,dx
  100696:	66 89 44 24 12       	mov    WORD PTR [esp+0x12],ax
  10069b:	0f b7 44 24 12       	movzx  eax,WORD PTR [esp+0x12]
  1006a0:	83 c4 14             	add    esp,0x14
  1006a3:	c3                   	ret    

001006a4 <_port_word_out>:
  1006a4:	83 ec 08             	sub    esp,0x8
  1006a7:	8b 54 24 0c          	mov    edx,DWORD PTR [esp+0xc]
  1006ab:	8b 44 24 10          	mov    eax,DWORD PTR [esp+0x10]
  1006af:	66 89 54 24 04       	mov    WORD PTR [esp+0x4],dx
  1006b4:	66 89 04 24          	mov    WORD PTR [esp],ax
  1006b8:	0f b7 04 24          	movzx  eax,WORD PTR [esp]
  1006bc:	0f b7 54 24 04       	movzx  edx,WORD PTR [esp+0x4]
  1006c1:	66 ef                	out    dx,ax
  1006c3:	90                   	nop
  1006c4:	83 c4 08             	add    esp,0x8
  1006c7:	c3                   	ret    

001006c8 <_memcmp>:
  1006c8:	eb 22                	jmp    1006ec <_memcmp+0x24>
  1006ca:	8b 44 24 04          	mov    eax,DWORD PTR [esp+0x4]
  1006ce:	0f b6 10             	movzx  edx,BYTE PTR [eax]
  1006d1:	8b 44 24 08          	mov    eax,DWORD PTR [esp+0x8]
  1006d5:	0f b6 00             	movzx  eax,BYTE PTR [eax]
  1006d8:	38 c2                	cmp    dl,al
  1006da:	74 06                	je     1006e2 <_memcmp+0x1a>
  1006dc:	b8 00 00 00 00       	mov    eax,0x0
  1006e1:	c3                   	ret    
  1006e2:	83 44 24 04 01       	add    DWORD PTR [esp+0x4],0x1
  1006e7:	83 44 24 08 01       	add    DWORD PTR [esp+0x8],0x1
  1006ec:	8b 44 24 0c          	mov    eax,DWORD PTR [esp+0xc]
  1006f0:	8d 50 ff             	lea    edx,[eax-0x1]
  1006f3:	89 54 24 0c          	mov    DWORD PTR [esp+0xc],edx
  1006f7:	85 c0                	test   eax,eax
  1006f9:	75 cf                	jne    1006ca <_memcmp+0x2>
  1006fb:	b8 01 00 00 00       	mov    eax,0x1
  100700:	c3                   	ret    

00100701 <_memcpy>:
  100701:	83 ec 10             	sub    esp,0x10
  100704:	8b 44 24 14          	mov    eax,DWORD PTR [esp+0x14]
  100708:	89 44 24 04          	mov    DWORD PTR [esp+0x4],eax
  10070c:	8b 44 24 14          	mov    eax,DWORD PTR [esp+0x14]
  100710:	89 44 24 0c          	mov    DWORD PTR [esp+0xc],eax
  100714:	8b 44 24 18          	mov    eax,DWORD PTR [esp+0x18]
  100718:	89 44 24 08          	mov    DWORD PTR [esp+0x8],eax
  10071c:	eb 1b                	jmp    100739 <_memcpy+0x38>
  10071e:	8b 54 24 08          	mov    edx,DWORD PTR [esp+0x8]
  100722:	8d 42 01             	lea    eax,[edx+0x1]
  100725:	89 44 24 08          	mov    DWORD PTR [esp+0x8],eax
  100729:	8b 44 24 0c          	mov    eax,DWORD PTR [esp+0xc]
  10072d:	8d 48 01             	lea    ecx,[eax+0x1]
  100730:	89 4c 24 0c          	mov    DWORD PTR [esp+0xc],ecx
  100734:	0f b6 12             	movzx  edx,BYTE PTR [edx]
  100737:	88 10                	mov    BYTE PTR [eax],dl
  100739:	8b 44 24 1c          	mov    eax,DWORD PTR [esp+0x1c]
  10073d:	8d 50 ff             	lea    edx,[eax-0x1]
  100740:	89 54 24 1c          	mov    DWORD PTR [esp+0x1c],edx
  100744:	85 c0                	test   eax,eax
  100746:	75 d6                	jne    10071e <_memcpy+0x1d>
  100748:	8b 44 24 04          	mov    eax,DWORD PTR [esp+0x4]
  10074c:	83 c4 10             	add    esp,0x10
  10074f:	c3                   	ret    

00100750 <_memset>:
  100750:	83 ec 14             	sub    esp,0x14
  100753:	8b 44 24 1c          	mov    eax,DWORD PTR [esp+0x1c]
  100757:	88 04 24             	mov    BYTE PTR [esp],al
  10075a:	8b 44 24 18          	mov    eax,DWORD PTR [esp+0x18]
  10075e:	89 44 24 10          	mov    DWORD PTR [esp+0x10],eax
  100762:	eb 16                	jmp    10077a <_memset+0x2a>
  100764:	8b 44 24 10          	mov    eax,DWORD PTR [esp+0x10]
  100768:	8d 50 01             	lea    edx,[eax+0x1]
  10076b:	89 54 24 10          	mov    DWORD PTR [esp+0x10],edx
  10076f:	0f b6 14 24          	movzx  edx,BYTE PTR [esp]
  100773:	88 10                	mov    BYTE PTR [eax],dl
  100775:	83 6c 24 20 01       	sub    DWORD PTR [esp+0x20],0x1
  10077a:	83 7c 24 20 00       	cmp    DWORD PTR [esp+0x20],0x0
  10077f:	75 e3                	jne    100764 <_memset+0x14>
  100781:	8b 44 24 18          	mov    eax,DWORD PTR [esp+0x18]
  100785:	83 c4 14             	add    esp,0x14
  100788:	c3                   	ret    
  100789:	90                   	nop
  10078a:	90                   	nop
  10078b:	90                   	nop

0010078c <_strlen>:
  10078c:	83 ec 10             	sub    esp,0x10
  10078f:	c7 44 24 0c 00 00 00 	mov    DWORD PTR [esp+0xc],0x0
  100796:	00 
  100797:	eb 05                	jmp    10079e <_strlen+0x12>
  100799:	83 44 24 0c 01       	add    DWORD PTR [esp+0xc],0x1
  10079e:	8b 44 24 14          	mov    eax,DWORD PTR [esp+0x14]
  1007a2:	8d 50 01             	lea    edx,[eax+0x1]
  1007a5:	89 54 24 14          	mov    DWORD PTR [esp+0x14],edx
  1007a9:	0f b6 00             	movzx  eax,BYTE PTR [eax]
  1007ac:	84 c0                	test   al,al
  1007ae:	75 e9                	jne    100799 <_strlen+0xd>
  1007b0:	8b 44 24 0c          	mov    eax,DWORD PTR [esp+0xc]
  1007b4:	83 c4 10             	add    esp,0x10
  1007b7:	c3                   	ret    

001007b8 <_strnlen>:
  1007b8:	83 ec 10             	sub    esp,0x10
  1007bb:	8b 44 24 14          	mov    eax,DWORD PTR [esp+0x14]
  1007bf:	89 44 24 0c          	mov    DWORD PTR [esp+0xc],eax
  1007c3:	eb 05                	jmp    1007ca <_strnlen+0x12>
  1007c5:	83 44 24 0c 01       	add    DWORD PTR [esp+0xc],0x1
  1007ca:	8b 44 24 18          	mov    eax,DWORD PTR [esp+0x18]
  1007ce:	8d 50 ff             	lea    edx,[eax-0x1]
  1007d1:	89 54 24 18          	mov    DWORD PTR [esp+0x18],edx
  1007d5:	85 c0                	test   eax,eax
  1007d7:	74 0b                	je     1007e4 <_strnlen+0x2c>
  1007d9:	8b 44 24 0c          	mov    eax,DWORD PTR [esp+0xc]
  1007dd:	0f b6 00             	movzx  eax,BYTE PTR [eax]
  1007e0:	84 c0                	test   al,al
  1007e2:	75 e1                	jne    1007c5 <_strnlen+0xd>
  1007e4:	8b 44 24 0c          	mov    eax,DWORD PTR [esp+0xc]
  1007e8:	2b 44 24 14          	sub    eax,DWORD PTR [esp+0x14]
  1007ec:	83 c4 10             	add    esp,0x10
  1007ef:	c3                   	ret    

001007f0 <_strncpy>:
  1007f0:	83 ec 10             	sub    esp,0x10
  1007f3:	83 7c 24 14 00       	cmp    DWORD PTR [esp+0x14],0x0
  1007f8:	74 07                	je     100801 <_strncpy+0x11>
  1007fa:	83 7c 24 18 00       	cmp    DWORD PTR [esp+0x18],0x0
  1007ff:	75 0e                	jne    10080f <_strncpy+0x1f>
  100801:	c7 44 24 14 00 00 00 	mov    DWORD PTR [esp+0x14],0x0
  100808:	00 
  100809:	8b 44 24 14          	mov    eax,DWORD PTR [esp+0x14]
  10080d:	eb 74                	jmp    100883 <_strncpy+0x93>
  10080f:	81 7c 24 1c ff 00 00 	cmp    DWORD PTR [esp+0x1c],0xff
  100816:	00 
  100817:	7e 08                	jle    100821 <_strncpy+0x31>
  100819:	c7 44 24 1c ff 00 00 	mov    DWORD PTR [esp+0x1c],0xff
  100820:	00 
  100821:	c7 44 24 0c 00 00 00 	mov    DWORD PTR [esp+0xc],0x0
  100828:	00 
  100829:	eb 2f                	jmp    10085a <_strncpy+0x6a>
  10082b:	8b 54 24 18          	mov    edx,DWORD PTR [esp+0x18]
  10082f:	8b 44 24 0c          	mov    eax,DWORD PTR [esp+0xc]
  100833:	01 d0                	add    eax,edx
  100835:	8b 4c 24 14          	mov    ecx,DWORD PTR [esp+0x14]
  100839:	8b 54 24 0c          	mov    edx,DWORD PTR [esp+0xc]
  10083d:	01 ca                	add    edx,ecx
  10083f:	0f b6 00             	movzx  eax,BYTE PTR [eax]
  100842:	88 02                	mov    BYTE PTR [edx],al
  100844:	8b 54 24 18          	mov    edx,DWORD PTR [esp+0x18]
  100848:	8b 44 24 0c          	mov    eax,DWORD PTR [esp+0xc]
  10084c:	01 d0                	add    eax,edx
  10084e:	0f b6 00             	movzx  eax,BYTE PTR [eax]
  100851:	84 c0                	test   al,al
  100853:	74 11                	je     100866 <_strncpy+0x76>
  100855:	83 44 24 0c 01       	add    DWORD PTR [esp+0xc],0x1
  10085a:	8b 44 24 0c          	mov    eax,DWORD PTR [esp+0xc]
  10085e:	39 44 24 1c          	cmp    DWORD PTR [esp+0x1c],eax
  100862:	7f c7                	jg     10082b <_strncpy+0x3b>
  100864:	eb 01                	jmp    100867 <_strncpy+0x77>
  100866:	90                   	nop
  100867:	81 7c 24 0c fe 00 00 	cmp    DWORD PTR [esp+0xc],0xfe
  10086e:	00 
  10086f:	76 0e                	jbe    10087f <_strncpy+0x8f>
  100871:	c7 44 24 14 00 00 00 	mov    DWORD PTR [esp+0x14],0x0
  100878:	00 
  100879:	8b 44 24 14          	mov    eax,DWORD PTR [esp+0x14]
  10087d:	eb 04                	jmp    100883 <_strncpy+0x93>
  10087f:	8b 44 24 14          	mov    eax,DWORD PTR [esp+0x14]
  100883:	83 c4 10             	add    esp,0x10
  100886:	c3                   	ret    

00100887 <_strcmp>:
  100887:	83 ec 10             	sub    esp,0x10
  10088a:	c7 44 24 0c 00 00 00 	mov    DWORD PTR [esp+0xc],0x0
  100891:	00 
  100892:	eb 21                	jmp    1008b5 <_strcmp+0x2e>
  100894:	8b 44 24 0c          	mov    eax,DWORD PTR [esp+0xc]
  100898:	8d 50 01             	lea    edx,[eax+0x1]
  10089b:	89 54 24 0c          	mov    DWORD PTR [esp+0xc],edx
  10089f:	89 c2                	mov    edx,eax
  1008a1:	8b 44 24 18          	mov    eax,DWORD PTR [esp+0x18]
  1008a5:	01 d0                	add    eax,edx
  1008a7:	0f b6 00             	movzx  eax,BYTE PTR [eax]
  1008aa:	84 c0                	test   al,al
  1008ac:	75 07                	jne    1008b5 <_strcmp+0x2e>
  1008ae:	b8 00 00 00 00       	mov    eax,0x0
  1008b3:	eb 23                	jmp    1008d8 <_strcmp+0x51>
  1008b5:	8b 54 24 0c          	mov    edx,DWORD PTR [esp+0xc]
  1008b9:	8b 44 24 14          	mov    eax,DWORD PTR [esp+0x14]
  1008bd:	01 d0                	add    eax,edx
  1008bf:	0f b6 10             	movzx  edx,BYTE PTR [eax]
  1008c2:	8b 4c 24 0c          	mov    ecx,DWORD PTR [esp+0xc]
  1008c6:	8b 44 24 18          	mov    eax,DWORD PTR [esp+0x18]
  1008ca:	01 c8                	add    eax,ecx
  1008cc:	0f b6 00             	movzx  eax,BYTE PTR [eax]
  1008cf:	38 c2                	cmp    dl,al
  1008d1:	74 c1                	je     100894 <_strcmp+0xd>
  1008d3:	b8 01 00 00 00       	mov    eax,0x1
  1008d8:	83 c4 10             	add    esp,0x10
  1008db:	c3                   	ret    

001008dc <_strstr>:
  1008dc:	83 ec 2c             	sub    esp,0x2c
  1008df:	8b 44 24 34          	mov    eax,DWORD PTR [esp+0x34]
  1008e3:	8d 50 01             	lea    edx,[eax+0x1]
  1008e6:	89 54 24 34          	mov    DWORD PTR [esp+0x34],edx
  1008ea:	0f b6 00             	movzx  eax,BYTE PTR [eax]
  1008ed:	88 44 24 1f          	mov    BYTE PTR [esp+0x1f],al
  1008f1:	80 7c 24 1f 00       	cmp    BYTE PTR [esp+0x1f],0x0
  1008f6:	75 06                	jne    1008fe <_strstr+0x22>
  1008f8:	8b 44 24 30          	mov    eax,DWORD PTR [esp+0x30]
  1008fc:	eb 62                	jmp    100960 <_strstr+0x84>
  1008fe:	8b 44 24 34          	mov    eax,DWORD PTR [esp+0x34]
  100902:	89 04 24             	mov    DWORD PTR [esp],eax
  100905:	e8 82 fe ff ff       	call   10078c <_strlen>
  10090a:	89 44 24 18          	mov    DWORD PTR [esp+0x18],eax
  10090e:	8b 44 24 30          	mov    eax,DWORD PTR [esp+0x30]
  100912:	8d 50 01             	lea    edx,[eax+0x1]
  100915:	89 54 24 30          	mov    DWORD PTR [esp+0x30],edx
  100919:	0f b6 00             	movzx  eax,BYTE PTR [eax]
  10091c:	88 44 24 17          	mov    BYTE PTR [esp+0x17],al
  100920:	80 7c 24 17 00       	cmp    BYTE PTR [esp+0x17],0x0
  100925:	75 07                	jne    10092e <_strstr+0x52>
  100927:	b8 00 00 00 00       	mov    eax,0x0
  10092c:	eb 32                	jmp    100960 <_strstr+0x84>
  10092e:	0f b6 44 24 17       	movzx  eax,BYTE PTR [esp+0x17]
  100933:	3a 44 24 1f          	cmp    al,BYTE PTR [esp+0x1f]
  100937:	75 d5                	jne    10090e <_strstr+0x32>
  100939:	8b 44 24 18          	mov    eax,DWORD PTR [esp+0x18]
  10093d:	89 44 24 08          	mov    DWORD PTR [esp+0x8],eax
  100941:	8b 44 24 34          	mov    eax,DWORD PTR [esp+0x34]
  100945:	89 44 24 04          	mov    DWORD PTR [esp+0x4],eax
  100949:	8b 44 24 30          	mov    eax,DWORD PTR [esp+0x30]
  10094d:	89 04 24             	mov    DWORD PTR [esp],eax
  100950:	e8 a6 00 00 00       	call   1009fb <_strncmp>
  100955:	85 c0                	test   eax,eax
  100957:	75 b5                	jne    10090e <_strstr+0x32>
  100959:	8b 44 24 30          	mov    eax,DWORD PTR [esp+0x30]
  10095d:	83 e8 01             	sub    eax,0x1
  100960:	83 c4 2c             	add    esp,0x2c
  100963:	c3                   	ret    

00100964 <_strcpy>:
  100964:	83 ec 10             	sub    esp,0x10
  100967:	c7 44 24 0c 00 00 00 	mov    DWORD PTR [esp+0xc],0x0
  10096e:	00 
  10096f:	eb 05                	jmp    100976 <_strcpy+0x12>
  100971:	83 44 24 0c 01       	add    DWORD PTR [esp+0xc],0x1
  100976:	8b 54 24 18          	mov    edx,DWORD PTR [esp+0x18]
  10097a:	8d 42 01             	lea    eax,[edx+0x1]
  10097d:	89 44 24 18          	mov    DWORD PTR [esp+0x18],eax
  100981:	8b 44 24 14          	mov    eax,DWORD PTR [esp+0x14]
  100985:	8d 48 01             	lea    ecx,[eax+0x1]
  100988:	89 4c 24 14          	mov    DWORD PTR [esp+0x14],ecx
  10098c:	0f b6 12             	movzx  edx,BYTE PTR [edx]
  10098f:	88 10                	mov    BYTE PTR [eax],dl
  100991:	0f b6 00             	movzx  eax,BYTE PTR [eax]
  100994:	84 c0                	test   al,al
  100996:	75 d9                	jne    100971 <_strcpy+0xd>
  100998:	8b 44 24 0c          	mov    eax,DWORD PTR [esp+0xc]
  10099c:	83 c4 10             	add    esp,0x10
  10099f:	c3                   	ret    

001009a0 <_strcat>:
  1009a0:	83 ec 2c             	sub    esp,0x2c
  1009a3:	8b 44 24 30          	mov    eax,DWORD PTR [esp+0x30]
  1009a7:	89 04 24             	mov    DWORD PTR [esp],eax
  1009aa:	e8 dd fd ff ff       	call   10078c <_strlen>
  1009af:	89 c2                	mov    edx,eax
  1009b1:	8b 44 24 30          	mov    eax,DWORD PTR [esp+0x30]
  1009b5:	01 d0                	add    eax,edx
  1009b7:	89 44 24 1c          	mov    DWORD PTR [esp+0x1c],eax
  1009bb:	8b 44 24 34          	mov    eax,DWORD PTR [esp+0x34]
  1009bf:	89 04 24             	mov    DWORD PTR [esp],eax
  1009c2:	e8 c5 fd ff ff       	call   10078c <_strlen>
  1009c7:	89 44 24 08          	mov    DWORD PTR [esp+0x8],eax
  1009cb:	8b 44 24 34          	mov    eax,DWORD PTR [esp+0x34]
  1009cf:	89 44 24 04          	mov    DWORD PTR [esp+0x4],eax
  1009d3:	8b 44 24 1c          	mov    eax,DWORD PTR [esp+0x1c]
  1009d7:	89 04 24             	mov    DWORD PTR [esp],eax
  1009da:	e8 22 fd ff ff       	call   100701 <_memcpy>
  1009df:	8b 44 24 34          	mov    eax,DWORD PTR [esp+0x34]
  1009e3:	89 04 24             	mov    DWORD PTR [esp],eax
  1009e6:	e8 a1 fd ff ff       	call   10078c <_strlen>
  1009eb:	01 44 24 1c          	add    DWORD PTR [esp+0x1c],eax
  1009ef:	8b 44 24 1c          	mov    eax,DWORD PTR [esp+0x1c]
  1009f3:	c6 00 00             	mov    BYTE PTR [eax],0x0
  1009f6:	90                   	nop
  1009f7:	83 c4 2c             	add    esp,0x2c
  1009fa:	c3                   	ret    

001009fb <_strncmp>:
  1009fb:	83 ec 10             	sub    esp,0x10
  1009fe:	c7 44 24 0c 00 00 00 	mov    DWORD PTR [esp+0xc],0x0
  100a05:	00 
  100a06:	eb 41                	jmp    100a49 <_strncmp+0x4e>
  100a08:	8b 44 24 14          	mov    eax,DWORD PTR [esp+0x14]
  100a0c:	0f b6 00             	movzx  eax,BYTE PTR [eax]
  100a0f:	0f be c8             	movsx  ecx,al
  100a12:	8b 44 24 18          	mov    eax,DWORD PTR [esp+0x18]
  100a16:	8d 50 01             	lea    edx,[eax+0x1]
  100a19:	89 54 24 18          	mov    DWORD PTR [esp+0x18],edx
  100a1d:	0f b6 00             	movzx  eax,BYTE PTR [eax]
  100a20:	0f be c0             	movsx  eax,al
  100a23:	29 c1                	sub    ecx,eax
  100a25:	89 c8                	mov    eax,ecx
  100a27:	89 44 24 0c          	mov    DWORD PTR [esp+0xc],eax
  100a2b:	83 7c 24 0c 00       	cmp    DWORD PTR [esp+0xc],0x0
  100a30:	75 1e                	jne    100a50 <_strncmp+0x55>
  100a32:	8b 44 24 14          	mov    eax,DWORD PTR [esp+0x14]
  100a36:	8d 50 01             	lea    edx,[eax+0x1]
  100a39:	89 54 24 14          	mov    DWORD PTR [esp+0x14],edx
  100a3d:	0f b6 00             	movzx  eax,BYTE PTR [eax]
  100a40:	84 c0                	test   al,al
  100a42:	74 0c                	je     100a50 <_strncmp+0x55>
  100a44:	83 6c 24 1c 01       	sub    DWORD PTR [esp+0x1c],0x1
  100a49:	83 7c 24 1c 00       	cmp    DWORD PTR [esp+0x1c],0x0
  100a4e:	75 b8                	jne    100a08 <_strncmp+0xd>
  100a50:	8b 44 24 0c          	mov    eax,DWORD PTR [esp+0xc]
  100a54:	83 c4 10             	add    esp,0x10
  100a57:	c3                   	ret    

00100a58 <_itoa>:
  100a58:	83 ec 10             	sub    esp,0x10
  100a5b:	8b 44 24 18          	mov    eax,DWORD PTR [esp+0x18]
  100a5f:	89 44 24 04          	mov    DWORD PTR [esp+0x4],eax
  100a63:	c7 44 24 0c 00 00 00 	mov    DWORD PTR [esp+0xc],0x0
  100a6a:	00 
  100a6b:	8b 4c 24 1c          	mov    ecx,DWORD PTR [esp+0x1c]
  100a6f:	8b 44 24 18          	mov    eax,DWORD PTR [esp+0x18]
  100a73:	ba 00 00 00 00       	mov    edx,0x0
  100a78:	f7 f1                	div    ecx
  100a7a:	89 54 24 04          	mov    DWORD PTR [esp+0x4],edx
  100a7e:	83 7c 24 04 09       	cmp    DWORD PTR [esp+0x4],0x9
  100a83:	77 0b                	ja     100a90 <_itoa+0x38>
  100a85:	8b 44 24 04          	mov    eax,DWORD PTR [esp+0x4]
  100a89:	83 c0 30             	add    eax,0x30
  100a8c:	89 c1                	mov    ecx,eax
  100a8e:	eb 09                	jmp    100a99 <_itoa+0x41>
  100a90:	8b 44 24 04          	mov    eax,DWORD PTR [esp+0x4]
  100a94:	83 c0 57             	add    eax,0x57
  100a97:	89 c1                	mov    ecx,eax
  100a99:	8b 44 24 0c          	mov    eax,DWORD PTR [esp+0xc]
  100a9d:	8d 50 01             	lea    edx,[eax+0x1]
  100aa0:	89 54 24 0c          	mov    DWORD PTR [esp+0xc],edx
  100aa4:	89 c2                	mov    edx,eax
  100aa6:	8b 44 24 14          	mov    eax,DWORD PTR [esp+0x14]
  100aaa:	01 d0                	add    eax,edx
  100aac:	88 08                	mov    BYTE PTR [eax],cl
  100aae:	8b 4c 24 1c          	mov    ecx,DWORD PTR [esp+0x1c]
  100ab2:	8b 44 24 18          	mov    eax,DWORD PTR [esp+0x18]
  100ab6:	ba 00 00 00 00       	mov    edx,0x0
  100abb:	f7 f1                	div    ecx
  100abd:	89 44 24 18          	mov    DWORD PTR [esp+0x18],eax
  100ac1:	83 7c 24 18 00       	cmp    DWORD PTR [esp+0x18],0x0
  100ac6:	75 a3                	jne    100a6b <_itoa+0x13>
  100ac8:	8b 44 24 0c          	mov    eax,DWORD PTR [esp+0xc]
  100acc:	8d 50 ff             	lea    edx,[eax-0x1]
  100acf:	89 54 24 0c          	mov    DWORD PTR [esp+0xc],edx
  100ad3:	89 c2                	mov    edx,eax
  100ad5:	8b 44 24 14          	mov    eax,DWORD PTR [esp+0x14]
  100ad9:	01 d0                	add    eax,edx
  100adb:	c6 00 00             	mov    BYTE PTR [eax],0x0
  100ade:	c7 44 24 08 00 00 00 	mov    DWORD PTR [esp+0x8],0x0
  100ae5:	00 
  100ae6:	eb 47                	jmp    100b2f <_itoa+0xd7>
  100ae8:	8b 54 24 08          	mov    edx,DWORD PTR [esp+0x8]
  100aec:	8b 44 24 14          	mov    eax,DWORD PTR [esp+0x14]
  100af0:	01 d0                	add    eax,edx
  100af2:	0f b6 00             	movzx  eax,BYTE PTR [eax]
  100af5:	0f be c0             	movsx  eax,al
  100af8:	89 44 24 04          	mov    DWORD PTR [esp+0x4],eax
  100afc:	8b 54 24 0c          	mov    edx,DWORD PTR [esp+0xc]
  100b00:	8b 44 24 14          	mov    eax,DWORD PTR [esp+0x14]
  100b04:	01 d0                	add    eax,edx
  100b06:	8b 4c 24 08          	mov    ecx,DWORD PTR [esp+0x8]
  100b0a:	8b 54 24 14          	mov    edx,DWORD PTR [esp+0x14]
  100b0e:	01 ca                	add    edx,ecx
  100b10:	0f b6 00             	movzx  eax,BYTE PTR [eax]
  100b13:	88 02                	mov    BYTE PTR [edx],al
  100b15:	8b 54 24 0c          	mov    edx,DWORD PTR [esp+0xc]
  100b19:	8b 44 24 14          	mov    eax,DWORD PTR [esp+0x14]
  100b1d:	01 d0                	add    eax,edx
  100b1f:	8b 54 24 04          	mov    edx,DWORD PTR [esp+0x4]
  100b23:	88 10                	mov    BYTE PTR [eax],dl
  100b25:	83 44 24 08 01       	add    DWORD PTR [esp+0x8],0x1
  100b2a:	83 6c 24 0c 01       	sub    DWORD PTR [esp+0xc],0x1
  100b2f:	8b 44 24 08          	mov    eax,DWORD PTR [esp+0x8]
  100b33:	3b 44 24 0c          	cmp    eax,DWORD PTR [esp+0xc]
  100b37:	7c af                	jl     100ae8 <_itoa+0x90>
  100b39:	90                   	nop
  100b3a:	90                   	nop
  100b3b:	83 c4 10             	add    esp,0x10
  100b3e:	c3                   	ret    

00100b3f <_atoi>:
  100b3f:	83 ec 2c             	sub    esp,0x2c
  100b42:	c7 44 24 1c 00 00 00 	mov    DWORD PTR [esp+0x1c],0x0
  100b49:	00 
  100b4a:	eb 05                	jmp    100b51 <_atoi+0x12>
  100b4c:	83 44 24 30 01       	add    DWORD PTR [esp+0x30],0x1
  100b51:	8b 44 24 30          	mov    eax,DWORD PTR [esp+0x30]
  100b55:	0f b6 00             	movzx  eax,BYTE PTR [eax]
  100b58:	0f be c0             	movsx  eax,al
  100b5b:	89 04 24             	mov    DWORD PTR [esp],eax
  100b5e:	e8 86 00 00 00       	call   100be9 <_isspace>
  100b63:	85 c0                	test   eax,eax
  100b65:	75 e5                	jne    100b4c <_atoi+0xd>
  100b67:	8b 44 24 30          	mov    eax,DWORD PTR [esp+0x30]
  100b6b:	0f b6 00             	movzx  eax,BYTE PTR [eax]
  100b6e:	3c 2d                	cmp    al,0x2d
  100b70:	75 0f                	jne    100b81 <_atoi+0x42>
  100b72:	c7 44 24 18 01 00 00 	mov    DWORD PTR [esp+0x18],0x1
  100b79:	00 
  100b7a:	83 44 24 30 01       	add    DWORD PTR [esp+0x30],0x1
  100b7f:	eb 18                	jmp    100b99 <_atoi+0x5a>
  100b81:	c7 44 24 18 00 00 00 	mov    DWORD PTR [esp+0x18],0x0
  100b88:	00 
  100b89:	8b 44 24 30          	mov    eax,DWORD PTR [esp+0x30]
  100b8d:	0f b6 00             	movzx  eax,BYTE PTR [eax]
  100b90:	3c 2b                	cmp    al,0x2b
  100b92:	75 05                	jne    100b99 <_atoi+0x5a>
  100b94:	83 44 24 30 01       	add    DWORD PTR [esp+0x30],0x1
  100b99:	8b 44 24 30          	mov    eax,DWORD PTR [esp+0x30]
  100b9d:	0f b6 00             	movzx  eax,BYTE PTR [eax]
  100ba0:	0f be c0             	movsx  eax,al
  100ba3:	83 e8 30             	sub    eax,0x30
  100ba6:	89 44 24 14          	mov    DWORD PTR [esp+0x14],eax
  100baa:	83 7c 24 14 09       	cmp    DWORD PTR [esp+0x14],0x9
  100baf:	77 20                	ja     100bd1 <_atoi+0x92>
  100bb1:	8b 54 24 1c          	mov    edx,DWORD PTR [esp+0x1c]
  100bb5:	89 d0                	mov    eax,edx
  100bb7:	c1 e0 02             	shl    eax,0x2
  100bba:	01 d0                	add    eax,edx
  100bbc:	01 c0                	add    eax,eax
  100bbe:	89 c2                	mov    edx,eax
  100bc0:	8b 44 24 14          	mov    eax,DWORD PTR [esp+0x14]
  100bc4:	01 d0                	add    eax,edx
  100bc6:	89 44 24 1c          	mov    DWORD PTR [esp+0x1c],eax
  100bca:	83 44 24 30 01       	add    DWORD PTR [esp+0x30],0x1
  100bcf:	eb c8                	jmp    100b99 <_atoi+0x5a>
  100bd1:	90                   	nop
  100bd2:	83 7c 24 18 00       	cmp    DWORD PTR [esp+0x18],0x0
  100bd7:	74 08                	je     100be1 <_atoi+0xa2>
  100bd9:	8b 44 24 1c          	mov    eax,DWORD PTR [esp+0x1c]
  100bdd:	f7 d8                	neg    eax
  100bdf:	eb 04                	jmp    100be5 <_atoi+0xa6>
  100be1:	8b 44 24 1c          	mov    eax,DWORD PTR [esp+0x1c]
  100be5:	83 c4 2c             	add    esp,0x2c
  100be8:	c3                   	ret    

00100be9 <_isspace>:
  100be9:	83 ec 04             	sub    esp,0x4
  100bec:	8b 44 24 08          	mov    eax,DWORD PTR [esp+0x8]
  100bf0:	88 04 24             	mov    BYTE PTR [esp],al
  100bf3:	80 3c 24 20          	cmp    BYTE PTR [esp],0x20
  100bf7:	74 1e                	je     100c17 <_isspace+0x2e>
  100bf9:	80 3c 24 09          	cmp    BYTE PTR [esp],0x9
  100bfd:	74 18                	je     100c17 <_isspace+0x2e>
  100bff:	80 3c 24 0a          	cmp    BYTE PTR [esp],0xa
  100c03:	74 12                	je     100c17 <_isspace+0x2e>
  100c05:	80 3c 24 0b          	cmp    BYTE PTR [esp],0xb
  100c09:	74 0c                	je     100c17 <_isspace+0x2e>
  100c0b:	80 3c 24 0c          	cmp    BYTE PTR [esp],0xc
  100c0f:	74 06                	je     100c17 <_isspace+0x2e>
  100c11:	80 3c 24 0d          	cmp    BYTE PTR [esp],0xd
  100c15:	75 07                	jne    100c1e <_isspace+0x35>
  100c17:	b8 01 00 00 00       	mov    eax,0x1
  100c1c:	eb 05                	jmp    100c23 <_isspace+0x3a>
  100c1e:	b8 00 00 00 00       	mov    eax,0x0
  100c23:	83 c4 04             	add    esp,0x4
  100c26:	c3                   	ret    

00100c27 <_isprint>:
  100c27:	83 ec 04             	sub    esp,0x4
  100c2a:	8b 44 24 08          	mov    eax,DWORD PTR [esp+0x8]
  100c2e:	88 04 24             	mov    BYTE PTR [esp],al
  100c31:	80 3c 24 1f          	cmp    BYTE PTR [esp],0x1f
  100c35:	7e 0d                	jle    100c44 <_isprint+0x1d>
  100c37:	80 3c 24 7f          	cmp    BYTE PTR [esp],0x7f
  100c3b:	74 07                	je     100c44 <_isprint+0x1d>
  100c3d:	b8 01 00 00 00       	mov    eax,0x1
  100c42:	eb 05                	jmp    100c49 <_isprint+0x22>
  100c44:	b8 00 00 00 00       	mov    eax,0x0
  100c49:	83 c4 04             	add    esp,0x4
  100c4c:	c3                   	ret    

00100c4d <_strsep>:
  100c4d:	83 ec 20             	sub    esp,0x20
  100c50:	8b 44 24 24          	mov    eax,DWORD PTR [esp+0x24]
  100c54:	8b 00                	mov    eax,DWORD PTR [eax]
  100c56:	89 44 24 1c          	mov    DWORD PTR [esp+0x1c],eax
  100c5a:	83 7c 24 1c 00       	cmp    DWORD PTR [esp+0x1c],0x0
  100c5f:	75 07                	jne    100c68 <_strsep+0x1b>
  100c61:	b8 00 00 00 00       	mov    eax,0x0
  100c66:	eb 78                	jmp    100ce0 <_strsep+0x93>
  100c68:	8b 44 24 1c          	mov    eax,DWORD PTR [esp+0x1c]
  100c6c:	89 44 24 14          	mov    DWORD PTR [esp+0x14],eax
  100c70:	8b 44 24 1c          	mov    eax,DWORD PTR [esp+0x1c]
  100c74:	8d 50 01             	lea    edx,[eax+0x1]
  100c77:	89 54 24 1c          	mov    DWORD PTR [esp+0x1c],edx
  100c7b:	0f b6 00             	movzx  eax,BYTE PTR [eax]
  100c7e:	0f be c0             	movsx  eax,al
  100c81:	89 44 24 10          	mov    DWORD PTR [esp+0x10],eax
  100c85:	8b 44 24 28          	mov    eax,DWORD PTR [esp+0x28]
  100c89:	89 44 24 18          	mov    DWORD PTR [esp+0x18],eax
  100c8d:	8b 44 24 18          	mov    eax,DWORD PTR [esp+0x18]
  100c91:	8d 50 01             	lea    edx,[eax+0x1]
  100c94:	89 54 24 18          	mov    DWORD PTR [esp+0x18],edx
  100c98:	0f b6 00             	movzx  eax,BYTE PTR [eax]
  100c9b:	0f be c0             	movsx  eax,al
  100c9e:	89 44 24 0c          	mov    DWORD PTR [esp+0xc],eax
  100ca2:	8b 44 24 0c          	mov    eax,DWORD PTR [esp+0xc]
  100ca6:	3b 44 24 10          	cmp    eax,DWORD PTR [esp+0x10]
  100caa:	75 2b                	jne    100cd7 <_strsep+0x8a>
  100cac:	83 7c 24 10 00       	cmp    DWORD PTR [esp+0x10],0x0
  100cb1:	75 0a                	jne    100cbd <_strsep+0x70>
  100cb3:	c7 44 24 1c 00 00 00 	mov    DWORD PTR [esp+0x1c],0x0
  100cba:	00 
  100cbb:	eb 0a                	jmp    100cc7 <_strsep+0x7a>
  100cbd:	8b 44 24 1c          	mov    eax,DWORD PTR [esp+0x1c]
  100cc1:	83 e8 01             	sub    eax,0x1
  100cc4:	c6 00 00             	mov    BYTE PTR [eax],0x0
  100cc7:	8b 44 24 24          	mov    eax,DWORD PTR [esp+0x24]
  100ccb:	8b 54 24 1c          	mov    edx,DWORD PTR [esp+0x1c]
  100ccf:	89 10                	mov    DWORD PTR [eax],edx
  100cd1:	8b 44 24 14          	mov    eax,DWORD PTR [esp+0x14]
  100cd5:	eb 09                	jmp    100ce0 <_strsep+0x93>
  100cd7:	83 7c 24 0c 00       	cmp    DWORD PTR [esp+0xc],0x0
  100cdc:	75 af                	jne    100c8d <_strsep+0x40>
  100cde:	eb 90                	jmp    100c70 <_strsep+0x23>
  100ce0:	83 c4 20             	add    esp,0x20
  100ce3:	c3                   	ret    

00100ce4 <_isdigit>:
  100ce4:	83 7c 24 04 2f       	cmp    DWORD PTR [esp+0x4],0x2f
  100ce9:	7e 0d                	jle    100cf8 <_isdigit+0x14>
  100ceb:	83 7c 24 04 39       	cmp    DWORD PTR [esp+0x4],0x39
  100cf0:	7f 06                	jg     100cf8 <_isdigit+0x14>
  100cf2:	b8 01 00 00 00       	mov    eax,0x1
  100cf7:	c3                   	ret    
  100cf8:	b8 00 00 00 00       	mov    eax,0x0
  100cfd:	c3                   	ret    

00100cfe <_skip_atoi>:
  100cfe:	53                   	push   ebx
  100cff:	83 ec 14             	sub    esp,0x14
  100d02:	c7 44 24 10 00 00 00 	mov    DWORD PTR [esp+0x10],0x0
  100d09:	00 
  100d0a:	eb 2d                	jmp    100d39 <_skip_atoi+0x3b>
  100d0c:	8b 54 24 10          	mov    edx,DWORD PTR [esp+0x10]
  100d10:	89 d0                	mov    eax,edx
  100d12:	c1 e0 02             	shl    eax,0x2
  100d15:	01 d0                	add    eax,edx
  100d17:	01 c0                	add    eax,eax
  100d19:	89 c3                	mov    ebx,eax
  100d1b:	8b 44 24 1c          	mov    eax,DWORD PTR [esp+0x1c]
  100d1f:	8b 00                	mov    eax,DWORD PTR [eax]
  100d21:	8d 48 01             	lea    ecx,[eax+0x1]
  100d24:	8b 54 24 1c          	mov    edx,DWORD PTR [esp+0x1c]
  100d28:	89 0a                	mov    DWORD PTR [edx],ecx
  100d2a:	0f b6 00             	movzx  eax,BYTE PTR [eax]
  100d2d:	0f be c0             	movsx  eax,al
  100d30:	01 d8                	add    eax,ebx
  100d32:	83 e8 30             	sub    eax,0x30
  100d35:	89 44 24 10          	mov    DWORD PTR [esp+0x10],eax
  100d39:	8b 44 24 1c          	mov    eax,DWORD PTR [esp+0x1c]
  100d3d:	8b 00                	mov    eax,DWORD PTR [eax]
  100d3f:	0f b6 00             	movzx  eax,BYTE PTR [eax]
  100d42:	0f be c0             	movsx  eax,al
  100d45:	89 04 24             	mov    DWORD PTR [esp],eax
  100d48:	e8 97 ff ff ff       	call   100ce4 <_isdigit>
  100d4d:	85 c0                	test   eax,eax
  100d4f:	75 bb                	jne    100d0c <_skip_atoi+0xe>
  100d51:	8b 44 24 10          	mov    eax,DWORD PTR [esp+0x10]
  100d55:	83 c4 14             	add    esp,0x14
  100d58:	5b                   	pop    ebx
  100d59:	c3                   	ret    

00100d5a <_knumber>:
  100d5a:	83 ec 60             	sub    esp,0x60
  100d5d:	8b 44 24 78          	mov    eax,DWORD PTR [esp+0x78]
  100d61:	83 e0 20             	and    eax,0x20
  100d64:	88 44 24 57          	mov    BYTE PTR [esp+0x57],al
  100d68:	8b 44 24 78          	mov    eax,DWORD PTR [esp+0x78]
  100d6c:	83 e0 10             	and    eax,0x10
  100d6f:	85 c0                	test   eax,eax
  100d71:	74 05                	je     100d78 <_knumber+0x1e>
  100d73:	83 64 24 78 fe       	and    DWORD PTR [esp+0x78],0xfffffffe
  100d78:	83 7c 24 6c 01       	cmp    DWORD PTR [esp+0x6c],0x1
  100d7d:	7e 07                	jle    100d86 <_knumber+0x2c>
  100d7f:	83 7c 24 6c 10       	cmp    DWORD PTR [esp+0x6c],0x10
  100d84:	7e 0a                	jle    100d90 <_knumber+0x36>
  100d86:	b8 00 00 00 00       	mov    eax,0x0
  100d8b:	e9 47 02 00 00       	jmp    100fd7 <_knumber+0x27d>
  100d90:	8b 44 24 78          	mov    eax,DWORD PTR [esp+0x78]
  100d94:	83 e0 01             	and    eax,0x1
  100d97:	85 c0                	test   eax,eax
  100d99:	74 07                	je     100da2 <_knumber+0x48>
  100d9b:	b8 30 00 00 00       	mov    eax,0x30
  100da0:	eb 05                	jmp    100da7 <_knumber+0x4d>
  100da2:	b8 20 00 00 00       	mov    eax,0x20
  100da7:	88 44 24 56          	mov    BYTE PTR [esp+0x56],al
  100dab:	c6 44 24 5f 00       	mov    BYTE PTR [esp+0x5f],0x0
  100db0:	8b 44 24 78          	mov    eax,DWORD PTR [esp+0x78]
  100db4:	83 e0 02             	and    eax,0x2
  100db7:	85 c0                	test   eax,eax
  100db9:	74 43                	je     100dfe <_knumber+0xa4>
  100dbb:	83 7c 24 68 00       	cmp    DWORD PTR [esp+0x68],0x0
  100dc0:	79 10                	jns    100dd2 <_knumber+0x78>
  100dc2:	c6 44 24 5f 2d       	mov    BYTE PTR [esp+0x5f],0x2d
  100dc7:	f7 5c 24 68          	neg    DWORD PTR [esp+0x68]
  100dcb:	83 6c 24 70 01       	sub    DWORD PTR [esp+0x70],0x1
  100dd0:	eb 2c                	jmp    100dfe <_knumber+0xa4>
  100dd2:	8b 44 24 78          	mov    eax,DWORD PTR [esp+0x78]
  100dd6:	83 e0 04             	and    eax,0x4
  100dd9:	85 c0                	test   eax,eax
  100ddb:	74 0c                	je     100de9 <_knumber+0x8f>
  100ddd:	c6 44 24 5f 2b       	mov    BYTE PTR [esp+0x5f],0x2b
  100de2:	83 6c 24 70 01       	sub    DWORD PTR [esp+0x70],0x1
  100de7:	eb 15                	jmp    100dfe <_knumber+0xa4>
  100de9:	8b 44 24 78          	mov    eax,DWORD PTR [esp+0x78]
  100ded:	83 e0 08             	and    eax,0x8
  100df0:	85 c0                	test   eax,eax
  100df2:	74 0a                	je     100dfe <_knumber+0xa4>
  100df4:	c6 44 24 5f 20       	mov    BYTE PTR [esp+0x5f],0x20
  100df9:	83 6c 24 70 01       	sub    DWORD PTR [esp+0x70],0x1
  100dfe:	8b 44 24 78          	mov    eax,DWORD PTR [esp+0x78]
  100e02:	83 e0 40             	and    eax,0x40
  100e05:	85 c0                	test   eax,eax
  100e07:	74 1a                	je     100e23 <_knumber+0xc9>
  100e09:	83 7c 24 6c 10       	cmp    DWORD PTR [esp+0x6c],0x10
  100e0e:	75 07                	jne    100e17 <_knumber+0xbd>
  100e10:	83 6c 24 70 02       	sub    DWORD PTR [esp+0x70],0x2
  100e15:	eb 0c                	jmp    100e23 <_knumber+0xc9>
  100e17:	83 7c 24 6c 08       	cmp    DWORD PTR [esp+0x6c],0x8
  100e1c:	75 05                	jne    100e23 <_knumber+0xc9>
  100e1e:	83 6c 24 70 01       	sub    DWORD PTR [esp+0x70],0x1
  100e23:	c7 44 24 58 00 00 00 	mov    DWORD PTR [esp+0x58],0x0
  100e2a:	00 
  100e2b:	83 7c 24 68 00       	cmp    DWORD PTR [esp+0x68],0x0
  100e30:	75 58                	jne    100e8a <_knumber+0x130>
  100e32:	8b 44 24 58          	mov    eax,DWORD PTR [esp+0x58]
  100e36:	8d 50 01             	lea    edx,[eax+0x1]
  100e39:	89 54 24 58          	mov    DWORD PTR [esp+0x58],edx
  100e3d:	c6 44 04 0e 30       	mov    BYTE PTR [esp+eax*1+0xe],0x30
  100e42:	eb 4d                	jmp    100e91 <_knumber+0x137>
  100e44:	8b 44 24 68          	mov    eax,DWORD PTR [esp+0x68]
  100e48:	8b 4c 24 6c          	mov    ecx,DWORD PTR [esp+0x6c]
  100e4c:	ba 00 00 00 00       	mov    edx,0x0
  100e51:	f7 f1                	div    ecx
  100e53:	89 d0                	mov    eax,edx
  100e55:	89 44 24 50          	mov    DWORD PTR [esp+0x50],eax
  100e59:	8b 44 24 68          	mov    eax,DWORD PTR [esp+0x68]
  100e5d:	8b 4c 24 6c          	mov    ecx,DWORD PTR [esp+0x6c]
  100e61:	ba 00 00 00 00       	mov    edx,0x0
  100e66:	f7 f1                	div    ecx
  100e68:	89 44 24 68          	mov    DWORD PTR [esp+0x68],eax
  100e6c:	8b 44 24 50          	mov    eax,DWORD PTR [esp+0x50]
  100e70:	0f b6 90 3c 32 10 00 	movzx  edx,BYTE PTR [eax+0x10323c]
  100e77:	8b 44 24 58          	mov    eax,DWORD PTR [esp+0x58]
  100e7b:	8d 48 01             	lea    ecx,[eax+0x1]
  100e7e:	89 4c 24 58          	mov    DWORD PTR [esp+0x58],ecx
  100e82:	0a 54 24 57          	or     dl,BYTE PTR [esp+0x57]
  100e86:	88 54 04 0e          	mov    BYTE PTR [esp+eax*1+0xe],dl
  100e8a:	83 7c 24 68 00       	cmp    DWORD PTR [esp+0x68],0x0
  100e8f:	75 b3                	jne    100e44 <_knumber+0xea>
  100e91:	8b 44 24 58          	mov    eax,DWORD PTR [esp+0x58]
  100e95:	3b 44 24 74          	cmp    eax,DWORD PTR [esp+0x74]
  100e99:	7e 08                	jle    100ea3 <_knumber+0x149>
  100e9b:	8b 44 24 58          	mov    eax,DWORD PTR [esp+0x58]
  100e9f:	89 44 24 74          	mov    DWORD PTR [esp+0x74],eax
  100ea3:	8b 44 24 74          	mov    eax,DWORD PTR [esp+0x74]
  100ea7:	29 44 24 70          	sub    DWORD PTR [esp+0x70],eax
  100eab:	8b 44 24 78          	mov    eax,DWORD PTR [esp+0x78]
  100eaf:	83 e0 11             	and    eax,0x11
  100eb2:	85 c0                	test   eax,eax
  100eb4:	75 1f                	jne    100ed5 <_knumber+0x17b>
  100eb6:	eb 0e                	jmp    100ec6 <_knumber+0x16c>
  100eb8:	8b 44 24 64          	mov    eax,DWORD PTR [esp+0x64]
  100ebc:	8d 50 01             	lea    edx,[eax+0x1]
  100ebf:	89 54 24 64          	mov    DWORD PTR [esp+0x64],edx
  100ec3:	c6 00 20             	mov    BYTE PTR [eax],0x20
  100ec6:	8b 44 24 70          	mov    eax,DWORD PTR [esp+0x70]
  100eca:	8d 50 ff             	lea    edx,[eax-0x1]
  100ecd:	89 54 24 70          	mov    DWORD PTR [esp+0x70],edx
  100ed1:	85 c0                	test   eax,eax
  100ed3:	7f e3                	jg     100eb8 <_knumber+0x15e>
  100ed5:	80 7c 24 5f 00       	cmp    BYTE PTR [esp+0x5f],0x0
  100eda:	74 12                	je     100eee <_knumber+0x194>
  100edc:	8b 44 24 64          	mov    eax,DWORD PTR [esp+0x64]
  100ee0:	8d 50 01             	lea    edx,[eax+0x1]
  100ee3:	89 54 24 64          	mov    DWORD PTR [esp+0x64],edx
  100ee7:	0f b6 54 24 5f       	movzx  edx,BYTE PTR [esp+0x5f]
  100eec:	88 10                	mov    BYTE PTR [eax],dl
  100eee:	8b 44 24 78          	mov    eax,DWORD PTR [esp+0x78]
  100ef2:	83 e0 40             	and    eax,0x40
  100ef5:	85 c0                	test   eax,eax
  100ef7:	74 41                	je     100f3a <_knumber+0x1e0>
  100ef9:	83 7c 24 6c 08       	cmp    DWORD PTR [esp+0x6c],0x8
  100efe:	75 10                	jne    100f10 <_knumber+0x1b6>
  100f00:	8b 44 24 64          	mov    eax,DWORD PTR [esp+0x64]
  100f04:	8d 50 01             	lea    edx,[eax+0x1]
  100f07:	89 54 24 64          	mov    DWORD PTR [esp+0x64],edx
  100f0b:	c6 00 30             	mov    BYTE PTR [eax],0x30
  100f0e:	eb 2a                	jmp    100f3a <_knumber+0x1e0>
  100f10:	83 7c 24 6c 10       	cmp    DWORD PTR [esp+0x6c],0x10
  100f15:	75 23                	jne    100f3a <_knumber+0x1e0>
  100f17:	8b 44 24 64          	mov    eax,DWORD PTR [esp+0x64]
  100f1b:	8d 50 01             	lea    edx,[eax+0x1]
  100f1e:	89 54 24 64          	mov    DWORD PTR [esp+0x64],edx
  100f22:	c6 00 30             	mov    BYTE PTR [eax],0x30
  100f25:	8b 44 24 64          	mov    eax,DWORD PTR [esp+0x64]
  100f29:	8d 50 01             	lea    edx,[eax+0x1]
  100f2c:	89 54 24 64          	mov    DWORD PTR [esp+0x64],edx
  100f30:	0f b6 54 24 57       	movzx  edx,BYTE PTR [esp+0x57]
  100f35:	83 ca 58             	or     edx,0x58
  100f38:	88 10                	mov    BYTE PTR [eax],dl
  100f3a:	8b 44 24 78          	mov    eax,DWORD PTR [esp+0x78]
  100f3e:	83 e0 10             	and    eax,0x10
  100f41:	85 c0                	test   eax,eax
  100f43:	75 33                	jne    100f78 <_knumber+0x21e>
  100f45:	eb 12                	jmp    100f59 <_knumber+0x1ff>
  100f47:	8b 44 24 64          	mov    eax,DWORD PTR [esp+0x64]
  100f4b:	8d 50 01             	lea    edx,[eax+0x1]
  100f4e:	89 54 24 64          	mov    DWORD PTR [esp+0x64],edx
  100f52:	0f b6 54 24 56       	movzx  edx,BYTE PTR [esp+0x56]
  100f57:	88 10                	mov    BYTE PTR [eax],dl
  100f59:	8b 44 24 70          	mov    eax,DWORD PTR [esp+0x70]
  100f5d:	8d 50 ff             	lea    edx,[eax-0x1]
  100f60:	89 54 24 70          	mov    DWORD PTR [esp+0x70],edx
  100f64:	85 c0                	test   eax,eax
  100f66:	7f df                	jg     100f47 <_knumber+0x1ed>
  100f68:	eb 0e                	jmp    100f78 <_knumber+0x21e>
  100f6a:	8b 44 24 64          	mov    eax,DWORD PTR [esp+0x64]
  100f6e:	8d 50 01             	lea    edx,[eax+0x1]
  100f71:	89 54 24 64          	mov    DWORD PTR [esp+0x64],edx
  100f75:	c6 00 30             	mov    BYTE PTR [eax],0x30
  100f78:	8b 44 24 74          	mov    eax,DWORD PTR [esp+0x74]
  100f7c:	8d 50 ff             	lea    edx,[eax-0x1]
  100f7f:	89 54 24 74          	mov    DWORD PTR [esp+0x74],edx
  100f83:	39 44 24 58          	cmp    DWORD PTR [esp+0x58],eax
  100f87:	7c e1                	jl     100f6a <_knumber+0x210>
  100f89:	eb 1a                	jmp    100fa5 <_knumber+0x24b>
  100f8b:	8b 44 24 64          	mov    eax,DWORD PTR [esp+0x64]
  100f8f:	8d 50 01             	lea    edx,[eax+0x1]
  100f92:	89 54 24 64          	mov    DWORD PTR [esp+0x64],edx
  100f96:	8d 4c 24 0e          	lea    ecx,[esp+0xe]
  100f9a:	8b 54 24 58          	mov    edx,DWORD PTR [esp+0x58]
  100f9e:	01 ca                	add    edx,ecx
  100fa0:	0f b6 12             	movzx  edx,BYTE PTR [edx]
  100fa3:	88 10                	mov    BYTE PTR [eax],dl
  100fa5:	8b 44 24 58          	mov    eax,DWORD PTR [esp+0x58]
  100fa9:	8d 50 ff             	lea    edx,[eax-0x1]
  100fac:	89 54 24 58          	mov    DWORD PTR [esp+0x58],edx
  100fb0:	85 c0                	test   eax,eax
  100fb2:	7f d7                	jg     100f8b <_knumber+0x231>
  100fb4:	eb 0e                	jmp    100fc4 <_knumber+0x26a>
  100fb6:	8b 44 24 64          	mov    eax,DWORD PTR [esp+0x64]
  100fba:	8d 50 01             	lea    edx,[eax+0x1]
  100fbd:	89 54 24 64          	mov    DWORD PTR [esp+0x64],edx
  100fc1:	c6 00 20             	mov    BYTE PTR [eax],0x20
  100fc4:	8b 44 24 70          	mov    eax,DWORD PTR [esp+0x70]
  100fc8:	8d 50 ff             	lea    edx,[eax-0x1]
  100fcb:	89 54 24 70          	mov    DWORD PTR [esp+0x70],edx
  100fcf:	85 c0                	test   eax,eax
  100fd1:	7f e3                	jg     100fb6 <_knumber+0x25c>
  100fd3:	8b 44 24 64          	mov    eax,DWORD PTR [esp+0x64]
  100fd7:	83 c4 60             	add    esp,0x60
  100fda:	c3                   	ret    

00100fdb <_kvsprintf>:
  100fdb:	83 ec 5c             	sub    esp,0x5c
  100fde:	8b 44 24 60          	mov    eax,DWORD PTR [esp+0x60]
  100fe2:	89 44 24 40          	mov    DWORD PTR [esp+0x40],eax
  100fe6:	e9 b6 04 00 00       	jmp    1014a1 <_kvsprintf+0x4c6>
  100feb:	8b 44 24 64          	mov    eax,DWORD PTR [esp+0x64]
  100fef:	0f b6 00             	movzx  eax,BYTE PTR [eax]
  100ff2:	3c 25                	cmp    al,0x25
  100ff4:	74 19                	je     10100f <_kvsprintf+0x34>
  100ff6:	8b 54 24 64          	mov    edx,DWORD PTR [esp+0x64]
  100ffa:	8b 44 24 40          	mov    eax,DWORD PTR [esp+0x40]
  100ffe:	8d 48 01             	lea    ecx,[eax+0x1]
  101001:	89 4c 24 40          	mov    DWORD PTR [esp+0x40],ecx
  101005:	0f b6 12             	movzx  edx,BYTE PTR [edx]
  101008:	88 10                	mov    BYTE PTR [eax],dl
  10100a:	e9 87 04 00 00       	jmp    101496 <_kvsprintf+0x4bb>
  10100f:	c7 44 24 38 00 00 00 	mov    DWORD PTR [esp+0x38],0x0
  101016:	00 
  101017:	8b 44 24 64          	mov    eax,DWORD PTR [esp+0x64]
  10101b:	83 c0 01             	add    eax,0x1
  10101e:	89 44 24 64          	mov    DWORD PTR [esp+0x64],eax
  101022:	8b 44 24 64          	mov    eax,DWORD PTR [esp+0x64]
  101026:	0f b6 00             	movzx  eax,BYTE PTR [eax]
  101029:	0f be c0             	movsx  eax,al
  10102c:	83 e8 20             	sub    eax,0x20
  10102f:	83 f8 10             	cmp    eax,0x10
  101032:	77 2c                	ja     101060 <_kvsprintf+0x85>
  101034:	8b 04 85 a8 30 10 00 	mov    eax,DWORD PTR [eax*4+0x1030a8]
  10103b:	ff e0                	jmp    eax
  10103d:	83 4c 24 38 10       	or     DWORD PTR [esp+0x38],0x10
  101042:	eb d3                	jmp    101017 <_kvsprintf+0x3c>
  101044:	83 4c 24 38 04       	or     DWORD PTR [esp+0x38],0x4
  101049:	eb cc                	jmp    101017 <_kvsprintf+0x3c>
  10104b:	83 4c 24 38 08       	or     DWORD PTR [esp+0x38],0x8
  101050:	eb c5                	jmp    101017 <_kvsprintf+0x3c>
  101052:	83 4c 24 38 40       	or     DWORD PTR [esp+0x38],0x40
  101057:	eb be                	jmp    101017 <_kvsprintf+0x3c>
  101059:	83 4c 24 38 01       	or     DWORD PTR [esp+0x38],0x1
  10105e:	eb b7                	jmp    101017 <_kvsprintf+0x3c>
  101060:	c7 44 24 34 ff ff ff 	mov    DWORD PTR [esp+0x34],0xffffffff
  101067:	ff 
  101068:	8b 44 24 64          	mov    eax,DWORD PTR [esp+0x64]
  10106c:	0f b6 00             	movzx  eax,BYTE PTR [eax]
  10106f:	0f be c0             	movsx  eax,al
  101072:	89 04 24             	mov    DWORD PTR [esp],eax
  101075:	e8 6a fc ff ff       	call   100ce4 <_isdigit>
  10107a:	85 c0                	test   eax,eax
  10107c:	74 12                	je     101090 <_kvsprintf+0xb5>
  10107e:	8d 44 24 64          	lea    eax,[esp+0x64]
  101082:	89 04 24             	mov    DWORD PTR [esp],eax
  101085:	e8 74 fc ff ff       	call   100cfe <_skip_atoi>
  10108a:	89 44 24 34          	mov    DWORD PTR [esp+0x34],eax
  10108e:	eb 37                	jmp    1010c7 <_kvsprintf+0xec>
  101090:	8b 44 24 64          	mov    eax,DWORD PTR [esp+0x64]
  101094:	0f b6 00             	movzx  eax,BYTE PTR [eax]
  101097:	3c 2a                	cmp    al,0x2a
  101099:	75 2c                	jne    1010c7 <_kvsprintf+0xec>
  10109b:	8b 44 24 64          	mov    eax,DWORD PTR [esp+0x64]
  10109f:	83 c0 01             	add    eax,0x1
  1010a2:	89 44 24 64          	mov    DWORD PTR [esp+0x64],eax
  1010a6:	8b 44 24 68          	mov    eax,DWORD PTR [esp+0x68]
  1010aa:	8d 50 04             	lea    edx,[eax+0x4]
  1010ad:	89 54 24 68          	mov    DWORD PTR [esp+0x68],edx
  1010b1:	8b 00                	mov    eax,DWORD PTR [eax]
  1010b3:	89 44 24 34          	mov    DWORD PTR [esp+0x34],eax
  1010b7:	83 7c 24 34 00       	cmp    DWORD PTR [esp+0x34],0x0
  1010bc:	79 09                	jns    1010c7 <_kvsprintf+0xec>
  1010be:	f7 5c 24 34          	neg    DWORD PTR [esp+0x34]
  1010c2:	83 4c 24 38 10       	or     DWORD PTR [esp+0x38],0x10
  1010c7:	c7 44 24 30 ff ff ff 	mov    DWORD PTR [esp+0x30],0xffffffff
  1010ce:	ff 
  1010cf:	8b 44 24 64          	mov    eax,DWORD PTR [esp+0x64]
  1010d3:	0f b6 00             	movzx  eax,BYTE PTR [eax]
  1010d6:	3c 2e                	cmp    al,0x2e
  1010d8:	75 69                	jne    101143 <_kvsprintf+0x168>
  1010da:	8b 44 24 64          	mov    eax,DWORD PTR [esp+0x64]
  1010de:	83 c0 01             	add    eax,0x1
  1010e1:	89 44 24 64          	mov    DWORD PTR [esp+0x64],eax
  1010e5:	8b 44 24 64          	mov    eax,DWORD PTR [esp+0x64]
  1010e9:	0f b6 00             	movzx  eax,BYTE PTR [eax]
  1010ec:	0f be c0             	movsx  eax,al
  1010ef:	89 04 24             	mov    DWORD PTR [esp],eax
  1010f2:	e8 ed fb ff ff       	call   100ce4 <_isdigit>
  1010f7:	85 c0                	test   eax,eax
  1010f9:	74 12                	je     10110d <_kvsprintf+0x132>
  1010fb:	8d 44 24 64          	lea    eax,[esp+0x64]
  1010ff:	89 04 24             	mov    DWORD PTR [esp],eax
  101102:	e8 f7 fb ff ff       	call   100cfe <_skip_atoi>
  101107:	89 44 24 30          	mov    DWORD PTR [esp+0x30],eax
  10110b:	eb 27                	jmp    101134 <_kvsprintf+0x159>
  10110d:	8b 44 24 64          	mov    eax,DWORD PTR [esp+0x64]
  101111:	0f b6 00             	movzx  eax,BYTE PTR [eax]
  101114:	3c 2a                	cmp    al,0x2a
  101116:	75 1c                	jne    101134 <_kvsprintf+0x159>
  101118:	8b 44 24 64          	mov    eax,DWORD PTR [esp+0x64]
  10111c:	83 c0 01             	add    eax,0x1
  10111f:	89 44 24 64          	mov    DWORD PTR [esp+0x64],eax
  101123:	8b 44 24 68          	mov    eax,DWORD PTR [esp+0x68]
  101127:	8d 50 04             	lea    edx,[eax+0x4]
  10112a:	89 54 24 68          	mov    DWORD PTR [esp+0x68],edx
  10112e:	8b 00                	mov    eax,DWORD PTR [eax]
  101130:	89 44 24 30          	mov    DWORD PTR [esp+0x30],eax
  101134:	83 7c 24 30 00       	cmp    DWORD PTR [esp+0x30],0x0
  101139:	79 08                	jns    101143 <_kvsprintf+0x168>
  10113b:	c7 44 24 30 00 00 00 	mov    DWORD PTR [esp+0x30],0x0
  101142:	00 
  101143:	c7 44 24 2c ff ff ff 	mov    DWORD PTR [esp+0x2c],0xffffffff
  10114a:	ff 
  10114b:	8b 44 24 64          	mov    eax,DWORD PTR [esp+0x64]
  10114f:	0f b6 00             	movzx  eax,BYTE PTR [eax]
  101152:	3c 68                	cmp    al,0x68
  101154:	74 16                	je     10116c <_kvsprintf+0x191>
  101156:	8b 44 24 64          	mov    eax,DWORD PTR [esp+0x64]
  10115a:	0f b6 00             	movzx  eax,BYTE PTR [eax]
  10115d:	3c 6c                	cmp    al,0x6c
  10115f:	74 0b                	je     10116c <_kvsprintf+0x191>
  101161:	8b 44 24 64          	mov    eax,DWORD PTR [esp+0x64]
  101165:	0f b6 00             	movzx  eax,BYTE PTR [eax]
  101168:	3c 4c                	cmp    al,0x4c
  10116a:	75 19                	jne    101185 <_kvsprintf+0x1aa>
  10116c:	8b 44 24 64          	mov    eax,DWORD PTR [esp+0x64]
  101170:	0f b6 00             	movzx  eax,BYTE PTR [eax]
  101173:	0f be c0             	movsx  eax,al
  101176:	89 44 24 2c          	mov    DWORD PTR [esp+0x2c],eax
  10117a:	8b 44 24 64          	mov    eax,DWORD PTR [esp+0x64]
  10117e:	83 c0 01             	add    eax,0x1
  101181:	89 44 24 64          	mov    DWORD PTR [esp+0x64],eax
  101185:	c7 44 24 44 0a 00 00 	mov    DWORD PTR [esp+0x44],0xa
  10118c:	00 
  10118d:	8b 44 24 64          	mov    eax,DWORD PTR [esp+0x64]
  101191:	0f b6 00             	movzx  eax,BYTE PTR [eax]
  101194:	0f be c0             	movsx  eax,al
  101197:	83 e8 25             	sub    eax,0x25
  10119a:	83 f8 53             	cmp    eax,0x53
  10119d:	0f 87 fe 01 00 00    	ja     1013a1 <_kvsprintf+0x3c6>
  1011a3:	8b 04 85 ec 30 10 00 	mov    eax,DWORD PTR [eax*4+0x1030ec]
  1011aa:	ff e0                	jmp    eax
  1011ac:	8b 44 24 38          	mov    eax,DWORD PTR [esp+0x38]
  1011b0:	83 e0 10             	and    eax,0x10
  1011b3:	85 c0                	test   eax,eax
  1011b5:	75 1c                	jne    1011d3 <_kvsprintf+0x1f8>
  1011b7:	eb 0e                	jmp    1011c7 <_kvsprintf+0x1ec>
  1011b9:	8b 44 24 40          	mov    eax,DWORD PTR [esp+0x40]
  1011bd:	8d 50 01             	lea    edx,[eax+0x1]
  1011c0:	89 54 24 40          	mov    DWORD PTR [esp+0x40],edx
  1011c4:	c6 00 20             	mov    BYTE PTR [eax],0x20
  1011c7:	83 6c 24 34 01       	sub    DWORD PTR [esp+0x34],0x1
  1011cc:	83 7c 24 34 00       	cmp    DWORD PTR [esp+0x34],0x0
  1011d1:	7f e6                	jg     1011b9 <_kvsprintf+0x1de>
  1011d3:	8b 44 24 68          	mov    eax,DWORD PTR [esp+0x68]
  1011d7:	8d 50 04             	lea    edx,[eax+0x4]
  1011da:	89 54 24 68          	mov    DWORD PTR [esp+0x68],edx
  1011de:	8b 08                	mov    ecx,DWORD PTR [eax]
  1011e0:	8b 44 24 40          	mov    eax,DWORD PTR [esp+0x40]
  1011e4:	8d 50 01             	lea    edx,[eax+0x1]
  1011e7:	89 54 24 40          	mov    DWORD PTR [esp+0x40],edx
  1011eb:	89 ca                	mov    edx,ecx
  1011ed:	88 10                	mov    BYTE PTR [eax],dl
  1011ef:	eb 0e                	jmp    1011ff <_kvsprintf+0x224>
  1011f1:	8b 44 24 40          	mov    eax,DWORD PTR [esp+0x40]
  1011f5:	8d 50 01             	lea    edx,[eax+0x1]
  1011f8:	89 54 24 40          	mov    DWORD PTR [esp+0x40],edx
  1011fc:	c6 00 20             	mov    BYTE PTR [eax],0x20
  1011ff:	83 6c 24 34 01       	sub    DWORD PTR [esp+0x34],0x1
  101204:	83 7c 24 34 00       	cmp    DWORD PTR [esp+0x34],0x0
  101209:	7f e6                	jg     1011f1 <_kvsprintf+0x216>
  10120b:	e9 86 02 00 00       	jmp    101496 <_kvsprintf+0x4bb>
  101210:	8b 44 24 68          	mov    eax,DWORD PTR [esp+0x68]
  101214:	8d 50 04             	lea    edx,[eax+0x4]
  101217:	89 54 24 68          	mov    DWORD PTR [esp+0x68],edx
  10121b:	8b 00                	mov    eax,DWORD PTR [eax]
  10121d:	89 44 24 3c          	mov    DWORD PTR [esp+0x3c],eax
  101221:	8b 44 24 30          	mov    eax,DWORD PTR [esp+0x30]
  101225:	89 44 24 04          	mov    DWORD PTR [esp+0x4],eax
  101229:	8b 44 24 3c          	mov    eax,DWORD PTR [esp+0x3c]
  10122d:	89 04 24             	mov    DWORD PTR [esp],eax
  101230:	e8 83 f5 ff ff       	call   1007b8 <_strnlen>
  101235:	89 44 24 28          	mov    DWORD PTR [esp+0x28],eax
  101239:	8b 44 24 38          	mov    eax,DWORD PTR [esp+0x38]
  10123d:	83 e0 10             	and    eax,0x10
  101240:	85 c0                	test   eax,eax
  101242:	75 21                	jne    101265 <_kvsprintf+0x28a>
  101244:	eb 0e                	jmp    101254 <_kvsprintf+0x279>
  101246:	8b 44 24 40          	mov    eax,DWORD PTR [esp+0x40]
  10124a:	8d 50 01             	lea    edx,[eax+0x1]
  10124d:	89 54 24 40          	mov    DWORD PTR [esp+0x40],edx
  101251:	c6 00 20             	mov    BYTE PTR [eax],0x20
  101254:	8b 44 24 34          	mov    eax,DWORD PTR [esp+0x34]
  101258:	8d 50 ff             	lea    edx,[eax-0x1]
  10125b:	89 54 24 34          	mov    DWORD PTR [esp+0x34],edx
  10125f:	39 44 24 28          	cmp    DWORD PTR [esp+0x28],eax
  101263:	7c e1                	jl     101246 <_kvsprintf+0x26b>
  101265:	c7 44 24 48 00 00 00 	mov    DWORD PTR [esp+0x48],0x0
  10126c:	00 
  10126d:	eb 20                	jmp    10128f <_kvsprintf+0x2b4>
  10126f:	8b 54 24 3c          	mov    edx,DWORD PTR [esp+0x3c]
  101273:	8d 42 01             	lea    eax,[edx+0x1]
  101276:	89 44 24 3c          	mov    DWORD PTR [esp+0x3c],eax
  10127a:	8b 44 24 40          	mov    eax,DWORD PTR [esp+0x40]
  10127e:	8d 48 01             	lea    ecx,[eax+0x1]
  101281:	89 4c 24 40          	mov    DWORD PTR [esp+0x40],ecx
  101285:	0f b6 12             	movzx  edx,BYTE PTR [edx]
  101288:	88 10                	mov    BYTE PTR [eax],dl
  10128a:	83 44 24 48 01       	add    DWORD PTR [esp+0x48],0x1
  10128f:	8b 44 24 48          	mov    eax,DWORD PTR [esp+0x48]
  101293:	3b 44 24 28          	cmp    eax,DWORD PTR [esp+0x28]
  101297:	7c d6                	jl     10126f <_kvsprintf+0x294>
  101299:	eb 0e                	jmp    1012a9 <_kvsprintf+0x2ce>
  10129b:	8b 44 24 40          	mov    eax,DWORD PTR [esp+0x40]
  10129f:	8d 50 01             	lea    edx,[eax+0x1]
  1012a2:	89 54 24 40          	mov    DWORD PTR [esp+0x40],edx
  1012a6:	c6 00 20             	mov    BYTE PTR [eax],0x20
  1012a9:	8b 44 24 34          	mov    eax,DWORD PTR [esp+0x34]
  1012ad:	8d 50 ff             	lea    edx,[eax-0x1]
  1012b0:	89 54 24 34          	mov    DWORD PTR [esp+0x34],edx
  1012b4:	39 44 24 28          	cmp    DWORD PTR [esp+0x28],eax
  1012b8:	7c e1                	jl     10129b <_kvsprintf+0x2c0>
  1012ba:	e9 d7 01 00 00       	jmp    101496 <_kvsprintf+0x4bb>
  1012bf:	83 7c 24 34 ff       	cmp    DWORD PTR [esp+0x34],0xffffffff
  1012c4:	75 0d                	jne    1012d3 <_kvsprintf+0x2f8>
  1012c6:	c7 44 24 34 08 00 00 	mov    DWORD PTR [esp+0x34],0x8
  1012cd:	00 
  1012ce:	83 4c 24 38 01       	or     DWORD PTR [esp+0x38],0x1
  1012d3:	8b 44 24 68          	mov    eax,DWORD PTR [esp+0x68]
  1012d7:	8d 50 04             	lea    edx,[eax+0x4]
  1012da:	89 54 24 68          	mov    DWORD PTR [esp+0x68],edx
  1012de:	8b 00                	mov    eax,DWORD PTR [eax]
  1012e0:	89 c2                	mov    edx,eax
  1012e2:	8b 44 24 38          	mov    eax,DWORD PTR [esp+0x38]
  1012e6:	89 44 24 14          	mov    DWORD PTR [esp+0x14],eax
  1012ea:	8b 44 24 30          	mov    eax,DWORD PTR [esp+0x30]
  1012ee:	89 44 24 10          	mov    DWORD PTR [esp+0x10],eax
  1012f2:	8b 44 24 34          	mov    eax,DWORD PTR [esp+0x34]
  1012f6:	89 44 24 0c          	mov    DWORD PTR [esp+0xc],eax
  1012fa:	c7 44 24 08 10 00 00 	mov    DWORD PTR [esp+0x8],0x10
  101301:	00 
  101302:	89 54 24 04          	mov    DWORD PTR [esp+0x4],edx
  101306:	8b 44 24 40          	mov    eax,DWORD PTR [esp+0x40]
  10130a:	89 04 24             	mov    DWORD PTR [esp],eax
  10130d:	e8 48 fa ff ff       	call   100d5a <_knumber>
  101312:	89 44 24 40          	mov    DWORD PTR [esp+0x40],eax
  101316:	e9 7b 01 00 00       	jmp    101496 <_kvsprintf+0x4bb>
  10131b:	83 7c 24 2c 6c       	cmp    DWORD PTR [esp+0x2c],0x6c
  101320:	75 26                	jne    101348 <_kvsprintf+0x36d>
  101322:	8b 44 24 68          	mov    eax,DWORD PTR [esp+0x68]
  101326:	8d 50 04             	lea    edx,[eax+0x4]
  101329:	89 54 24 68          	mov    DWORD PTR [esp+0x68],edx
  10132d:	8b 00                	mov    eax,DWORD PTR [eax]
  10132f:	89 44 24 20          	mov    DWORD PTR [esp+0x20],eax
  101333:	8b 44 24 40          	mov    eax,DWORD PTR [esp+0x40]
  101337:	2b 44 24 60          	sub    eax,DWORD PTR [esp+0x60]
  10133b:	89 c2                	mov    edx,eax
  10133d:	8b 44 24 20          	mov    eax,DWORD PTR [esp+0x20]
  101341:	89 10                	mov    DWORD PTR [eax],edx
  101343:	e9 4e 01 00 00       	jmp    101496 <_kvsprintf+0x4bb>
  101348:	8b 44 24 68          	mov    eax,DWORD PTR [esp+0x68]
  10134c:	8d 50 04             	lea    edx,[eax+0x4]
  10134f:	89 54 24 68          	mov    DWORD PTR [esp+0x68],edx
  101353:	8b 00                	mov    eax,DWORD PTR [eax]
  101355:	89 44 24 24          	mov    DWORD PTR [esp+0x24],eax
  101359:	8b 44 24 40          	mov    eax,DWORD PTR [esp+0x40]
  10135d:	2b 44 24 60          	sub    eax,DWORD PTR [esp+0x60]
  101361:	89 c2                	mov    edx,eax
  101363:	8b 44 24 24          	mov    eax,DWORD PTR [esp+0x24]
  101367:	89 10                	mov    DWORD PTR [eax],edx
  101369:	e9 28 01 00 00       	jmp    101496 <_kvsprintf+0x4bb>
  10136e:	8b 44 24 40          	mov    eax,DWORD PTR [esp+0x40]
  101372:	8d 50 01             	lea    edx,[eax+0x1]
  101375:	89 54 24 40          	mov    DWORD PTR [esp+0x40],edx
  101379:	c6 00 25             	mov    BYTE PTR [eax],0x25
  10137c:	e9 15 01 00 00       	jmp    101496 <_kvsprintf+0x4bb>
  101381:	c7 44 24 44 08 00 00 	mov    DWORD PTR [esp+0x44],0x8
  101388:	00 
  101389:	eb 59                	jmp    1013e4 <_kvsprintf+0x409>
  10138b:	83 4c 24 38 20       	or     DWORD PTR [esp+0x38],0x20
  101390:	c7 44 24 44 10 00 00 	mov    DWORD PTR [esp+0x44],0x10
  101397:	00 
  101398:	eb 4a                	jmp    1013e4 <_kvsprintf+0x409>
  10139a:	83 4c 24 38 02       	or     DWORD PTR [esp+0x38],0x2
  10139f:	eb 42                	jmp    1013e3 <_kvsprintf+0x408>
  1013a1:	8b 44 24 40          	mov    eax,DWORD PTR [esp+0x40]
  1013a5:	8d 50 01             	lea    edx,[eax+0x1]
  1013a8:	89 54 24 40          	mov    DWORD PTR [esp+0x40],edx
  1013ac:	c6 00 25             	mov    BYTE PTR [eax],0x25
  1013af:	8b 44 24 64          	mov    eax,DWORD PTR [esp+0x64]
  1013b3:	0f b6 00             	movzx  eax,BYTE PTR [eax]
  1013b6:	84 c0                	test   al,al
  1013b8:	74 19                	je     1013d3 <_kvsprintf+0x3f8>
  1013ba:	8b 54 24 64          	mov    edx,DWORD PTR [esp+0x64]
  1013be:	8b 44 24 40          	mov    eax,DWORD PTR [esp+0x40]
  1013c2:	8d 48 01             	lea    ecx,[eax+0x1]
  1013c5:	89 4c 24 40          	mov    DWORD PTR [esp+0x40],ecx
  1013c9:	0f b6 12             	movzx  edx,BYTE PTR [edx]
  1013cc:	88 10                	mov    BYTE PTR [eax],dl
  1013ce:	e9 c3 00 00 00       	jmp    101496 <_kvsprintf+0x4bb>
  1013d3:	8b 44 24 64          	mov    eax,DWORD PTR [esp+0x64]
  1013d7:	83 e8 01             	sub    eax,0x1
  1013da:	89 44 24 64          	mov    DWORD PTR [esp+0x64],eax
  1013de:	e9 b3 00 00 00       	jmp    101496 <_kvsprintf+0x4bb>
  1013e3:	90                   	nop
  1013e4:	83 7c 24 2c 6c       	cmp    DWORD PTR [esp+0x2c],0x6c
  1013e9:	75 13                	jne    1013fe <_kvsprintf+0x423>
  1013eb:	8b 44 24 68          	mov    eax,DWORD PTR [esp+0x68]
  1013ef:	8d 50 04             	lea    edx,[eax+0x4]
  1013f2:	89 54 24 68          	mov    DWORD PTR [esp+0x68],edx
  1013f6:	8b 00                	mov    eax,DWORD PTR [eax]
  1013f8:	89 44 24 4c          	mov    DWORD PTR [esp+0x4c],eax
  1013fc:	eb 60                	jmp    10145e <_kvsprintf+0x483>
  1013fe:	83 7c 24 2c 68       	cmp    DWORD PTR [esp+0x2c],0x68
  101403:	75 2a                	jne    10142f <_kvsprintf+0x454>
  101405:	8b 44 24 68          	mov    eax,DWORD PTR [esp+0x68]
  101409:	8d 50 04             	lea    edx,[eax+0x4]
  10140c:	89 54 24 68          	mov    DWORD PTR [esp+0x68],edx
  101410:	8b 00                	mov    eax,DWORD PTR [eax]
  101412:	0f b7 c0             	movzx  eax,ax
  101415:	89 44 24 4c          	mov    DWORD PTR [esp+0x4c],eax
  101419:	8b 44 24 38          	mov    eax,DWORD PTR [esp+0x38]
  10141d:	83 e0 02             	and    eax,0x2
  101420:	85 c0                	test   eax,eax
  101422:	74 3a                	je     10145e <_kvsprintf+0x483>
  101424:	8b 44 24 4c          	mov    eax,DWORD PTR [esp+0x4c]
  101428:	98                   	cwde   
  101429:	89 44 24 4c          	mov    DWORD PTR [esp+0x4c],eax
  10142d:	eb 2f                	jmp    10145e <_kvsprintf+0x483>
  10142f:	8b 44 24 38          	mov    eax,DWORD PTR [esp+0x38]
  101433:	83 e0 02             	and    eax,0x2
  101436:	85 c0                	test   eax,eax
  101438:	74 13                	je     10144d <_kvsprintf+0x472>
  10143a:	8b 44 24 68          	mov    eax,DWORD PTR [esp+0x68]
  10143e:	8d 50 04             	lea    edx,[eax+0x4]
  101441:	89 54 24 68          	mov    DWORD PTR [esp+0x68],edx
  101445:	8b 00                	mov    eax,DWORD PTR [eax]
  101447:	89 44 24 4c          	mov    DWORD PTR [esp+0x4c],eax
  10144b:	eb 11                	jmp    10145e <_kvsprintf+0x483>
  10144d:	8b 44 24 68          	mov    eax,DWORD PTR [esp+0x68]
  101451:	8d 50 04             	lea    edx,[eax+0x4]
  101454:	89 54 24 68          	mov    DWORD PTR [esp+0x68],edx
  101458:	8b 00                	mov    eax,DWORD PTR [eax]
  10145a:	89 44 24 4c          	mov    DWORD PTR [esp+0x4c],eax
  10145e:	8b 44 24 4c          	mov    eax,DWORD PTR [esp+0x4c]
  101462:	8b 54 24 38          	mov    edx,DWORD PTR [esp+0x38]
  101466:	89 54 24 14          	mov    DWORD PTR [esp+0x14],edx
  10146a:	8b 54 24 30          	mov    edx,DWORD PTR [esp+0x30]
  10146e:	89 54 24 10          	mov    DWORD PTR [esp+0x10],edx
  101472:	8b 54 24 34          	mov    edx,DWORD PTR [esp+0x34]
  101476:	89 54 24 0c          	mov    DWORD PTR [esp+0xc],edx
  10147a:	8b 54 24 44          	mov    edx,DWORD PTR [esp+0x44]
  10147e:	89 54 24 08          	mov    DWORD PTR [esp+0x8],edx
  101482:	89 44 24 04          	mov    DWORD PTR [esp+0x4],eax
  101486:	8b 44 24 40          	mov    eax,DWORD PTR [esp+0x40]
  10148a:	89 04 24             	mov    DWORD PTR [esp],eax
  10148d:	e8 c8 f8 ff ff       	call   100d5a <_knumber>
  101492:	89 44 24 40          	mov    DWORD PTR [esp+0x40],eax
  101496:	8b 44 24 64          	mov    eax,DWORD PTR [esp+0x64]
  10149a:	83 c0 01             	add    eax,0x1
  10149d:	89 44 24 64          	mov    DWORD PTR [esp+0x64],eax
  1014a1:	8b 44 24 64          	mov    eax,DWORD PTR [esp+0x64]
  1014a5:	0f b6 00             	movzx  eax,BYTE PTR [eax]
  1014a8:	84 c0                	test   al,al
  1014aa:	0f 85 3b fb ff ff    	jne    100feb <_kvsprintf+0x10>
  1014b0:	8b 44 24 40          	mov    eax,DWORD PTR [esp+0x40]
  1014b4:	c6 00 00             	mov    BYTE PTR [eax],0x0
  1014b7:	8b 44 24 40          	mov    eax,DWORD PTR [esp+0x40]
  1014bb:	2b 44 24 60          	sub    eax,DWORD PTR [esp+0x60]
  1014bf:	83 c4 5c             	add    esp,0x5c
  1014c2:	c3                   	ret    

001014c3 <_ksprintf>:
  1014c3:	83 ec 2c             	sub    esp,0x2c
  1014c6:	8d 44 24 38          	lea    eax,[esp+0x38]
  1014ca:	89 44 24 18          	mov    DWORD PTR [esp+0x18],eax
  1014ce:	8b 44 24 18          	mov    eax,DWORD PTR [esp+0x18]
  1014d2:	89 44 24 08          	mov    DWORD PTR [esp+0x8],eax
  1014d6:	8b 44 24 34          	mov    eax,DWORD PTR [esp+0x34]
  1014da:	89 44 24 04          	mov    DWORD PTR [esp+0x4],eax
  1014de:	8b 44 24 30          	mov    eax,DWORD PTR [esp+0x30]
  1014e2:	89 04 24             	mov    DWORD PTR [esp],eax
  1014e5:	e8 f1 fa ff ff       	call   100fdb <_kvsprintf>
  1014ea:	89 44 24 1c          	mov    DWORD PTR [esp+0x1c],eax
  1014ee:	8b 44 24 1c          	mov    eax,DWORD PTR [esp+0x1c]
  1014f2:	83 c4 2c             	add    esp,0x2c
  1014f5:	c3                   	ret    

001014f6 <_kprintf>:
  1014f6:	81 ec 2c 04 00 00    	sub    esp,0x42c
  1014fc:	8d 84 24 34 04 00 00 	lea    eax,[esp+0x434]
  101503:	89 44 24 18          	mov    DWORD PTR [esp+0x18],eax
  101507:	8b 44 24 18          	mov    eax,DWORD PTR [esp+0x18]
  10150b:	89 44 24 08          	mov    DWORD PTR [esp+0x8],eax
  10150f:	8b 84 24 30 04 00 00 	mov    eax,DWORD PTR [esp+0x430]
  101516:	89 44 24 04          	mov    DWORD PTR [esp+0x4],eax
  10151a:	8d 44 24 1c          	lea    eax,[esp+0x1c]
  10151e:	89 04 24             	mov    DWORD PTR [esp],eax
  101521:	e8 b5 fa ff ff       	call   100fdb <_kvsprintf>
  101526:	89 84 24 1c 04 00 00 	mov    DWORD PTR [esp+0x41c],eax
  10152d:	8d 44 24 1c          	lea    eax,[esp+0x1c]
  101531:	89 04 24             	mov    DWORD PTR [esp],eax
  101534:	e8 2e f0 ff ff       	call   100567 <_kprint>
  101539:	8b 84 24 1c 04 00 00 	mov    eax,DWORD PTR [esp+0x41c]
  101540:	81 c4 2c 04 00 00    	add    esp,0x42c
  101546:	c3                   	ret    
  101547:	90                   	nop

00101548 <_gdt_set_entry>:
  101548:	83 ec 18             	sub    esp,0x18
  10154b:	8b 54 24 28          	mov    edx,DWORD PTR [esp+0x28]
  10154f:	8b 44 24 2c          	mov    eax,DWORD PTR [esp+0x2c]
  101553:	88 54 24 04          	mov    BYTE PTR [esp+0x4],dl
  101557:	88 04 24             	mov    BYTE PTR [esp],al
  10155a:	8b 44 24 1c          	mov    eax,DWORD PTR [esp+0x1c]
  10155e:	c1 e0 03             	shl    eax,0x3
  101561:	05 20 80 10 00       	add    eax,0x108020
  101566:	89 44 24 14          	mov    DWORD PTR [esp+0x14],eax
  10156a:	8b 44 24 20          	mov    eax,DWORD PTR [esp+0x20]
  10156e:	89 c2                	mov    edx,eax
  101570:	8b 44 24 14          	mov    eax,DWORD PTR [esp+0x14]
  101574:	66 89 50 02          	mov    WORD PTR [eax+0x2],dx
  101578:	8b 44 24 20          	mov    eax,DWORD PTR [esp+0x20]
  10157c:	c1 e8 10             	shr    eax,0x10
  10157f:	89 c2                	mov    edx,eax
  101581:	8b 44 24 14          	mov    eax,DWORD PTR [esp+0x14]
  101585:	88 50 04             	mov    BYTE PTR [eax+0x4],dl
  101588:	8b 44 24 20          	mov    eax,DWORD PTR [esp+0x20]
  10158c:	c1 e8 18             	shr    eax,0x18
  10158f:	89 c2                	mov    edx,eax
  101591:	8b 44 24 14          	mov    eax,DWORD PTR [esp+0x14]
  101595:	88 50 07             	mov    BYTE PTR [eax+0x7],dl
  101598:	8b 44 24 24          	mov    eax,DWORD PTR [esp+0x24]
  10159c:	89 c2                	mov    edx,eax
  10159e:	8b 44 24 14          	mov    eax,DWORD PTR [esp+0x14]
  1015a2:	66 89 10             	mov    WORD PTR [eax],dx
  1015a5:	8b 44 24 24          	mov    eax,DWORD PTR [esp+0x24]
  1015a9:	c1 e8 10             	shr    eax,0x10
  1015ac:	83 e0 0f             	and    eax,0xf
  1015af:	89 c2                	mov    edx,eax
  1015b1:	8b 44 24 14          	mov    eax,DWORD PTR [esp+0x14]
  1015b5:	88 50 06             	mov    BYTE PTR [eax+0x6],dl
  1015b8:	8b 44 24 14          	mov    eax,DWORD PTR [esp+0x14]
  1015bc:	0f b6 54 24 04       	movzx  edx,BYTE PTR [esp+0x4]
  1015c1:	88 50 05             	mov    BYTE PTR [eax+0x5],dl
  1015c4:	8b 44 24 14          	mov    eax,DWORD PTR [esp+0x14]
  1015c8:	0f b6 40 06          	movzx  eax,BYTE PTR [eax+0x6]
  1015cc:	89 c2                	mov    edx,eax
  1015ce:	0f b6 04 24          	movzx  eax,BYTE PTR [esp]
  1015d2:	83 e0 f0             	and    eax,0xfffffff0
  1015d5:	09 d0                	or     eax,edx
  1015d7:	89 c2                	mov    edx,eax
  1015d9:	8b 44 24 14          	mov    eax,DWORD PTR [esp+0x14]
  1015dd:	88 50 06             	mov    BYTE PTR [eax+0x6],dl
  1015e0:	90                   	nop
  1015e1:	83 c4 18             	add    esp,0x18
  1015e4:	c3                   	ret    

001015e5 <_gdt_init>:
  1015e5:	83 ec 14             	sub    esp,0x14
  1015e8:	66 c7 05 60 80 10 00 	mov    WORD PTR ds:0x108060,0x3f
  1015ef:	3f 00 
  1015f1:	b8 20 80 10 00       	mov    eax,0x108020
  1015f6:	a3 62 80 10 00       	mov    ds:0x108062,eax
  1015fb:	c7 44 24 10 00 00 00 	mov    DWORD PTR [esp+0x10],0x0
  101602:	00 
  101603:	c7 44 24 0c 00 00 00 	mov    DWORD PTR [esp+0xc],0x0
  10160a:	00 
  10160b:	c7 44 24 08 00 00 00 	mov    DWORD PTR [esp+0x8],0x0
  101612:	00 
  101613:	c7 44 24 04 00 00 00 	mov    DWORD PTR [esp+0x4],0x0
  10161a:	00 
  10161b:	c7 04 24 00 00 00 00 	mov    DWORD PTR [esp],0x0
  101622:	e8 21 ff ff ff       	call   101548 <_gdt_set_entry>
  101627:	c7 44 24 10 cf 00 00 	mov    DWORD PTR [esp+0x10],0xcf
  10162e:	00 
  10162f:	c7 44 24 0c 9a 00 00 	mov    DWORD PTR [esp+0xc],0x9a
  101636:	00 
  101637:	c7 44 24 08 ff ff ff 	mov    DWORD PTR [esp+0x8],0xffffffff
  10163e:	ff 
  10163f:	c7 44 24 04 00 00 00 	mov    DWORD PTR [esp+0x4],0x0
  101646:	00 
  101647:	c7 04 24 01 00 00 00 	mov    DWORD PTR [esp],0x1
  10164e:	e8 f5 fe ff ff       	call   101548 <_gdt_set_entry>
  101653:	c7 44 24 10 cf 00 00 	mov    DWORD PTR [esp+0x10],0xcf
  10165a:	00 
  10165b:	c7 44 24 0c 92 00 00 	mov    DWORD PTR [esp+0xc],0x92
  101662:	00 
  101663:	c7 44 24 08 ff ff ff 	mov    DWORD PTR [esp+0x8],0xffffffff
  10166a:	ff 
  10166b:	c7 44 24 04 00 00 00 	mov    DWORD PTR [esp+0x4],0x0
  101672:	00 
  101673:	c7 04 24 02 00 00 00 	mov    DWORD PTR [esp],0x2
  10167a:	e8 c9 fe ff ff       	call   101548 <_gdt_set_entry>
  10167f:	c7 44 24 10 cf 00 00 	mov    DWORD PTR [esp+0x10],0xcf
  101686:	00 
  101687:	c7 44 24 0c fa 00 00 	mov    DWORD PTR [esp+0xc],0xfa
  10168e:	00 
  10168f:	c7 44 24 08 ff ff ff 	mov    DWORD PTR [esp+0x8],0xffffffff
  101696:	ff 
  101697:	c7 44 24 04 00 00 00 	mov    DWORD PTR [esp+0x4],0x0
  10169e:	00 
  10169f:	c7 04 24 03 00 00 00 	mov    DWORD PTR [esp],0x3
  1016a6:	e8 9d fe ff ff       	call   101548 <_gdt_set_entry>
  1016ab:	c7 44 24 10 cf 00 00 	mov    DWORD PTR [esp+0x10],0xcf
  1016b2:	00 
  1016b3:	c7 44 24 0c f2 00 00 	mov    DWORD PTR [esp+0xc],0xf2
  1016ba:	00 
  1016bb:	c7 44 24 08 ff ff ff 	mov    DWORD PTR [esp+0x8],0xffffffff
  1016c2:	ff 
  1016c3:	c7 44 24 04 00 00 00 	mov    DWORD PTR [esp+0x4],0x0
  1016ca:	00 
  1016cb:	c7 04 24 04 00 00 00 	mov    DWORD PTR [esp],0x4
  1016d2:	e8 71 fe ff ff       	call   101548 <_gdt_set_entry>
  1016d7:	0f 01 15 60 80 10 00 	lgdtd  ds:0x108060
  1016de:	66 b8 10 00          	mov    ax,0x10
  1016e2:	8e d8                	mov    ds,eax
  1016e4:	8e c0                	mov    es,eax
  1016e6:	8e e0                	mov    fs,eax
  1016e8:	8e e8                	mov    gs,eax
  1016ea:	8e d0                	mov    ss,eax
  1016ec:	ea f3 16 10 00 08 00 	jmp    0x8:0x1016f3

001016f3 <.i386_lgdt_jump>:
  1016f3:	90                   	nop
  1016f4:	83 c4 14             	add    esp,0x14
  1016f7:	c3                   	ret    

001016f8 <_register_interrupt_handler>:
  1016f8:	83 ec 1c             	sub    esp,0x1c
  1016fb:	8b 44 24 20          	mov    eax,DWORD PTR [esp+0x20]
  1016ff:	89 44 24 04          	mov    DWORD PTR [esp+0x4],eax
  101703:	c7 04 24 88 33 10 00 	mov    DWORD PTR [esp],0x103388
  10170a:	e8 e7 fd ff ff       	call   1014f6 <_kprintf>
  10170f:	81 7c 24 20 ff 00 00 	cmp    DWORD PTR [esp+0x20],0xff
  101716:	00 
  101717:	7f 0f                	jg     101728 <_register_interrupt_handler+0x30>
  101719:	8b 44 24 20          	mov    eax,DWORD PTR [esp+0x20]
  10171d:	8b 54 24 24          	mov    edx,DWORD PTR [esp+0x24]
  101721:	89 14 85 80 80 10 00 	mov    DWORD PTR [eax*4+0x108080],edx
  101728:	90                   	nop
  101729:	83 c4 1c             	add    esp,0x1c
  10172c:	c3                   	ret    

0010172d <_idt_set_entry>:
  10172d:	83 ec 18             	sub    esp,0x18
  101730:	8b 44 24 24          	mov    eax,DWORD PTR [esp+0x24]
  101734:	8b 54 24 28          	mov    edx,DWORD PTR [esp+0x28]
  101738:	66 89 44 24 04       	mov    WORD PTR [esp+0x4],ax
  10173d:	89 d0                	mov    eax,edx
  10173f:	88 04 24             	mov    BYTE PTR [esp],al
  101742:	8b 44 24 1c          	mov    eax,DWORD PTR [esp+0x1c]
  101746:	c1 e0 03             	shl    eax,0x3
  101749:	05 a0 84 10 00       	add    eax,0x1084a0
  10174e:	89 44 24 14          	mov    DWORD PTR [esp+0x14],eax
  101752:	8b 44 24 20          	mov    eax,DWORD PTR [esp+0x20]
  101756:	89 c2                	mov    edx,eax
  101758:	8b 44 24 14          	mov    eax,DWORD PTR [esp+0x14]
  10175c:	66 89 10             	mov    WORD PTR [eax],dx
  10175f:	8b 44 24 20          	mov    eax,DWORD PTR [esp+0x20]
  101763:	c1 e8 10             	shr    eax,0x10
  101766:	89 c2                	mov    edx,eax
  101768:	8b 44 24 14          	mov    eax,DWORD PTR [esp+0x14]
  10176c:	66 89 50 06          	mov    WORD PTR [eax+0x6],dx
  101770:	8b 44 24 14          	mov    eax,DWORD PTR [esp+0x14]
  101774:	c6 40 04 00          	mov    BYTE PTR [eax+0x4],0x0
  101778:	8b 44 24 14          	mov    eax,DWORD PTR [esp+0x14]
  10177c:	0f b7 54 24 04       	movzx  edx,WORD PTR [esp+0x4]
  101781:	66 89 50 02          	mov    WORD PTR [eax+0x2],dx
  101785:	0f b6 04 24          	movzx  eax,BYTE PTR [esp]
  101789:	83 c8 60             	or     eax,0x60
  10178c:	89 c2                	mov    edx,eax
  10178e:	8b 44 24 14          	mov    eax,DWORD PTR [esp+0x14]
  101792:	88 50 05             	mov    BYTE PTR [eax+0x5],dl
  101795:	90                   	nop
  101796:	83 c4 18             	add    esp,0x18
  101799:	c3                   	ret    

0010179a <_pic_init>:
  10179a:	83 ec 1c             	sub    esp,0x1c
  10179d:	c7 44 24 04 11 00 00 	mov    DWORD PTR [esp+0x4],0x11
  1017a4:	00 
  1017a5:	c7 04 24 20 00 00 00 	mov    DWORD PTR [esp],0x20
  1017ac:	e8 ae ee ff ff       	call   10065f <_port_byte_out>
  1017b1:	c7 44 24 04 11 00 00 	mov    DWORD PTR [esp+0x4],0x11
  1017b8:	00 
  1017b9:	c7 04 24 a0 00 00 00 	mov    DWORD PTR [esp],0xa0
  1017c0:	e8 9a ee ff ff       	call   10065f <_port_byte_out>
  1017c5:	c7 44 24 04 20 00 00 	mov    DWORD PTR [esp+0x4],0x20
  1017cc:	00 
  1017cd:	c7 04 24 21 00 00 00 	mov    DWORD PTR [esp],0x21
  1017d4:	e8 86 ee ff ff       	call   10065f <_port_byte_out>
  1017d9:	c7 44 24 04 28 00 00 	mov    DWORD PTR [esp+0x4],0x28
  1017e0:	00 
  1017e1:	c7 04 24 a1 00 00 00 	mov    DWORD PTR [esp],0xa1
  1017e8:	e8 72 ee ff ff       	call   10065f <_port_byte_out>
  1017ed:	c7 44 24 04 04 00 00 	mov    DWORD PTR [esp+0x4],0x4
  1017f4:	00 
  1017f5:	c7 04 24 21 00 00 00 	mov    DWORD PTR [esp],0x21
  1017fc:	e8 5e ee ff ff       	call   10065f <_port_byte_out>
  101801:	c7 44 24 04 02 00 00 	mov    DWORD PTR [esp+0x4],0x2
  101808:	00 
  101809:	c7 04 24 a1 00 00 00 	mov    DWORD PTR [esp],0xa1
  101810:	e8 4a ee ff ff       	call   10065f <_port_byte_out>
  101815:	c7 44 24 04 01 00 00 	mov    DWORD PTR [esp+0x4],0x1
  10181c:	00 
  10181d:	c7 04 24 21 00 00 00 	mov    DWORD PTR [esp],0x21
  101824:	e8 36 ee ff ff       	call   10065f <_port_byte_out>
  101829:	c7 44 24 04 01 00 00 	mov    DWORD PTR [esp+0x4],0x1
  101830:	00 
  101831:	c7 04 24 a1 00 00 00 	mov    DWORD PTR [esp],0xa1
  101838:	e8 22 ee ff ff       	call   10065f <_port_byte_out>
  10183d:	c7 44 24 04 00 00 00 	mov    DWORD PTR [esp+0x4],0x0
  101844:	00 
  101845:	c7 04 24 21 00 00 00 	mov    DWORD PTR [esp],0x21
  10184c:	e8 0e ee ff ff       	call   10065f <_port_byte_out>
  101851:	c7 44 24 04 00 00 00 	mov    DWORD PTR [esp+0x4],0x0
  101858:	00 
  101859:	c7 04 24 a1 00 00 00 	mov    DWORD PTR [esp],0xa1
  101860:	e8 fa ed ff ff       	call   10065f <_port_byte_out>
  101865:	90                   	nop
  101866:	83 c4 1c             	add    esp,0x1c
  101869:	c3                   	ret    

0010186a <_irq_ack>:
  10186a:	83 ec 2c             	sub    esp,0x2c
  10186d:	8b 44 24 30          	mov    eax,DWORD PTR [esp+0x30]
  101871:	88 44 24 1c          	mov    BYTE PTR [esp+0x1c],al
  101875:	80 7c 24 1c 27       	cmp    BYTE PTR [esp+0x1c],0x27
  10187a:	76 14                	jbe    101890 <_irq_ack+0x26>
  10187c:	c7 44 24 04 20 00 00 	mov    DWORD PTR [esp+0x4],0x20
  101883:	00 
  101884:	c7 04 24 a0 00 00 00 	mov    DWORD PTR [esp],0xa0
  10188b:	e8 cf ed ff ff       	call   10065f <_port_byte_out>
  101890:	c7 44 24 04 20 00 00 	mov    DWORD PTR [esp+0x4],0x20
  101897:	00 
  101898:	c7 04 24 20 00 00 00 	mov    DWORD PTR [esp],0x20
  10189f:	e8 bb ed ff ff       	call   10065f <_port_byte_out>
  1018a4:	90                   	nop
  1018a5:	83 c4 2c             	add    esp,0x2c
  1018a8:	c3                   	ret    

001018a9 <_idt_init>:
  1018a9:	83 ec 1c             	sub    esp,0x1c
  1018ac:	c7 44 24 08 00 08 00 	mov    DWORD PTR [esp+0x8],0x800
  1018b3:	00 
  1018b4:	c7 44 24 04 00 00 00 	mov    DWORD PTR [esp+0x4],0x0
  1018bb:	00 
  1018bc:	c7 04 24 a0 84 10 00 	mov    DWORD PTR [esp],0x1084a0
  1018c3:	e8 88 ee ff ff       	call   100750 <_memset>
  1018c8:	b8 a0 84 10 00       	mov    eax,0x1084a0
  1018cd:	a3 82 84 10 00       	mov    ds:0x108482,eax
  1018d2:	66 c7 05 80 84 10 00 	mov    WORD PTR ds:0x108480,0x7ff
  1018d9:	ff 07 
  1018db:	e8 ba fe ff ff       	call   10179a <_pic_init>
  1018e0:	b8 40 00 10 00       	mov    eax,0x100040
  1018e5:	c7 44 24 0c 8e 00 00 	mov    DWORD PTR [esp+0xc],0x8e
  1018ec:	00 
  1018ed:	c7 44 24 08 08 00 00 	mov    DWORD PTR [esp+0x8],0x8
  1018f4:	00 
  1018f5:	89 44 24 04          	mov    DWORD PTR [esp+0x4],eax
  1018f9:	c7 04 24 00 00 00 00 	mov    DWORD PTR [esp],0x0
  101900:	e8 28 fe ff ff       	call   10172d <_idt_set_entry>
  101905:	b8 4a 00 10 00       	mov    eax,0x10004a
  10190a:	c7 44 24 0c 8e 00 00 	mov    DWORD PTR [esp+0xc],0x8e
  101911:	00 
  101912:	c7 44 24 08 08 00 00 	mov    DWORD PTR [esp+0x8],0x8
  101919:	00 
  10191a:	89 44 24 04          	mov    DWORD PTR [esp+0x4],eax
  10191e:	c7 04 24 01 00 00 00 	mov    DWORD PTR [esp],0x1
  101925:	e8 03 fe ff ff       	call   10172d <_idt_set_entry>
  10192a:	b8 54 00 10 00       	mov    eax,0x100054
  10192f:	c7 44 24 0c 8e 00 00 	mov    DWORD PTR [esp+0xc],0x8e
  101936:	00 
  101937:	c7 44 24 08 08 00 00 	mov    DWORD PTR [esp+0x8],0x8
  10193e:	00 
  10193f:	89 44 24 04          	mov    DWORD PTR [esp+0x4],eax
  101943:	c7 04 24 02 00 00 00 	mov    DWORD PTR [esp],0x2
  10194a:	e8 de fd ff ff       	call   10172d <_idt_set_entry>
  10194f:	b8 5e 00 10 00       	mov    eax,0x10005e
  101954:	c7 44 24 0c 8e 00 00 	mov    DWORD PTR [esp+0xc],0x8e
  10195b:	00 
  10195c:	c7 44 24 08 08 00 00 	mov    DWORD PTR [esp+0x8],0x8
  101963:	00 
  101964:	89 44 24 04          	mov    DWORD PTR [esp+0x4],eax
  101968:	c7 04 24 03 00 00 00 	mov    DWORD PTR [esp],0x3
  10196f:	e8 b9 fd ff ff       	call   10172d <_idt_set_entry>
  101974:	b8 68 00 10 00       	mov    eax,0x100068
  101979:	c7 44 24 0c 8e 00 00 	mov    DWORD PTR [esp+0xc],0x8e
  101980:	00 
  101981:	c7 44 24 08 08 00 00 	mov    DWORD PTR [esp+0x8],0x8
  101988:	00 
  101989:	89 44 24 04          	mov    DWORD PTR [esp+0x4],eax
  10198d:	c7 04 24 04 00 00 00 	mov    DWORD PTR [esp],0x4
  101994:	e8 94 fd ff ff       	call   10172d <_idt_set_entry>
  101999:	b8 72 00 10 00       	mov    eax,0x100072
  10199e:	c7 44 24 0c 8e 00 00 	mov    DWORD PTR [esp+0xc],0x8e
  1019a5:	00 
  1019a6:	c7 44 24 08 08 00 00 	mov    DWORD PTR [esp+0x8],0x8
  1019ad:	00 
  1019ae:	89 44 24 04          	mov    DWORD PTR [esp+0x4],eax
  1019b2:	c7 04 24 05 00 00 00 	mov    DWORD PTR [esp],0x5
  1019b9:	e8 6f fd ff ff       	call   10172d <_idt_set_entry>
  1019be:	b8 7c 00 10 00       	mov    eax,0x10007c
  1019c3:	c7 44 24 0c 8e 00 00 	mov    DWORD PTR [esp+0xc],0x8e
  1019ca:	00 
  1019cb:	c7 44 24 08 08 00 00 	mov    DWORD PTR [esp+0x8],0x8
  1019d2:	00 
  1019d3:	89 44 24 04          	mov    DWORD PTR [esp+0x4],eax
  1019d7:	c7 04 24 06 00 00 00 	mov    DWORD PTR [esp],0x6
  1019de:	e8 4a fd ff ff       	call   10172d <_idt_set_entry>
  1019e3:	b8 86 00 10 00       	mov    eax,0x100086
  1019e8:	c7 44 24 0c 8e 00 00 	mov    DWORD PTR [esp+0xc],0x8e
  1019ef:	00 
  1019f0:	c7 44 24 08 08 00 00 	mov    DWORD PTR [esp+0x8],0x8
  1019f7:	00 
  1019f8:	89 44 24 04          	mov    DWORD PTR [esp+0x4],eax
  1019fc:	c7 04 24 07 00 00 00 	mov    DWORD PTR [esp],0x7
  101a03:	e8 25 fd ff ff       	call   10172d <_idt_set_entry>
  101a08:	b8 90 00 10 00       	mov    eax,0x100090
  101a0d:	c7 44 24 0c 8e 00 00 	mov    DWORD PTR [esp+0xc],0x8e
  101a14:	00 
  101a15:	c7 44 24 08 08 00 00 	mov    DWORD PTR [esp+0x8],0x8
  101a1c:	00 
  101a1d:	89 44 24 04          	mov    DWORD PTR [esp+0x4],eax
  101a21:	c7 04 24 08 00 00 00 	mov    DWORD PTR [esp],0x8
  101a28:	e8 00 fd ff ff       	call   10172d <_idt_set_entry>
  101a2d:	b8 98 00 10 00       	mov    eax,0x100098
  101a32:	c7 44 24 0c 8e 00 00 	mov    DWORD PTR [esp+0xc],0x8e
  101a39:	00 
  101a3a:	c7 44 24 08 08 00 00 	mov    DWORD PTR [esp+0x8],0x8
  101a41:	00 
  101a42:	89 44 24 04          	mov    DWORD PTR [esp+0x4],eax
  101a46:	c7 04 24 09 00 00 00 	mov    DWORD PTR [esp],0x9
  101a4d:	e8 db fc ff ff       	call   10172d <_idt_set_entry>
  101a52:	b8 a2 00 10 00       	mov    eax,0x1000a2
  101a57:	c7 44 24 0c 8e 00 00 	mov    DWORD PTR [esp+0xc],0x8e
  101a5e:	00 
  101a5f:	c7 44 24 08 08 00 00 	mov    DWORD PTR [esp+0x8],0x8
  101a66:	00 
  101a67:	89 44 24 04          	mov    DWORD PTR [esp+0x4],eax
  101a6b:	c7 04 24 0a 00 00 00 	mov    DWORD PTR [esp],0xa
  101a72:	e8 b6 fc ff ff       	call   10172d <_idt_set_entry>
  101a77:	b8 aa 00 10 00       	mov    eax,0x1000aa
  101a7c:	c7 44 24 0c 8e 00 00 	mov    DWORD PTR [esp+0xc],0x8e
  101a83:	00 
  101a84:	c7 44 24 08 08 00 00 	mov    DWORD PTR [esp+0x8],0x8
  101a8b:	00 
  101a8c:	89 44 24 04          	mov    DWORD PTR [esp+0x4],eax
  101a90:	c7 04 24 0b 00 00 00 	mov    DWORD PTR [esp],0xb
  101a97:	e8 91 fc ff ff       	call   10172d <_idt_set_entry>
  101a9c:	b8 b2 00 10 00       	mov    eax,0x1000b2
  101aa1:	c7 44 24 0c 8e 00 00 	mov    DWORD PTR [esp+0xc],0x8e
  101aa8:	00 
  101aa9:	c7 44 24 08 08 00 00 	mov    DWORD PTR [esp+0x8],0x8
  101ab0:	00 
  101ab1:	89 44 24 04          	mov    DWORD PTR [esp+0x4],eax
  101ab5:	c7 04 24 0c 00 00 00 	mov    DWORD PTR [esp],0xc
  101abc:	e8 6c fc ff ff       	call   10172d <_idt_set_entry>
  101ac1:	b8 ba 00 10 00       	mov    eax,0x1000ba
  101ac6:	c7 44 24 0c 8e 00 00 	mov    DWORD PTR [esp+0xc],0x8e
  101acd:	00 
  101ace:	c7 44 24 08 08 00 00 	mov    DWORD PTR [esp+0x8],0x8
  101ad5:	00 
  101ad6:	89 44 24 04          	mov    DWORD PTR [esp+0x4],eax
  101ada:	c7 04 24 0d 00 00 00 	mov    DWORD PTR [esp],0xd
  101ae1:	e8 47 fc ff ff       	call   10172d <_idt_set_entry>
  101ae6:	b8 c2 00 10 00       	mov    eax,0x1000c2
  101aeb:	c7 44 24 0c 8e 00 00 	mov    DWORD PTR [esp+0xc],0x8e
  101af2:	00 
  101af3:	c7 44 24 08 08 00 00 	mov    DWORD PTR [esp+0x8],0x8
  101afa:	00 
  101afb:	89 44 24 04          	mov    DWORD PTR [esp+0x4],eax
  101aff:	c7 04 24 0e 00 00 00 	mov    DWORD PTR [esp],0xe
  101b06:	e8 22 fc ff ff       	call   10172d <_idt_set_entry>
  101b0b:	b8 ca 00 10 00       	mov    eax,0x1000ca
  101b10:	c7 44 24 0c 8e 00 00 	mov    DWORD PTR [esp+0xc],0x8e
  101b17:	00 
  101b18:	c7 44 24 08 08 00 00 	mov    DWORD PTR [esp+0x8],0x8
  101b1f:	00 
  101b20:	89 44 24 04          	mov    DWORD PTR [esp+0x4],eax
  101b24:	c7 04 24 0f 00 00 00 	mov    DWORD PTR [esp],0xf
  101b2b:	e8 fd fb ff ff       	call   10172d <_idt_set_entry>
  101b30:	b8 d1 00 10 00       	mov    eax,0x1000d1
  101b35:	c7 44 24 0c 8e 00 00 	mov    DWORD PTR [esp+0xc],0x8e
  101b3c:	00 
  101b3d:	c7 44 24 08 08 00 00 	mov    DWORD PTR [esp+0x8],0x8
  101b44:	00 
  101b45:	89 44 24 04          	mov    DWORD PTR [esp+0x4],eax
  101b49:	c7 04 24 10 00 00 00 	mov    DWORD PTR [esp],0x10
  101b50:	e8 d8 fb ff ff       	call   10172d <_idt_set_entry>
  101b55:	b8 d8 00 10 00       	mov    eax,0x1000d8
  101b5a:	c7 44 24 0c 8e 00 00 	mov    DWORD PTR [esp+0xc],0x8e
  101b61:	00 
  101b62:	c7 44 24 08 08 00 00 	mov    DWORD PTR [esp+0x8],0x8
  101b69:	00 
  101b6a:	89 44 24 04          	mov    DWORD PTR [esp+0x4],eax
  101b6e:	c7 04 24 11 00 00 00 	mov    DWORD PTR [esp],0x11
  101b75:	e8 b3 fb ff ff       	call   10172d <_idt_set_entry>
  101b7a:	b8 df 00 10 00       	mov    eax,0x1000df
  101b7f:	c7 44 24 0c 8e 00 00 	mov    DWORD PTR [esp+0xc],0x8e
  101b86:	00 
  101b87:	c7 44 24 08 08 00 00 	mov    DWORD PTR [esp+0x8],0x8
  101b8e:	00 
  101b8f:	89 44 24 04          	mov    DWORD PTR [esp+0x4],eax
  101b93:	c7 04 24 12 00 00 00 	mov    DWORD PTR [esp],0x12
  101b9a:	e8 8e fb ff ff       	call   10172d <_idt_set_entry>
  101b9f:	b8 e6 00 10 00       	mov    eax,0x1000e6
  101ba4:	c7 44 24 0c 8e 00 00 	mov    DWORD PTR [esp+0xc],0x8e
  101bab:	00 
  101bac:	c7 44 24 08 08 00 00 	mov    DWORD PTR [esp+0x8],0x8
  101bb3:	00 
  101bb4:	89 44 24 04          	mov    DWORD PTR [esp+0x4],eax
  101bb8:	c7 04 24 13 00 00 00 	mov    DWORD PTR [esp],0x13
  101bbf:	e8 69 fb ff ff       	call   10172d <_idt_set_entry>
  101bc4:	b8 ed 00 10 00       	mov    eax,0x1000ed
  101bc9:	c7 44 24 0c 8e 00 00 	mov    DWORD PTR [esp+0xc],0x8e
  101bd0:	00 
  101bd1:	c7 44 24 08 08 00 00 	mov    DWORD PTR [esp+0x8],0x8
  101bd8:	00 
  101bd9:	89 44 24 04          	mov    DWORD PTR [esp+0x4],eax
  101bdd:	c7 04 24 14 00 00 00 	mov    DWORD PTR [esp],0x14
  101be4:	e8 44 fb ff ff       	call   10172d <_idt_set_entry>
  101be9:	b8 f4 00 10 00       	mov    eax,0x1000f4
  101bee:	c7 44 24 0c 8e 00 00 	mov    DWORD PTR [esp+0xc],0x8e
  101bf5:	00 
  101bf6:	c7 44 24 08 08 00 00 	mov    DWORD PTR [esp+0x8],0x8
  101bfd:	00 
  101bfe:	89 44 24 04          	mov    DWORD PTR [esp+0x4],eax
  101c02:	c7 04 24 15 00 00 00 	mov    DWORD PTR [esp],0x15
  101c09:	e8 1f fb ff ff       	call   10172d <_idt_set_entry>
  101c0e:	b8 fb 00 10 00       	mov    eax,0x1000fb
  101c13:	c7 44 24 0c 8e 00 00 	mov    DWORD PTR [esp+0xc],0x8e
  101c1a:	00 
  101c1b:	c7 44 24 08 08 00 00 	mov    DWORD PTR [esp+0x8],0x8
  101c22:	00 
  101c23:	89 44 24 04          	mov    DWORD PTR [esp+0x4],eax
  101c27:	c7 04 24 16 00 00 00 	mov    DWORD PTR [esp],0x16
  101c2e:	e8 fa fa ff ff       	call   10172d <_idt_set_entry>
  101c33:	b8 02 01 10 00       	mov    eax,0x100102
  101c38:	c7 44 24 0c 8e 00 00 	mov    DWORD PTR [esp+0xc],0x8e
  101c3f:	00 
  101c40:	c7 44 24 08 08 00 00 	mov    DWORD PTR [esp+0x8],0x8
  101c47:	00 
  101c48:	89 44 24 04          	mov    DWORD PTR [esp+0x4],eax
  101c4c:	c7 04 24 17 00 00 00 	mov    DWORD PTR [esp],0x17
  101c53:	e8 d5 fa ff ff       	call   10172d <_idt_set_entry>
  101c58:	b8 09 01 10 00       	mov    eax,0x100109
  101c5d:	c7 44 24 0c 8e 00 00 	mov    DWORD PTR [esp+0xc],0x8e
  101c64:	00 
  101c65:	c7 44 24 08 08 00 00 	mov    DWORD PTR [esp+0x8],0x8
  101c6c:	00 
  101c6d:	89 44 24 04          	mov    DWORD PTR [esp+0x4],eax
  101c71:	c7 04 24 18 00 00 00 	mov    DWORD PTR [esp],0x18
  101c78:	e8 b0 fa ff ff       	call   10172d <_idt_set_entry>
  101c7d:	b8 10 01 10 00       	mov    eax,0x100110
  101c82:	c7 44 24 0c 8e 00 00 	mov    DWORD PTR [esp+0xc],0x8e
  101c89:	00 
  101c8a:	c7 44 24 08 08 00 00 	mov    DWORD PTR [esp+0x8],0x8
  101c91:	00 
  101c92:	89 44 24 04          	mov    DWORD PTR [esp+0x4],eax
  101c96:	c7 04 24 19 00 00 00 	mov    DWORD PTR [esp],0x19
  101c9d:	e8 8b fa ff ff       	call   10172d <_idt_set_entry>
  101ca2:	b8 17 01 10 00       	mov    eax,0x100117
  101ca7:	c7 44 24 0c 8e 00 00 	mov    DWORD PTR [esp+0xc],0x8e
  101cae:	00 
  101caf:	c7 44 24 08 08 00 00 	mov    DWORD PTR [esp+0x8],0x8
  101cb6:	00 
  101cb7:	89 44 24 04          	mov    DWORD PTR [esp+0x4],eax
  101cbb:	c7 04 24 1a 00 00 00 	mov    DWORD PTR [esp],0x1a
  101cc2:	e8 66 fa ff ff       	call   10172d <_idt_set_entry>
  101cc7:	b8 1e 01 10 00       	mov    eax,0x10011e
  101ccc:	c7 44 24 0c 8e 00 00 	mov    DWORD PTR [esp+0xc],0x8e
  101cd3:	00 
  101cd4:	c7 44 24 08 08 00 00 	mov    DWORD PTR [esp+0x8],0x8
  101cdb:	00 
  101cdc:	89 44 24 04          	mov    DWORD PTR [esp+0x4],eax
  101ce0:	c7 04 24 1b 00 00 00 	mov    DWORD PTR [esp],0x1b
  101ce7:	e8 41 fa ff ff       	call   10172d <_idt_set_entry>
  101cec:	b8 25 01 10 00       	mov    eax,0x100125
  101cf1:	c7 44 24 0c 8e 00 00 	mov    DWORD PTR [esp+0xc],0x8e
  101cf8:	00 
  101cf9:	c7 44 24 08 08 00 00 	mov    DWORD PTR [esp+0x8],0x8
  101d00:	00 
  101d01:	89 44 24 04          	mov    DWORD PTR [esp+0x4],eax
  101d05:	c7 04 24 1c 00 00 00 	mov    DWORD PTR [esp],0x1c
  101d0c:	e8 1c fa ff ff       	call   10172d <_idt_set_entry>
  101d11:	b8 2c 01 10 00       	mov    eax,0x10012c
  101d16:	c7 44 24 0c 8e 00 00 	mov    DWORD PTR [esp+0xc],0x8e
  101d1d:	00 
  101d1e:	c7 44 24 08 08 00 00 	mov    DWORD PTR [esp+0x8],0x8
  101d25:	00 
  101d26:	89 44 24 04          	mov    DWORD PTR [esp+0x4],eax
  101d2a:	c7 04 24 1d 00 00 00 	mov    DWORD PTR [esp],0x1d
  101d31:	e8 f7 f9 ff ff       	call   10172d <_idt_set_entry>
  101d36:	b8 33 01 10 00       	mov    eax,0x100133
  101d3b:	c7 44 24 0c 8e 00 00 	mov    DWORD PTR [esp+0xc],0x8e
  101d42:	00 
  101d43:	c7 44 24 08 08 00 00 	mov    DWORD PTR [esp+0x8],0x8
  101d4a:	00 
  101d4b:	89 44 24 04          	mov    DWORD PTR [esp+0x4],eax
  101d4f:	c7 04 24 1e 00 00 00 	mov    DWORD PTR [esp],0x1e
  101d56:	e8 d2 f9 ff ff       	call   10172d <_idt_set_entry>
  101d5b:	b8 3a 01 10 00       	mov    eax,0x10013a
  101d60:	c7 44 24 0c 8e 00 00 	mov    DWORD PTR [esp+0xc],0x8e
  101d67:	00 
  101d68:	c7 44 24 08 08 00 00 	mov    DWORD PTR [esp+0x8],0x8
  101d6f:	00 
  101d70:	89 44 24 04          	mov    DWORD PTR [esp+0x4],eax
  101d74:	c7 04 24 1f 00 00 00 	mov    DWORD PTR [esp],0x1f
  101d7b:	e8 ad f9 ff ff       	call   10172d <_idt_set_entry>
  101d80:	b8 70 01 10 00       	mov    eax,0x100170
  101d85:	c7 44 24 0c 8e 00 00 	mov    DWORD PTR [esp+0xc],0x8e
  101d8c:	00 
  101d8d:	c7 44 24 08 08 00 00 	mov    DWORD PTR [esp+0x8],0x8
  101d94:	00 
  101d95:	89 44 24 04          	mov    DWORD PTR [esp+0x4],eax
  101d99:	c7 04 24 20 00 00 00 	mov    DWORD PTR [esp],0x20
  101da0:	e8 88 f9 ff ff       	call   10172d <_idt_set_entry>
  101da5:	b8 77 01 10 00       	mov    eax,0x100177
  101daa:	c7 44 24 0c 8e 00 00 	mov    DWORD PTR [esp+0xc],0x8e
  101db1:	00 
  101db2:	c7 44 24 08 08 00 00 	mov    DWORD PTR [esp+0x8],0x8
  101db9:	00 
  101dba:	89 44 24 04          	mov    DWORD PTR [esp+0x4],eax
  101dbe:	c7 04 24 21 00 00 00 	mov    DWORD PTR [esp],0x21
  101dc5:	e8 63 f9 ff ff       	call   10172d <_idt_set_entry>
  101dca:	b8 7e 01 10 00       	mov    eax,0x10017e
  101dcf:	c7 44 24 0c 8e 00 00 	mov    DWORD PTR [esp+0xc],0x8e
  101dd6:	00 
  101dd7:	c7 44 24 08 08 00 00 	mov    DWORD PTR [esp+0x8],0x8
  101dde:	00 
  101ddf:	89 44 24 04          	mov    DWORD PTR [esp+0x4],eax
  101de3:	c7 04 24 22 00 00 00 	mov    DWORD PTR [esp],0x22
  101dea:	e8 3e f9 ff ff       	call   10172d <_idt_set_entry>
  101def:	b8 85 01 10 00       	mov    eax,0x100185
  101df4:	c7 44 24 0c 8e 00 00 	mov    DWORD PTR [esp+0xc],0x8e
  101dfb:	00 
  101dfc:	c7 44 24 08 08 00 00 	mov    DWORD PTR [esp+0x8],0x8
  101e03:	00 
  101e04:	89 44 24 04          	mov    DWORD PTR [esp+0x4],eax
  101e08:	c7 04 24 23 00 00 00 	mov    DWORD PTR [esp],0x23
  101e0f:	e8 19 f9 ff ff       	call   10172d <_idt_set_entry>
  101e14:	b8 8c 01 10 00       	mov    eax,0x10018c
  101e19:	c7 44 24 0c 8e 00 00 	mov    DWORD PTR [esp+0xc],0x8e
  101e20:	00 
  101e21:	c7 44 24 08 08 00 00 	mov    DWORD PTR [esp+0x8],0x8
  101e28:	00 
  101e29:	89 44 24 04          	mov    DWORD PTR [esp+0x4],eax
  101e2d:	c7 04 24 24 00 00 00 	mov    DWORD PTR [esp],0x24
  101e34:	e8 f4 f8 ff ff       	call   10172d <_idt_set_entry>
  101e39:	b8 93 01 10 00       	mov    eax,0x100193
  101e3e:	c7 44 24 0c 8e 00 00 	mov    DWORD PTR [esp+0xc],0x8e
  101e45:	00 
  101e46:	c7 44 24 08 08 00 00 	mov    DWORD PTR [esp+0x8],0x8
  101e4d:	00 
  101e4e:	89 44 24 04          	mov    DWORD PTR [esp+0x4],eax
  101e52:	c7 04 24 25 00 00 00 	mov    DWORD PTR [esp],0x25
  101e59:	e8 cf f8 ff ff       	call   10172d <_idt_set_entry>
  101e5e:	b8 9a 01 10 00       	mov    eax,0x10019a
  101e63:	c7 44 24 0c 8e 00 00 	mov    DWORD PTR [esp+0xc],0x8e
  101e6a:	00 
  101e6b:	c7 44 24 08 08 00 00 	mov    DWORD PTR [esp+0x8],0x8
  101e72:	00 
  101e73:	89 44 24 04          	mov    DWORD PTR [esp+0x4],eax
  101e77:	c7 04 24 26 00 00 00 	mov    DWORD PTR [esp],0x26
  101e7e:	e8 aa f8 ff ff       	call   10172d <_idt_set_entry>
  101e83:	b8 a1 01 10 00       	mov    eax,0x1001a1
  101e88:	c7 44 24 0c 8e 00 00 	mov    DWORD PTR [esp+0xc],0x8e
  101e8f:	00 
  101e90:	c7 44 24 08 08 00 00 	mov    DWORD PTR [esp+0x8],0x8
  101e97:	00 
  101e98:	89 44 24 04          	mov    DWORD PTR [esp+0x4],eax
  101e9c:	c7 04 24 27 00 00 00 	mov    DWORD PTR [esp],0x27
  101ea3:	e8 85 f8 ff ff       	call   10172d <_idt_set_entry>
  101ea8:	b8 a8 01 10 00       	mov    eax,0x1001a8
  101ead:	c7 44 24 0c 8e 00 00 	mov    DWORD PTR [esp+0xc],0x8e
  101eb4:	00 
  101eb5:	c7 44 24 08 08 00 00 	mov    DWORD PTR [esp+0x8],0x8
  101ebc:	00 
  101ebd:	89 44 24 04          	mov    DWORD PTR [esp+0x4],eax
  101ec1:	c7 04 24 28 00 00 00 	mov    DWORD PTR [esp],0x28
  101ec8:	e8 60 f8 ff ff       	call   10172d <_idt_set_entry>
  101ecd:	b8 af 01 10 00       	mov    eax,0x1001af
  101ed2:	c7 44 24 0c 8e 00 00 	mov    DWORD PTR [esp+0xc],0x8e
  101ed9:	00 
  101eda:	c7 44 24 08 08 00 00 	mov    DWORD PTR [esp+0x8],0x8
  101ee1:	00 
  101ee2:	89 44 24 04          	mov    DWORD PTR [esp+0x4],eax
  101ee6:	c7 04 24 29 00 00 00 	mov    DWORD PTR [esp],0x29
  101eed:	e8 3b f8 ff ff       	call   10172d <_idt_set_entry>
  101ef2:	b8 b6 01 10 00       	mov    eax,0x1001b6
  101ef7:	c7 44 24 0c 8e 00 00 	mov    DWORD PTR [esp+0xc],0x8e
  101efe:	00 
  101eff:	c7 44 24 08 08 00 00 	mov    DWORD PTR [esp+0x8],0x8
  101f06:	00 
  101f07:	89 44 24 04          	mov    DWORD PTR [esp+0x4],eax
  101f0b:	c7 04 24 2a 00 00 00 	mov    DWORD PTR [esp],0x2a
  101f12:	e8 16 f8 ff ff       	call   10172d <_idt_set_entry>
  101f17:	b8 bd 01 10 00       	mov    eax,0x1001bd
  101f1c:	c7 44 24 0c 8e 00 00 	mov    DWORD PTR [esp+0xc],0x8e
  101f23:	00 
  101f24:	c7 44 24 08 08 00 00 	mov    DWORD PTR [esp+0x8],0x8
  101f2b:	00 
  101f2c:	89 44 24 04          	mov    DWORD PTR [esp+0x4],eax
  101f30:	c7 04 24 2b 00 00 00 	mov    DWORD PTR [esp],0x2b
  101f37:	e8 f1 f7 ff ff       	call   10172d <_idt_set_entry>
  101f3c:	b8 c4 01 10 00       	mov    eax,0x1001c4
  101f41:	c7 44 24 0c 8e 00 00 	mov    DWORD PTR [esp+0xc],0x8e
  101f48:	00 
  101f49:	c7 44 24 08 08 00 00 	mov    DWORD PTR [esp+0x8],0x8
  101f50:	00 
  101f51:	89 44 24 04          	mov    DWORD PTR [esp+0x4],eax
  101f55:	c7 04 24 2c 00 00 00 	mov    DWORD PTR [esp],0x2c
  101f5c:	e8 cc f7 ff ff       	call   10172d <_idt_set_entry>
  101f61:	b8 cb 01 10 00       	mov    eax,0x1001cb
  101f66:	c7 44 24 0c 8e 00 00 	mov    DWORD PTR [esp+0xc],0x8e
  101f6d:	00 
  101f6e:	c7 44 24 08 08 00 00 	mov    DWORD PTR [esp+0x8],0x8
  101f75:	00 
  101f76:	89 44 24 04          	mov    DWORD PTR [esp+0x4],eax
  101f7a:	c7 04 24 2d 00 00 00 	mov    DWORD PTR [esp],0x2d
  101f81:	e8 a7 f7 ff ff       	call   10172d <_idt_set_entry>
  101f86:	b8 d2 01 10 00       	mov    eax,0x1001d2
  101f8b:	c7 44 24 0c 8e 00 00 	mov    DWORD PTR [esp+0xc],0x8e
  101f92:	00 
  101f93:	c7 44 24 08 08 00 00 	mov    DWORD PTR [esp+0x8],0x8
  101f9a:	00 
  101f9b:	89 44 24 04          	mov    DWORD PTR [esp+0x4],eax
  101f9f:	c7 04 24 2e 00 00 00 	mov    DWORD PTR [esp],0x2e
  101fa6:	e8 82 f7 ff ff       	call   10172d <_idt_set_entry>
  101fab:	b8 d9 01 10 00       	mov    eax,0x1001d9
  101fb0:	c7 44 24 0c 8e 00 00 	mov    DWORD PTR [esp+0xc],0x8e
  101fb7:	00 
  101fb8:	c7 44 24 08 08 00 00 	mov    DWORD PTR [esp+0x8],0x8
  101fbf:	00 
  101fc0:	89 44 24 04          	mov    DWORD PTR [esp+0x4],eax
  101fc4:	c7 04 24 2f 00 00 00 	mov    DWORD PTR [esp],0x2f
  101fcb:	e8 5d f7 ff ff       	call   10172d <_idt_set_entry>
  101fd0:	b8 41 01 10 00       	mov    eax,0x100141
  101fd5:	c7 44 24 0c 8e 00 00 	mov    DWORD PTR [esp+0xc],0x8e
  101fdc:	00 
  101fdd:	c7 44 24 08 08 00 00 	mov    DWORD PTR [esp+0x8],0x8
  101fe4:	00 
  101fe5:	89 44 24 04          	mov    DWORD PTR [esp+0x4],eax
  101fe9:	c7 04 24 80 00 00 00 	mov    DWORD PTR [esp],0x80
  101ff0:	e8 38 f7 ff ff       	call   10172d <_idt_set_entry>
  101ff5:	0f 01 1d 80 84 10 00 	lidtd  ds:0x108480
  101ffc:	fb                   	sti    
  101ffd:	90                   	nop
  101ffe:	83 c4 1c             	add    esp,0x1c
  102001:	c3                   	ret    

00102002 <_final_exception_handler>:
  102002:	83 ec 2c             	sub    esp,0x2c
  102005:	8b 44 24 54          	mov    eax,DWORD PTR [esp+0x54]
  102009:	83 f8 1f             	cmp    eax,0x1f
  10200c:	77 25                	ja     102033 <_final_exception_handler+0x31>
  10200e:	8b 54 24 58          	mov    edx,DWORD PTR [esp+0x58]
  102012:	8b 44 24 54          	mov    eax,DWORD PTR [esp+0x54]
  102016:	8b 04 85 00 40 10 00 	mov    eax,DWORD PTR [eax*4+0x104000]
  10201d:	89 54 24 08          	mov    DWORD PTR [esp+0x8],edx
  102021:	89 44 24 04          	mov    DWORD PTR [esp+0x4],eax
  102025:	c7 04 24 9c 33 10 00 	mov    DWORD PTR [esp],0x10339c
  10202c:	e8 c5 f4 ff ff       	call   1014f6 <_kprintf>
  102031:	eb fe                	jmp    102031 <_final_exception_handler+0x2f>
  102033:	8b 44 24 54          	mov    eax,DWORD PTR [esp+0x54]
  102037:	8b 04 85 80 80 10 00 	mov    eax,DWORD PTR [eax*4+0x108080]
  10203e:	85 c0                	test   eax,eax
  102040:	74 1c                	je     10205e <_final_exception_handler+0x5c>
  102042:	8b 44 24 54          	mov    eax,DWORD PTR [esp+0x54]
  102046:	8b 04 85 80 80 10 00 	mov    eax,DWORD PTR [eax*4+0x108080]
  10204d:	89 44 24 1c          	mov    DWORD PTR [esp+0x1c],eax
  102051:	8d 44 24 30          	lea    eax,[esp+0x30]
  102055:	89 04 24             	mov    DWORD PTR [esp],eax
  102058:	8b 44 24 1c          	mov    eax,DWORD PTR [esp+0x1c]
  10205c:	ff d0                	call   eax
  10205e:	90                   	nop
  10205f:	83 c4 2c             	add    esp,0x2c
  102062:	c3                   	ret    

00102063 <_final_irq_handler>:
  102063:	83 ec 2c             	sub    esp,0x2c
  102066:	8b 44 24 30          	mov    eax,DWORD PTR [esp+0x30]
  10206a:	8b 40 24             	mov    eax,DWORD PTR [eax+0x24]
  10206d:	8b 04 85 80 80 10 00 	mov    eax,DWORD PTR [eax*4+0x108080]
  102074:	85 c0                	test   eax,eax
  102076:	74 1f                	je     102097 <_final_irq_handler+0x34>
  102078:	8b 44 24 30          	mov    eax,DWORD PTR [esp+0x30]
  10207c:	8b 40 24             	mov    eax,DWORD PTR [eax+0x24]
  10207f:	8b 04 85 80 80 10 00 	mov    eax,DWORD PTR [eax*4+0x108080]
  102086:	89 44 24 1c          	mov    DWORD PTR [esp+0x1c],eax
  10208a:	8b 44 24 30          	mov    eax,DWORD PTR [esp+0x30]
  10208e:	89 04 24             	mov    DWORD PTR [esp],eax
  102091:	8b 44 24 1c          	mov    eax,DWORD PTR [esp+0x1c]
  102095:	ff d0                	call   eax
  102097:	8b 44 24 30          	mov    eax,DWORD PTR [esp+0x30]
  10209b:	8b 40 24             	mov    eax,DWORD PTR [eax+0x24]
  10209e:	0f b6 c0             	movzx  eax,al
  1020a1:	89 04 24             	mov    DWORD PTR [esp],eax
  1020a4:	e8 c1 f7 ff ff       	call   10186a <_irq_ack>
  1020a9:	90                   	nop
  1020aa:	83 c4 2c             	add    esp,0x2c
  1020ad:	c3                   	ret    
  1020ae:	90                   	nop
  1020af:	90                   	nop

001020b0 <_tss_init>:
  1020b0:	83 ec 3c             	sub    esp,0x3c
  1020b3:	c7 44 24 2c a0 8c 10 	mov    DWORD PTR [esp+0x2c],0x108ca0
  1020ba:	00 
  1020bb:	8b 44 24 2c          	mov    eax,DWORD PTR [esp+0x2c]
  1020bf:	8d 50 68             	lea    edx,[eax+0x68]
  1020c2:	8b 44 24 40          	mov    eax,DWORD PTR [esp+0x40]
  1020c6:	c7 44 24 10 00 00 00 	mov    DWORD PTR [esp+0x10],0x0
  1020cd:	00 
  1020ce:	c7 44 24 0c e9 00 00 	mov    DWORD PTR [esp+0xc],0xe9
  1020d5:	00 
  1020d6:	89 54 24 08          	mov    DWORD PTR [esp+0x8],edx
  1020da:	8b 54 24 2c          	mov    edx,DWORD PTR [esp+0x2c]
  1020de:	89 54 24 04          	mov    DWORD PTR [esp+0x4],edx
  1020e2:	89 04 24             	mov    DWORD PTR [esp],eax
  1020e5:	e8 5e f4 ff ff       	call   101548 <_gdt_set_entry>
  1020ea:	c7 44 24 08 68 00 00 	mov    DWORD PTR [esp+0x8],0x68
  1020f1:	00 
  1020f2:	c7 44 24 04 00 00 00 	mov    DWORD PTR [esp+0x4],0x0
  1020f9:	00 
  1020fa:	c7 04 24 a0 8c 10 00 	mov    DWORD PTR [esp],0x108ca0
  102101:	e8 4a e6 ff ff       	call   100750 <_memset>
  102106:	8b 44 24 44          	mov    eax,DWORD PTR [esp+0x44]
  10210a:	a3 a8 8c 10 00       	mov    ds:0x108ca8,eax
  10210f:	8b 44 24 48          	mov    eax,DWORD PTR [esp+0x48]
  102113:	a3 a4 8c 10 00       	mov    ds:0x108ca4,eax
  102118:	c7 05 ec 8c 10 00 0b 	mov    DWORD PTR ds:0x108cec,0xb
  10211f:	00 00 00 
  102122:	c7 05 f4 8c 10 00 13 	mov    DWORD PTR ds:0x108cf4,0x13
  102129:	00 00 00 
  10212c:	c7 05 e8 8c 10 00 13 	mov    DWORD PTR ds:0x108ce8,0x13
  102133:	00 00 00 
  102136:	c7 05 f8 8c 10 00 13 	mov    DWORD PTR ds:0x108cf8,0x13
  10213d:	00 00 00 
  102140:	c7 05 fc 8c 10 00 13 	mov    DWORD PTR ds:0x108cfc,0x13
  102147:	00 00 00 
  10214a:	c7 05 f0 8c 10 00 13 	mov    DWORD PTR ds:0x108cf0,0x13
  102151:	00 00 00 
  102154:	66 b8 28 00          	mov    ax,0x28
  102158:	0f 00 d8             	ltr    ax
  10215b:	90                   	nop
  10215c:	83 c4 3c             	add    esp,0x3c
  10215f:	c3                   	ret    

00102160 <_tss_set_stack>:
  102160:	8b 44 24 04          	mov    eax,DWORD PTR [esp+0x4]
  102164:	a3 a8 8c 10 00       	mov    ds:0x108ca8,eax
  102169:	8b 44 24 08          	mov    eax,DWORD PTR [esp+0x8]
  10216d:	a3 a4 8c 10 00       	mov    ds:0x108ca4,eax
  102172:	90                   	nop
  102173:	c3                   	ret    

00102174 <___cpuid>:
  102174:	55                   	push   ebp
  102175:	57                   	push   edi
  102176:	56                   	push   esi
  102177:	53                   	push   ebx
  102178:	83 ec 04             	sub    esp,0x4
  10217b:	8b 44 24 18          	mov    eax,DWORD PTR [esp+0x18]
  10217f:	83 c0 04             	add    eax,0x4
  102182:	89 04 24             	mov    DWORD PTR [esp],eax
  102185:	8b 44 24 18          	mov    eax,DWORD PTR [esp+0x18]
  102189:	8d 68 08             	lea    ebp,[eax+0x8]
  10218c:	8b 44 24 18          	mov    eax,DWORD PTR [esp+0x18]
  102190:	8d 78 0c             	lea    edi,[eax+0xc]
  102193:	8b 44 24 1c          	mov    eax,DWORD PTR [esp+0x1c]
  102197:	0f a2                	cpuid  
  102199:	89 c6                	mov    esi,eax
  10219b:	8b 44 24 18          	mov    eax,DWORD PTR [esp+0x18]
  10219f:	89 30                	mov    DWORD PTR [eax],esi
  1021a1:	8b 04 24             	mov    eax,DWORD PTR [esp]
  1021a4:	89 18                	mov    DWORD PTR [eax],ebx
  1021a6:	89 4d 00             	mov    DWORD PTR [ebp+0x0],ecx
  1021a9:	89 17                	mov    DWORD PTR [edi],edx
  1021ab:	90                   	nop
  1021ac:	83 c4 04             	add    esp,0x4
  1021af:	5b                   	pop    ebx
  1021b0:	5e                   	pop    esi
  1021b1:	5f                   	pop    edi
  1021b2:	5d                   	pop    ebp
  1021b3:	c3                   	ret    

001021b4 <___cpuidex>:
  1021b4:	55                   	push   ebp
  1021b5:	57                   	push   edi
  1021b6:	56                   	push   esi
  1021b7:	53                   	push   ebx
  1021b8:	83 ec 04             	sub    esp,0x4
  1021bb:	8b 44 24 18          	mov    eax,DWORD PTR [esp+0x18]
  1021bf:	83 c0 04             	add    eax,0x4
  1021c2:	89 04 24             	mov    DWORD PTR [esp],eax
  1021c5:	8b 44 24 18          	mov    eax,DWORD PTR [esp+0x18]
  1021c9:	8d 68 08             	lea    ebp,[eax+0x8]
  1021cc:	8b 44 24 18          	mov    eax,DWORD PTR [esp+0x18]
  1021d0:	8d 78 0c             	lea    edi,[eax+0xc]
  1021d3:	8b 44 24 1c          	mov    eax,DWORD PTR [esp+0x1c]
  1021d7:	8b 54 24 20          	mov    edx,DWORD PTR [esp+0x20]
  1021db:	89 d1                	mov    ecx,edx
  1021dd:	0f a2                	cpuid  
  1021df:	89 c6                	mov    esi,eax
  1021e1:	8b 44 24 18          	mov    eax,DWORD PTR [esp+0x18]
  1021e5:	89 30                	mov    DWORD PTR [eax],esi
  1021e7:	8b 04 24             	mov    eax,DWORD PTR [esp]
  1021ea:	89 18                	mov    DWORD PTR [eax],ebx
  1021ec:	89 4d 00             	mov    DWORD PTR [ebp+0x0],ecx
  1021ef:	89 17                	mov    DWORD PTR [edi],edx
  1021f1:	90                   	nop
  1021f2:	83 c4 04             	add    esp,0x4
  1021f5:	5b                   	pop    ebx
  1021f6:	5e                   	pop    esi
  1021f7:	5f                   	pop    edi
  1021f8:	5d                   	pop    ebp
  1021f9:	c3                   	ret    

001021fa <_detectCPU>:
  1021fa:	83 ec 3c             	sub    esp,0x3c
  1021fd:	c7 44 24 18 00 00 00 	mov    DWORD PTR [esp+0x18],0x0
  102204:	00 
  102205:	c7 44 24 1c 00 00 00 	mov    DWORD PTR [esp+0x1c],0x0
  10220c:	00 
  10220d:	c7 44 24 20 00 00 00 	mov    DWORD PTR [esp+0x20],0x0
  102214:	00 
  102215:	c7 44 24 24 00 00 00 	mov    DWORD PTR [esp+0x24],0x0
  10221c:	00 
  10221d:	c7 44 24 18 ff ff ff 	mov    DWORD PTR [esp+0x18],0xffffffff
  102224:	ff 
  102225:	c7 44 24 04 00 00 00 	mov    DWORD PTR [esp+0x4],0x0
  10222c:	00 
  10222d:	8d 44 24 18          	lea    eax,[esp+0x18]
  102231:	89 04 24             	mov    DWORD PTR [esp],eax
  102234:	e8 3b ff ff ff       	call   102174 <___cpuid>
  102239:	8b 44 24 18          	mov    eax,DWORD PTR [esp+0x18]
  10223d:	89 44 24 2c          	mov    DWORD PTR [esp+0x2c],eax
  102241:	83 7c 24 2c 00       	cmp    DWORD PTR [esp+0x2c],0x0
  102246:	75 0c                	jne    102254 <_detectCPU+0x5a>
  102248:	c7 04 24 bc 33 10 00 	mov    DWORD PTR [esp],0x1033bc
  10224f:	e8 a2 f2 ff ff       	call   1014f6 <_kprintf>
  102254:	83 7c 24 2c 00       	cmp    DWORD PTR [esp+0x2c],0x0
  102259:	74 67                	je     1022c2 <_detectCPU+0xc8>
  10225b:	c7 44 24 04 01 00 00 	mov    DWORD PTR [esp+0x4],0x1
  102262:	00 
  102263:	8d 44 24 18          	lea    eax,[esp+0x18]
  102267:	89 04 24             	mov    DWORD PTR [esp],eax
  10226a:	e8 05 ff ff ff       	call   102174 <___cpuid>
  10226f:	8b 44 24 18          	mov    eax,DWORD PTR [esp+0x18]
  102273:	c1 f8 08             	sar    eax,0x8
  102276:	83 e0 0f             	and    eax,0xf
  102279:	89 44 24 28          	mov    DWORD PTR [esp+0x28],eax
  10227d:	83 7c 24 28 04       	cmp    DWORD PTR [esp+0x28],0x4
  102282:	7f 16                	jg     10229a <_detectCPU+0xa0>
  102284:	8b 44 24 28          	mov    eax,DWORD PTR [esp+0x28]
  102288:	89 44 24 04          	mov    DWORD PTR [esp+0x4],eax
  10228c:	c7 04 24 0c 34 10 00 	mov    DWORD PTR [esp],0x10340c
  102293:	e8 5e f2 ff ff       	call   1014f6 <_kprintf>
  102298:	eb 14                	jmp    1022ae <_detectCPU+0xb4>
  10229a:	8b 44 24 28          	mov    eax,DWORD PTR [esp+0x28]
  10229e:	89 44 24 04          	mov    DWORD PTR [esp+0x4],eax
  1022a2:	c7 04 24 34 34 10 00 	mov    DWORD PTR [esp],0x103434
  1022a9:	e8 48 f2 ff ff       	call   1014f6 <_kprintf>
  1022ae:	8b 44 24 28          	mov    eax,DWORD PTR [esp+0x28]
  1022b2:	89 44 24 04          	mov    DWORD PTR [esp+0x4],eax
  1022b6:	c7 04 24 60 34 10 00 	mov    DWORD PTR [esp],0x103460
  1022bd:	e8 34 f2 ff ff       	call   1014f6 <_kprintf>
  1022c2:	90                   	nop
  1022c3:	83 c4 3c             	add    esp,0x3c
  1022c6:	c3                   	ret    

001022c7 <_detectHardware>:
  1022c7:	83 ec 0c             	sub    esp,0xc
  1022ca:	e8 2b ff ff ff       	call   1021fa <_detectCPU>
  1022cf:	90                   	nop
  1022d0:	83 c4 0c             	add    esp,0xc
  1022d3:	c3                   	ret    

001022d4 <_pmm_init>:
  1022d4:	83 ec 1c             	sub    esp,0x1c
  1022d7:	8b 44 24 20          	mov    eax,DWORD PTR [esp+0x20]
  1022db:	c1 e8 0c             	shr    eax,0xc
  1022de:	a3 08 8d 10 00       	mov    ds:0x108d08,eax
  1022e3:	a1 08 8d 10 00       	mov    eax,ds:0x108d08
  1022e8:	c1 e8 03             	shr    eax,0x3
  1022eb:	a3 0c 8d 10 00       	mov    ds:0x108d0c,eax
  1022f0:	a1 0c 8d 10 00       	mov    eax,ds:0x108d0c
  1022f5:	8d 14 c5 00 00 00 00 	lea    edx,[eax*8+0x0]
  1022fc:	a1 08 8d 10 00       	mov    eax,ds:0x108d08
  102301:	39 c2                	cmp    edx,eax
  102303:	73 0d                	jae    102312 <_pmm_init+0x3e>
  102305:	a1 0c 8d 10 00       	mov    eax,ds:0x108d0c
  10230a:	83 c0 01             	add    eax,0x1
  10230d:	a3 0c 8d 10 00       	mov    ds:0x108d0c,eax
  102312:	a1 0c 8d 10 00       	mov    eax,ds:0x108d0c
  102317:	89 c2                	mov    edx,eax
  102319:	a1 80 40 10 00       	mov    eax,ds:0x104080
  10231e:	89 54 24 08          	mov    DWORD PTR [esp+0x8],edx
  102322:	c7 44 24 04 00 00 00 	mov    DWORD PTR [esp+0x4],0x0
  102329:	00 
  10232a:	89 04 24             	mov    DWORD PTR [esp],eax
  10232d:	e8 1e e4 ff ff       	call   100750 <_memset>
  102332:	8b 15 80 40 10 00    	mov    edx,DWORD PTR ds:0x104080
  102338:	a1 0c 8d 10 00       	mov    eax,ds:0x108d0c
  10233d:	01 d0                	add    eax,edx
  10233f:	25 00 f0 ff ff       	and    eax,0xfffff000
  102344:	05 00 10 00 00       	add    eax,0x1000
  102349:	a3 10 8d 10 00       	mov    ds:0x108d10,eax
  10234e:	8b 44 24 20          	mov    eax,DWORD PTR [esp+0x20]
  102352:	c1 e8 14             	shr    eax,0x14
  102355:	89 44 24 04          	mov    DWORD PTR [esp+0x4],eax
  102359:	c7 04 24 98 34 10 00 	mov    DWORD PTR [esp],0x103498
  102360:	e8 91 f1 ff ff       	call   1014f6 <_kprintf>
  102365:	a1 08 8d 10 00       	mov    eax,ds:0x108d08
  10236a:	89 44 24 04          	mov    DWORD PTR [esp+0x4],eax
  10236e:	c7 04 24 ad 34 10 00 	mov    DWORD PTR [esp],0x1034ad
  102375:	e8 7c f1 ff ff       	call   1014f6 <_kprintf>
  10237a:	a1 80 40 10 00       	mov    eax,ds:0x104080
  10237f:	89 44 24 04          	mov    DWORD PTR [esp+0x4],eax
  102383:	c7 04 24 bf 34 10 00 	mov    DWORD PTR [esp],0x1034bf
  10238a:	e8 67 f1 ff ff       	call   1014f6 <_kprintf>
  10238f:	a1 0c 8d 10 00       	mov    eax,ds:0x108d0c
  102394:	89 44 24 04          	mov    DWORD PTR [esp+0x4],eax
  102398:	c7 04 24 d3 34 10 00 	mov    DWORD PTR [esp],0x1034d3
  10239f:	e8 52 f1 ff ff       	call   1014f6 <_kprintf>
  1023a4:	a1 10 8d 10 00       	mov    eax,ds:0x108d10
  1023a9:	89 44 24 04          	mov    DWORD PTR [esp+0x4],eax
  1023ad:	c7 04 24 e5 34 10 00 	mov    DWORD PTR [esp],0x1034e5
  1023b4:	e8 3d f1 ff ff       	call   1014f6 <_kprintf>
  1023b9:	90                   	nop
  1023ba:	83 c4 1c             	add    esp,0x1c
  1023bd:	c3                   	ret    
  1023be:	90                   	nop
  1023bf:	90                   	nop

Disassembly of section .rdata:

00103000 <.rdata>:
  103000:	30 2e                	xor    BYTE PTR [esi],ch
  103002:	30 31                	xor    BYTE PTR [ecx],dh
  103004:	20 41 6c             	and    BYTE PTR [ecx+0x6c],al
  103007:	70 68                	jo     103071 <.rdata+0x71>
  103009:	61                   	popa   
  10300a:	00 57 65             	add    BYTE PTR [edi+0x65],dl
  10300d:	6c                   	ins    BYTE PTR es:[edi],dx
  10300e:	63 6f 6d             	arpl   WORD PTR [edi+0x6d],bp
  103011:	65 20 74 6f 20       	and    BYTE PTR gs:[edi+ebp*2+0x20],dh
  103016:	4a                   	dec    edx
  103017:	61                   	popa   
  103018:	72 76                	jb     103090 <.rdata+0x90>
  10301a:	69 73 20 4f 53 20 76 	imul   esi,DWORD PTR [ebx+0x20],0x7620534f
  103021:	25 73 0a 00 41       	and    eax,0x41000a73
  103026:	20 33                	and    BYTE PTR [ebx],dh
  103028:	32 20                	xor    ah,BYTE PTR [eax]
  10302a:	62 69 74             	bound  ebp,QWORD PTR [ecx+0x74]
  10302d:	20 70 72             	and    BYTE PTR [eax+0x72],dh
  103030:	6f                   	outs   dx,DWORD PTR ds:[esi]
  103031:	74 65                	je     103098 <.rdata+0x98>
  103033:	63 74 65 64          	arpl   WORD PTR [ebp+eiz*2+0x64],si
  103037:	20 6d 6f             	and    BYTE PTR [ebp+0x6f],ch
  10303a:	64 65 20 4f 53       	fs and BYTE PTR gs:[edi+0x53],cl
  10303f:	0a 00                	or     al,BYTE PTR [eax]
  103041:	00 00                	add    BYTE PTR [eax],al
  103043:	00 47 44             	add    BYTE PTR [edi+0x44],al
  103046:	54                   	push   esp
  103047:	2c 20                	sub    al,0x20
  103049:	49                   	dec    ecx
  10304a:	44                   	inc    esp
  10304b:	54                   	push   esp
  10304c:	2c 20                	sub    al,0x20
  10304e:	61                   	popa   
  10304f:	6e                   	outs   dx,BYTE PTR ds:[esi]
  103050:	64 20 54 53 53       	and    BYTE PTR fs:[ebx+edx*2+0x53],dl
  103055:	20 69 6e             	and    BYTE PTR [ecx+0x6e],ch
  103058:	69 74 69 61 6c 69 7a 	imul   esi,DWORD PTR [ecx+ebp*2+0x61],0x657a696c
  10305f:	65 
  103060:	64 0a 00             	or     al,BYTE PTR fs:[eax]
  103063:	00 50 68             	add    BYTE PTR [eax+0x68],dl
  103066:	79 73                	jns    1030db <.rdata+0x33>
  103068:	69 63 61 6c 20 4d 65 	imul   esp,DWORD PTR [ebx+0x61],0x654d206c
  10306f:	6d                   	ins    DWORD PTR es:[edi],dx
  103070:	6f                   	outs   dx,DWORD PTR ds:[esi]
  103071:	72 79                	jb     1030ec <.rdata+0x44>
  103073:	20 4d 61             	and    BYTE PTR [ebp+0x61],cl
  103076:	6e                   	outs   dx,BYTE PTR ds:[esi]
  103077:	61                   	popa   
  103078:	67 65 72 20          	addr16 gs jb 10309c <.rdata+0x9c>
  10307c:	69 6e 69 74 69 61 6c 	imul   ebp,DWORD PTR [esi+0x69],0x6c616974
  103083:	69 7a 65 64 0a 00 50 	imul   edi,DWORD PTR [edx+0x65],0x50000a64
  10308a:	72 69                	jb     1030f5 <.rdata+0x4d>
  10308c:	6d                   	ins    DWORD PTR es:[edi],dx
  10308d:	69 74 69 76 65 20 50 	imul   esi,DWORD PTR [ecx+ebp*2+0x76],0x61502065
  103094:	61 
  103095:	67 69 6e 67 20 69 6e 	imul   ebp,DWORD PTR [bp+0x67],0x696e6920
  10309c:	69 
  10309d:	74 69                	je     103108 <.rdata+0x60>
  10309f:	61                   	popa   
  1030a0:	6c                   	ins    BYTE PTR es:[edi],dx
  1030a1:	69 7a 65 64 0a 00 00 	imul   edi,DWORD PTR [edx+0x65],0xa64

001030a8 <.rdata>:
  1030a8:	4b                   	dec    ebx
  1030a9:	10 10                	adc    BYTE PTR [eax],dl
  1030ab:	00 60 10             	add    BYTE PTR [eax+0x10],ah
  1030ae:	10 00                	adc    BYTE PTR [eax],al
  1030b0:	60                   	pusha  
  1030b1:	10 10                	adc    BYTE PTR [eax],dl
  1030b3:	00 52 10             	add    BYTE PTR [edx+0x10],dl
  1030b6:	10 00                	adc    BYTE PTR [eax],al
  1030b8:	60                   	pusha  
  1030b9:	10 10                	adc    BYTE PTR [eax],dl
  1030bb:	00 60 10             	add    BYTE PTR [eax+0x10],ah
  1030be:	10 00                	adc    BYTE PTR [eax],al
  1030c0:	60                   	pusha  
  1030c1:	10 10                	adc    BYTE PTR [eax],dl
  1030c3:	00 60 10             	add    BYTE PTR [eax+0x10],ah
  1030c6:	10 00                	adc    BYTE PTR [eax],al
  1030c8:	60                   	pusha  
  1030c9:	10 10                	adc    BYTE PTR [eax],dl
  1030cb:	00 60 10             	add    BYTE PTR [eax+0x10],ah
  1030ce:	10 00                	adc    BYTE PTR [eax],al
  1030d0:	60                   	pusha  
  1030d1:	10 10                	adc    BYTE PTR [eax],dl
  1030d3:	00 44 10 10          	add    BYTE PTR [eax+edx*1+0x10],al
  1030d7:	00 60 10             	add    BYTE PTR [eax+0x10],ah
  1030da:	10 00                	adc    BYTE PTR [eax],al
  1030dc:	3d 10 10 00 60       	cmp    eax,0x60001010
  1030e1:	10 10                	adc    BYTE PTR [eax],dl
  1030e3:	00 60 10             	add    BYTE PTR [eax+0x10],ah
  1030e6:	10 00                	adc    BYTE PTR [eax],al
  1030e8:	59                   	pop    ecx
  1030e9:	10 10                	adc    BYTE PTR [eax],dl
  1030eb:	00 6e 13             	add    BYTE PTR [esi+0x13],ch
  1030ee:	10 00                	adc    BYTE PTR [eax],al
  1030f0:	a1 13 10 00 a1       	mov    eax,ds:0xa1001013
  1030f5:	13 10                	adc    edx,DWORD PTR [eax]
  1030f7:	00 a1 13 10 00 a1    	add    BYTE PTR [ecx-0x5effefed],ah
  1030fd:	13 10                	adc    edx,DWORD PTR [eax]
  1030ff:	00 a1 13 10 00 a1    	add    BYTE PTR [ecx-0x5effefed],ah
  103105:	13 10                	adc    edx,DWORD PTR [eax]
  103107:	00 a1 13 10 00 a1    	add    BYTE PTR [ecx-0x5effefed],ah
  10310d:	13 10                	adc    edx,DWORD PTR [eax]
  10310f:	00 a1 13 10 00 a1    	add    BYTE PTR [ecx-0x5effefed],ah
  103115:	13 10                	adc    edx,DWORD PTR [eax]
  103117:	00 a1 13 10 00 a1    	add    BYTE PTR [ecx-0x5effefed],ah
  10311d:	13 10                	adc    edx,DWORD PTR [eax]
  10311f:	00 a1 13 10 00 a1    	add    BYTE PTR [ecx-0x5effefed],ah
  103125:	13 10                	adc    edx,DWORD PTR [eax]
  103127:	00 a1 13 10 00 a1    	add    BYTE PTR [ecx-0x5effefed],ah
  10312d:	13 10                	adc    edx,DWORD PTR [eax]
  10312f:	00 a1 13 10 00 a1    	add    BYTE PTR [ecx-0x5effefed],ah
  103135:	13 10                	adc    edx,DWORD PTR [eax]
  103137:	00 a1 13 10 00 a1    	add    BYTE PTR [ecx-0x5effefed],ah
  10313d:	13 10                	adc    edx,DWORD PTR [eax]
  10313f:	00 a1 13 10 00 a1    	add    BYTE PTR [ecx-0x5effefed],ah
  103145:	13 10                	adc    edx,DWORD PTR [eax]
  103147:	00 a1 13 10 00 a1    	add    BYTE PTR [ecx-0x5effefed],ah
  10314d:	13 10                	adc    edx,DWORD PTR [eax]
  10314f:	00 a1 13 10 00 a1    	add    BYTE PTR [ecx-0x5effefed],ah
  103155:	13 10                	adc    edx,DWORD PTR [eax]
  103157:	00 a1 13 10 00 a1    	add    BYTE PTR [ecx-0x5effefed],ah
  10315d:	13 10                	adc    edx,DWORD PTR [eax]
  10315f:	00 a1 13 10 00 a1    	add    BYTE PTR [ecx-0x5effefed],ah
  103165:	13 10                	adc    edx,DWORD PTR [eax]
  103167:	00 a1 13 10 00 a1    	add    BYTE PTR [ecx-0x5effefed],ah
  10316d:	13 10                	adc    edx,DWORD PTR [eax]
  10316f:	00 a1 13 10 00 a1    	add    BYTE PTR [ecx-0x5effefed],ah
  103175:	13 10                	adc    edx,DWORD PTR [eax]
  103177:	00 a1 13 10 00 a1    	add    BYTE PTR [ecx-0x5effefed],ah
  10317d:	13 10                	adc    edx,DWORD PTR [eax]
  10317f:	00 a1 13 10 00 a1    	add    BYTE PTR [ecx-0x5effefed],ah
  103185:	13 10                	adc    edx,DWORD PTR [eax]
  103187:	00 a1 13 10 00 a1    	add    BYTE PTR [ecx-0x5effefed],ah
  10318d:	13 10                	adc    edx,DWORD PTR [eax]
  10318f:	00 a1 13 10 00 a1    	add    BYTE PTR [ecx-0x5effefed],ah
  103195:	13 10                	adc    edx,DWORD PTR [eax]
  103197:	00 a1 13 10 00 a1    	add    BYTE PTR [ecx-0x5effefed],ah
  10319d:	13 10                	adc    edx,DWORD PTR [eax]
  10319f:	00 a1 13 10 00 a1    	add    BYTE PTR [ecx-0x5effefed],ah
  1031a5:	13 10                	adc    edx,DWORD PTR [eax]
  1031a7:	00 a1 13 10 00 a1    	add    BYTE PTR [ecx-0x5effefed],ah
  1031ad:	13 10                	adc    edx,DWORD PTR [eax]
  1031af:	00 a1 13 10 00 a1    	add    BYTE PTR [ecx-0x5effefed],ah
  1031b5:	13 10                	adc    edx,DWORD PTR [eax]
  1031b7:	00 90 13 10 00 a1    	add    BYTE PTR [eax-0x5effefed],dl
  1031bd:	13 10                	adc    edx,DWORD PTR [eax]
  1031bf:	00 a1 13 10 00 a1    	add    BYTE PTR [ecx-0x5effefed],ah
  1031c5:	13 10                	adc    edx,DWORD PTR [eax]
  1031c7:	00 a1 13 10 00 a1    	add    BYTE PTR [ecx-0x5effefed],ah
  1031cd:	13 10                	adc    edx,DWORD PTR [eax]
  1031cf:	00 a1 13 10 00 a1    	add    BYTE PTR [ecx-0x5effefed],ah
  1031d5:	13 10                	adc    edx,DWORD PTR [eax]
  1031d7:	00 a1 13 10 00 a1    	add    BYTE PTR [ecx-0x5effefed],ah
  1031dd:	13 10                	adc    edx,DWORD PTR [eax]
  1031df:	00 a1 13 10 00 ac    	add    BYTE PTR [ecx-0x53ffefed],ah
  1031e5:	11 10                	adc    DWORD PTR [eax],edx
  1031e7:	00 9a 13 10 00 a1    	add    BYTE PTR [edx-0x5effefed],bl
  1031ed:	13 10                	adc    edx,DWORD PTR [eax]
  1031ef:	00 a1 13 10 00 a1    	add    BYTE PTR [ecx-0x5effefed],ah
  1031f5:	13 10                	adc    edx,DWORD PTR [eax]
  1031f7:	00 a1 13 10 00 9a    	add    BYTE PTR [ecx-0x65ffefed],ah
  1031fd:	13 10                	adc    edx,DWORD PTR [eax]
  1031ff:	00 a1 13 10 00 a1    	add    BYTE PTR [ecx-0x5effefed],ah
  103205:	13 10                	adc    edx,DWORD PTR [eax]
  103207:	00 a1 13 10 00 a1    	add    BYTE PTR [ecx-0x5effefed],ah
  10320d:	13 10                	adc    edx,DWORD PTR [eax]
  10320f:	00 1b                	add    BYTE PTR [ebx],bl
  103211:	13 10                	adc    edx,DWORD PTR [eax]
  103213:	00 81 13 10 00 bf    	add    BYTE PTR [ecx-0x40ffefed],al
  103219:	12 10                	adc    dl,BYTE PTR [eax]
  10321b:	00 a1 13 10 00 a1    	add    BYTE PTR [ecx-0x5effefed],ah
  103221:	13 10                	adc    edx,DWORD PTR [eax]
  103223:	00 10                	add    BYTE PTR [eax],dl
  103225:	12 10                	adc    dl,BYTE PTR [eax]
  103227:	00 a1 13 10 00 e3    	add    BYTE PTR [ecx-0x1cffefed],ah
  10322d:	13 10                	adc    edx,DWORD PTR [eax]
  10322f:	00 a1 13 10 00 a1    	add    BYTE PTR [ecx-0x5effefed],ah
  103235:	13 10                	adc    edx,DWORD PTR [eax]
  103237:	00 8b 13 10 00     	add    BYTE PTR [ebx+0x30001013],cl

0010323c <_digits.1556>:
  10323c:	30 31                	xor    BYTE PTR [ecx],dh
  10323e:	32 33                	xor    dh,BYTE PTR [ebx]
  103240:	34 35                	xor    al,0x35
  103242:	36 37                	ss aaa 
  103244:	38 39                	cmp    BYTE PTR [ecx],bh
  103246:	41                   	inc    ecx
  103247:	42                   	inc    edx
  103248:	43                   	inc    ebx
  103249:	44                   	inc    esp
  10324a:	45                   	inc    ebp
  10324b:	46                   	inc    esi

0010324c <.rdata>:
  10324c:	44                   	inc    esp
  10324d:	69 76 69 73 69 6f 6e 	imul   esi,DWORD PTR [esi+0x69],0x6e6f6973
  103254:	20 42 79             	and    BYTE PTR [edx+0x79],al
  103257:	20 5a 65             	and    BYTE PTR [edx+0x65],bl
  10325a:	72 6f                	jb     1032cb <.rdata+0x7f>
  10325c:	00 44 65 62          	add    BYTE PTR [ebp+eiz*2+0x62],al
  103260:	75 67                	jne    1032c9 <.rdata+0x7d>
  103262:	00 4e 6f             	add    BYTE PTR [esi+0x6f],cl
  103265:	6e                   	outs   dx,BYTE PTR ds:[esi]
  103266:	20 4d 61             	and    BYTE PTR [ebp+0x61],cl
  103269:	73 6b                	jae    1032d6 <.rdata+0x8a>
  10326b:	61                   	popa   
  10326c:	62 6c 65 20          	bound  ebp,QWORD PTR [ebp+eiz*2+0x20]
  103270:	49                   	dec    ecx
  103271:	6e                   	outs   dx,BYTE PTR ds:[esi]
  103272:	74 65                	je     1032d9 <.rdata+0x8d>
  103274:	72 72                	jb     1032e8 <.rdata+0x9c>
  103276:	75 70                	jne    1032e8 <.rdata+0x9c>
  103278:	74 00                	je     10327a <.rdata+0x2e>
  10327a:	42                   	inc    edx
  10327b:	72 65                	jb     1032e2 <.rdata+0x96>
  10327d:	61                   	popa   
  10327e:	6b 70 6f 69          	imul   esi,DWORD PTR [eax+0x6f],0x69
  103282:	6e                   	outs   dx,BYTE PTR ds:[esi]
  103283:	74 00                	je     103285 <.rdata+0x39>
  103285:	49                   	dec    ecx
  103286:	6e                   	outs   dx,BYTE PTR ds:[esi]
  103287:	74 6f                	je     1032f8 <.rdata+0xac>
  103289:	20 44 65 74          	and    BYTE PTR [ebp+eiz*2+0x74],al
  10328d:	65 63 74 65 64       	arpl   WORD PTR gs:[ebp+eiz*2+0x64],si
  103292:	20 4f 76             	and    BYTE PTR [edi+0x76],cl
  103295:	65 72 66             	gs jb  1032fe <.rdata+0xb2>
  103298:	6c                   	ins    BYTE PTR es:[edi],dx
  103299:	6f                   	outs   dx,DWORD PTR ds:[esi]
  10329a:	77 00                	ja     10329c <.rdata+0x50>
  10329c:	4f                   	dec    edi
  10329d:	75 74                	jne    103313 <.rdata+0xc7>
  10329f:	20 6f 66             	and    BYTE PTR [edi+0x66],ch
  1032a2:	20 42 6f             	and    BYTE PTR [edx+0x6f],al
  1032a5:	75 6e                	jne    103315 <.rdata+0xc9>
  1032a7:	64 73 00             	fs jae 1032aa <.rdata+0x5e>
  1032aa:	49                   	dec    ecx
  1032ab:	6e                   	outs   dx,BYTE PTR ds:[esi]
  1032ac:	76 61                	jbe    10330f <.rdata+0xc3>
  1032ae:	6c                   	ins    BYTE PTR es:[edi],dx
  1032af:	69 64 20 4f 70 63 6f 	imul   esp,DWORD PTR [eax+eiz*1+0x4f],0x646f6370
  1032b6:	64 
  1032b7:	65 00 4e 6f          	add    BYTE PTR gs:[esi+0x6f],cl
  1032bb:	20 43 6f             	and    BYTE PTR [ebx+0x6f],al
  1032be:	70 72                	jo     103332 <.rdata+0xe6>
  1032c0:	6f                   	outs   dx,DWORD PTR ds:[esi]
  1032c1:	63 65 73             	arpl   WORD PTR [ebp+0x73],sp
  1032c4:	73 6f                	jae    103335 <.rdata+0xe9>
  1032c6:	72 00                	jb     1032c8 <.rdata+0x7c>
  1032c8:	44                   	inc    esp
  1032c9:	6f                   	outs   dx,DWORD PTR ds:[esi]
  1032ca:	75 62                	jne    10332e <.rdata+0xe2>
  1032cc:	6c                   	ins    BYTE PTR es:[edi],dx
  1032cd:	65 20 46 61          	and    BYTE PTR gs:[esi+0x61],al
  1032d1:	75 6c                	jne    10333f <.rdata+0xf3>
  1032d3:	74 00                	je     1032d5 <.rdata+0x89>
  1032d5:	43                   	inc    ebx
  1032d6:	6f                   	outs   dx,DWORD PTR ds:[esi]
  1032d7:	70 72                	jo     10334b <.rdata+0xff>
  1032d9:	6f                   	outs   dx,DWORD PTR ds:[esi]
  1032da:	63 65 73             	arpl   WORD PTR [ebp+0x73],sp
  1032dd:	73 6f                	jae    10334e <.rdata+0x102>
  1032df:	72 20                	jb     103301 <.rdata+0xb5>
  1032e1:	53                   	push   ebx
  1032e2:	65 67 6d             	gs ins DWORD PTR es:[di],dx
  1032e5:	65 6e                	outs   dx,BYTE PTR gs:[esi]
  1032e7:	74 20                	je     103309 <.rdata+0xbd>
  1032e9:	4f                   	dec    edi
  1032ea:	76 65                	jbe    103351 <.rdata+0x105>
  1032ec:	72 72                	jb     103360 <.rdata+0x114>
  1032ee:	75 6e                	jne    10335e <.rdata+0x112>
  1032f0:	00 42 61             	add    BYTE PTR [edx+0x61],al
  1032f3:	64 20 54 53 53       	and    BYTE PTR fs:[ebx+edx*2+0x53],dl
  1032f8:	00 53 65             	add    BYTE PTR [ebx+0x65],dl
  1032fb:	67 6d                	ins    DWORD PTR es:[di],dx
  1032fd:	65 6e                	outs   dx,BYTE PTR gs:[esi]
  1032ff:	74 20                	je     103321 <.rdata+0xd5>
  103301:	4e                   	dec    esi
  103302:	6f                   	outs   dx,DWORD PTR ds:[esi]
  103303:	74 20                	je     103325 <.rdata+0xd9>
  103305:	50                   	push   eax
  103306:	72 65                	jb     10336d <.rdata+0x121>
  103308:	73 65                	jae    10336f <.rdata+0x123>
  10330a:	6e                   	outs   dx,BYTE PTR ds:[esi]
  10330b:	74 00                	je     10330d <.rdata+0xc1>
  10330d:	53                   	push   ebx
  10330e:	74 61                	je     103371 <.rdata+0x125>
  103310:	63 6b 20             	arpl   WORD PTR [ebx+0x20],bp
  103313:	46                   	inc    esi
  103314:	61                   	popa   
  103315:	75 6c                	jne    103383 <.rdata+0x137>
  103317:	74 00                	je     103319 <.rdata+0xcd>
  103319:	47                   	inc    edi
  10331a:	65 6e                	outs   dx,BYTE PTR gs:[esi]
  10331c:	65 72 61             	gs jb  103380 <.rdata+0x134>
  10331f:	6c                   	ins    BYTE PTR es:[edi],dx
  103320:	20 50 72             	and    BYTE PTR [eax+0x72],dl
  103323:	6f                   	outs   dx,DWORD PTR ds:[esi]
  103324:	74 65                	je     10338b <.rdata+0x13f>
  103326:	63 74 69 6f          	arpl   WORD PTR [ecx+ebp*2+0x6f],si
  10332a:	6e                   	outs   dx,BYTE PTR ds:[esi]
  10332b:	20 46 61             	and    BYTE PTR [esi+0x61],al
  10332e:	75 6c                	jne    10339c <.rdata+0x150>
  103330:	74 00                	je     103332 <.rdata+0xe6>
  103332:	50                   	push   eax
  103333:	61                   	popa   
  103334:	67 65 20 46 61       	and    BYTE PTR gs:[bp+0x61],al
  103339:	75 6c                	jne    1033a7 <.rdata+0x15b>
  10333b:	74 00                	je     10333d <.rdata+0xf1>
  10333d:	55                   	push   ebp
  10333e:	6e                   	outs   dx,BYTE PTR ds:[esi]
  10333f:	6b 6e 6f 77          	imul   ebp,DWORD PTR [esi+0x6f],0x77
  103343:	6e                   	outs   dx,BYTE PTR ds:[esi]
  103344:	20 49 6e             	and    BYTE PTR [ecx+0x6e],cl
  103347:	74 65                	je     1033ae <.rdata+0x162>
  103349:	72 72                	jb     1033bd <.rdata+0x1>
  10334b:	75 70                	jne    1033bd <.rdata+0x1>
  10334d:	74 00                	je     10334f <.rdata+0x103>
  10334f:	43                   	inc    ebx
  103350:	6f                   	outs   dx,DWORD PTR ds:[esi]
  103351:	70 72                	jo     1033c5 <.rdata+0x9>
  103353:	6f                   	outs   dx,DWORD PTR ds:[esi]
  103354:	63 65 73             	arpl   WORD PTR [ebp+0x73],sp
  103357:	73 6f                	jae    1033c8 <.rdata+0xc>
  103359:	72 20                	jb     10337b <.rdata+0x12f>
  10335b:	46                   	inc    esi
  10335c:	61                   	popa   
  10335d:	75 6c                	jne    1033cb <.rdata+0xf>
  10335f:	74 00                	je     103361 <.rdata+0x115>
  103361:	41                   	inc    ecx
  103362:	6c                   	ins    BYTE PTR es:[edi],dx
  103363:	69 67 6e 6d 65 6e 74 	imul   esp,DWORD PTR [edi+0x6e],0x746e656d
  10336a:	20 43 68             	and    BYTE PTR [ebx+0x68],al
  10336d:	65 63 6b 00          	arpl   WORD PTR gs:[ebx+0x0],bp
  103371:	4d                   	dec    ebp
  103372:	61                   	popa   
  103373:	63 68 69             	arpl   WORD PTR [eax+0x69],bp
  103376:	6e                   	outs   dx,BYTE PTR ds:[esi]
  103377:	65 20 43 68          	and    BYTE PTR gs:[ebx+0x68],al
  10337b:	65 63 6b 00          	arpl   WORD PTR gs:[ebx+0x0],bp
  10337f:	52                   	push   edx
  103380:	65 73 65             	gs jae 1033e8 <.rdata+0x2c>
  103383:	72 76                	jb     1033fb <.rdata+0x3f>
  103385:	65 64 00 49 52       	gs add BYTE PTR fs:[ecx+0x52],cl
  10338a:	51                   	push   ecx
  10338b:	20 25 64 20 52 65    	and    BYTE PTR ds:0x65522064,ah
  103391:	67 69 73 74 65 72 65 	imul   esi,DWORD PTR [bp+di+0x74],0x64657265
  103398:	64 
  103399:	0a 00                	or     al,BYTE PTR [eax]
  10339b:	00 45 58             	add    BYTE PTR [ebp+0x58],al
  10339e:	43                   	inc    ebx
  10339f:	45                   	inc    ebp
  1033a0:	50                   	push   eax
  1033a1:	54                   	push   esp
  1033a2:	49                   	dec    ecx
  1033a3:	4f                   	dec    edi
  1033a4:	4e                   	dec    esi
  1033a5:	3a 20                	cmp    ah,BYTE PTR [eax]
  1033a7:	25 73 20 28 65       	and    eax,0x65282073
  1033ac:	72 72                	jb     103420 <.rdata+0x64>
  1033ae:	20 63 6f             	and    BYTE PTR [ebx+0x6f],ah
  1033b1:	64 65 20 69 73       	fs and BYTE PTR gs:[ecx+0x73],ch
  1033b6:	20 25 78 29 0a 00    	and    BYTE PTR ds:0xa2978,ah

001033bc <.rdata>:
  1033bc:	4a                   	dec    edx
  1033bd:	61                   	popa   
  1033be:	72 76                	jb     103436 <.rdata+0x7a>
  1033c0:	69 73 4f 53 20 72 65 	imul   esi,DWORD PTR [ebx+0x4f],0x65722053
  1033c7:	71 75                	jno    10343e <.rdata+0x82>
  1033c9:	69 72 65 73 20 74 68 	imul   esi,DWORD PTR [edx+0x65],0x68742073
  1033d0:	65 20 43 50          	and    BYTE PTR gs:[ebx+0x50],al
  1033d4:	55                   	push   ebp
  1033d5:	49                   	dec    ecx
  1033d6:	44                   	inc    esp
  1033d7:	20 69 6e             	and    BYTE PTR [ecx+0x6e],ch
  1033da:	73 74                	jae    103450 <.rdata+0x94>
  1033dc:	72 75                	jb     103453 <.rdata+0x97>
  1033de:	63 74 69 6f          	arpl   WORD PTR [ecx+ebp*2+0x6f],si
  1033e2:	6e                   	outs   dx,BYTE PTR ds:[esi]
  1033e3:	20 74 6f 20          	and    BYTE PTR [edi+ebp*2+0x20],dh
  1033e7:	72 65                	jb     10344e <.rdata+0x92>
  1033e9:	74 75                	je     103460 <.rdata+0xa4>
  1033eb:	72 6e                	jb     10345b <.rdata+0x9f>
  1033ed:	20 6d 6f             	and    BYTE PTR [ebp+0x6f],ch
  1033f0:	72 65                	jb     103457 <.rdata+0x9b>
  1033f2:	20 74 68 61          	and    BYTE PTR [eax+ebp*2+0x61],dh
  1033f6:	6e                   	outs   dx,BYTE PTR ds:[esi]
  1033f7:	20 6f 6e             	and    BYTE PTR [edi+0x6e],ch
  1033fa:	65 20 73 75          	and    BYTE PTR gs:[ebx+0x75],dh
  1033fe:	70 70                	jo     103470 <.rdata+0xb4>
  103400:	6f                   	outs   dx,DWORD PTR ds:[esi]
  103401:	72 74                	jb     103477 <.rdata+0xbb>
  103403:	65 64 20 49 44       	gs and BYTE PTR fs:[ecx+0x44],cl
  103408:	2e 0a 00             	or     al,BYTE PTR cs:[eax]
  10340b:	00 50 72             	add    BYTE PTR [eax+0x72],dl
  10340e:	6f                   	outs   dx,DWORD PTR ds:[esi]
  10340f:	63 65 73             	arpl   WORD PTR [ebp+0x73],sp
  103412:	73 6f                	jae    103483 <.rdata+0xc7>
  103414:	72 20                	jb     103436 <.rdata+0x7a>
  103416:	69 73 20 74 6f 6f 20 	imul   esi,DWORD PTR [ebx+0x20],0x206f6f74
  10341d:	6f                   	outs   dx,DWORD PTR ds:[esi]
  10341e:	6c                   	ins    BYTE PTR es:[edi],dx
  10341f:	64 20 28             	and    BYTE PTR fs:[eax],ch
  103422:	66 61                	popaw  
  103424:	6d                   	ins    DWORD PTR es:[edi],dx
  103425:	69 6c 79 20 25 75 20 	imul   ebp,DWORD PTR [ecx+edi*2+0x20],0x3c207525
  10342c:	3c 
  10342d:	20 35 29 0a 00 00    	and    BYTE PTR ds:0xa29,dh
  103433:	00 50 72             	add    BYTE PTR [eax+0x72],dl
  103436:	6f                   	outs   dx,DWORD PTR ds:[esi]
  103437:	63 65 73             	arpl   WORD PTR [ebp+0x73],sp
  10343a:	73 6f                	jae    1034ab <.rdata+0x13>
  10343c:	72 20                	jb     10345e <.rdata+0xa2>
  10343e:	69 73 20 61 63 63 65 	imul   esi,DWORD PTR [ebx+0x20],0x65636361
  103445:	70 74                	jo     1034bb <.rdata+0x23>
  103447:	61                   	popa   
  103448:	62 6c 65 20          	bound  ebp,QWORD PTR [ebp+eiz*2+0x20]
  10344c:	28 66 61             	sub    BYTE PTR [esi+0x61],ah
  10344f:	6d                   	ins    DWORD PTR es:[edi],dx
  103450:	69 6c 79 20 25 75 20 	imul   ebp,DWORD PTR [ecx+edi*2+0x20],0x3e207525
  103457:	3e 
  103458:	20 35 29 0a 00 00    	and    BYTE PTR ds:0xa29,dh
  10345e:	00 00                	add    BYTE PTR [eax],al
  103460:	4a                   	dec    edx
  103461:	61                   	popa   
  103462:	72 76                	jb     1034da <.rdata+0x42>
  103464:	69 73 4f 53 20 72 65 	imul   esi,DWORD PTR [ebx+0x4f],0x65722053
  10346b:	71 75                	jno    1034e2 <.rdata+0x4a>
  10346d:	69 72 65 73 20 61 20 	imul   esi,DWORD PTR [edx+0x65],0x20612073
  103474:	50                   	push   eax
  103475:	65 6e                	outs   dx,BYTE PTR gs:[esi]
  103477:	74 69                	je     1034e2 <.rdata+0x4a>
  103479:	75 6d                	jne    1034e8 <.rdata+0x50>
  10347b:	2d 6c 65 76 65       	sub    eax,0x6576656c
  103480:	6c                   	ins    BYTE PTR es:[edi],dx
  103481:	20 70 72             	and    BYTE PTR [eax+0x72],dh
  103484:	6f                   	outs   dx,DWORD PTR ds:[esi]
  103485:	63 65 73             	arpl   WORD PTR [ebp+0x73],sp
  103488:	73 6f                	jae    1034f9 <.rdata+0x61>
  10348a:	72 20                	jb     1034ac <.rdata+0x14>
  10348c:	6f                   	outs   dx,DWORD PTR ds:[esi]
  10348d:	72 20                	jb     1034af <.rdata+0x17>
  10348f:	6e                   	outs   dx,BYTE PTR ds:[esi]
  103490:	65 77 65             	gs ja  1034f8 <.rdata+0x60>
  103493:	72 2e                	jb     1034c3 <.rdata+0x2b>
  103495:	0a 00                	or     al,BYTE PTR [eax]
	...

00103498 <.rdata>:
  103498:	6d                   	ins    DWORD PTR es:[edi],dx
  103499:	65 6d                	gs ins DWORD PTR es:[edi],dx
  10349b:	20 73 69             	and    BYTE PTR [ebx+0x69],dh
  10349e:	7a 65                	jp     103505 <.rdata$zzz+0x9>
  1034a0:	3a 20                	cmp    ah,BYTE PTR [eax]
  1034a2:	20 20                	and    BYTE PTR [eax],ah
  1034a4:	20 20                	and    BYTE PTR [eax],ah
  1034a6:	25 75 20 6d 62       	and    eax,0x626d2075
  1034ab:	0a 00                	or     al,BYTE PTR [eax]
  1034ad:	74 6f                	je     10351e <.rdata$zzz+0x2>
  1034af:	74 61                	je     103512 <.rdata$zzz+0x16>
  1034b1:	6c                   	ins    BYTE PTR es:[edi],dx
  1034b2:	5f                   	pop    edi
  1034b3:	62 6c 6f 63          	bound  ebp,QWORD PTR [edi+ebp*2+0x63]
  1034b7:	6b 73 3a 20          	imul   esi,DWORD PTR [ebx+0x3a],0x20
  1034bb:	25 75 0a 00 62       	and    eax,0x62000a75
  1034c0:	69 74 6d 61 70 20 61 	imul   esi,DWORD PTR [ebp+ebp*2+0x61],0x64612070
  1034c7:	64 
  1034c8:	64 72 3a             	fs jb  103505 <.rdata$zzz+0x9>
  1034cb:	20 20                	and    BYTE PTR [eax],ah
  1034cd:	30 78 25             	xor    BYTE PTR [eax+0x25],bh
  1034d0:	70 0a                	jo     1034dc <.rdata+0x44>
  1034d2:	00 62 69             	add    BYTE PTR [edx+0x69],ah
  1034d5:	74 6d                	je     103544 <.rdata$zzz+0x8>
  1034d7:	61                   	popa   
  1034d8:	70 5f                	jo     103539 <.rdata$zzz+0x1d>
  1034da:	73 69                	jae    103545 <.rdata$zzz+0x9>
  1034dc:	7a 65                	jp     103543 <.rdata$zzz+0x7>
  1034de:	3a 20                	cmp    ah,BYTE PTR [eax]
  1034e0:	20 25 75 0a 00 6d    	and    BYTE PTR ds:0x6d000a75,ah
  1034e6:	65 6d                	gs ins DWORD PTR es:[edi],dx
  1034e8:	5f                   	pop    edi
  1034e9:	73 74                	jae    10355f <.rdata$zzz+0x3>
  1034eb:	61                   	popa   
  1034ec:	72 74                	jb     103562 <.rdata$zzz+0x6>
  1034ee:	3a 20                	cmp    ah,BYTE PTR [eax]
  1034f0:	20 20                	and    BYTE PTR [eax],ah
  1034f2:	20 30                	and    BYTE PTR [eax],dh
  1034f4:	78 25                	js     10351b <.rdata$zzz+0x1f>
  1034f6:	70 0a                	jo     103502 <.rdata$zzz+0x6>
  1034f8:	00 00                	add    BYTE PTR [eax],al
	...

001034fc <.rdata$zzz>:
  1034fc:	47                   	inc    edi
  1034fd:	43                   	inc    ebx
  1034fe:	43                   	inc    ebx
  1034ff:	3a 20                	cmp    ah,BYTE PTR [eax]
  103501:	28 47 4e             	sub    BYTE PTR [edi+0x4e],al
  103504:	55                   	push   ebp
  103505:	29 20                	sub    DWORD PTR [eax],esp
  103507:	39 2e                	cmp    DWORD PTR [esi],ebp
  103509:	33 2d 77 69 6e 33    	xor    ebp,DWORD PTR ds:0x336e6977
  10350f:	32 20                	xor    ah,BYTE PTR [eax]
  103511:	32 30                	xor    dh,BYTE PTR [eax]
  103513:	32 30                	xor    dh,BYTE PTR [eax]
  103515:	30 33                	xor    BYTE PTR [ebx],dh
  103517:	32 30                	xor    dh,BYTE PTR [eax]
  103519:	00 00                	add    BYTE PTR [eax],al
	...

0010351c <.rdata$zzz>:
  10351c:	47                   	inc    edi
  10351d:	43                   	inc    ebx
  10351e:	43                   	inc    ebx
  10351f:	3a 20                	cmp    ah,BYTE PTR [eax]
  103521:	28 47 4e             	sub    BYTE PTR [edi+0x4e],al
  103524:	55                   	push   ebp
  103525:	29 20                	sub    DWORD PTR [eax],esp
  103527:	39 2e                	cmp    DWORD PTR [esi],ebp
  103529:	33 2d 77 69 6e 33    	xor    ebp,DWORD PTR ds:0x336e6977
  10352f:	32 20                	xor    ah,BYTE PTR [eax]
  103531:	32 30                	xor    dh,BYTE PTR [eax]
  103533:	32 30                	xor    dh,BYTE PTR [eax]
  103535:	30 33                	xor    BYTE PTR [ebx],dh
  103537:	32 30                	xor    dh,BYTE PTR [eax]
  103539:	00 00                	add    BYTE PTR [eax],al
	...

0010353c <.rdata$zzz>:
  10353c:	47                   	inc    edi
  10353d:	43                   	inc    ebx
  10353e:	43                   	inc    ebx
  10353f:	3a 20                	cmp    ah,BYTE PTR [eax]
  103541:	28 47 4e             	sub    BYTE PTR [edi+0x4e],al
  103544:	55                   	push   ebp
  103545:	29 20                	sub    DWORD PTR [eax],esp
  103547:	39 2e                	cmp    DWORD PTR [esi],ebp
  103549:	33 2d 77 69 6e 33    	xor    ebp,DWORD PTR ds:0x336e6977
  10354f:	32 20                	xor    ah,BYTE PTR [eax]
  103551:	32 30                	xor    dh,BYTE PTR [eax]
  103553:	32 30                	xor    dh,BYTE PTR [eax]
  103555:	30 33                	xor    BYTE PTR [ebx],dh
  103557:	32 30                	xor    dh,BYTE PTR [eax]
  103559:	00 00                	add    BYTE PTR [eax],al
	...

0010355c <.rdata$zzz>:
  10355c:	47                   	inc    edi
  10355d:	43                   	inc    ebx
  10355e:	43                   	inc    ebx
  10355f:	3a 20                	cmp    ah,BYTE PTR [eax]
  103561:	28 47 4e             	sub    BYTE PTR [edi+0x4e],al
  103564:	55                   	push   ebp
  103565:	29 20                	sub    DWORD PTR [eax],esp
  103567:	39 2e                	cmp    DWORD PTR [esi],ebp
  103569:	33 2d 77 69 6e 33    	xor    ebp,DWORD PTR ds:0x336e6977
  10356f:	32 20                	xor    ah,BYTE PTR [eax]
  103571:	32 30                	xor    dh,BYTE PTR [eax]
  103573:	32 30                	xor    dh,BYTE PTR [eax]
  103575:	30 33                	xor    BYTE PTR [ebx],dh
  103577:	32 30                	xor    dh,BYTE PTR [eax]
  103579:	00 00                	add    BYTE PTR [eax],al
	...

0010357c <.rdata$zzz>:
  10357c:	47                   	inc    edi
  10357d:	43                   	inc    ebx
  10357e:	43                   	inc    ebx
  10357f:	3a 20                	cmp    ah,BYTE PTR [eax]
  103581:	28 47 4e             	sub    BYTE PTR [edi+0x4e],al
  103584:	55                   	push   ebp
  103585:	29 20                	sub    DWORD PTR [eax],esp
  103587:	39 2e                	cmp    DWORD PTR [esi],ebp
  103589:	33 2d 77 69 6e 33    	xor    ebp,DWORD PTR ds:0x336e6977
  10358f:	32 20                	xor    ah,BYTE PTR [eax]
  103591:	32 30                	xor    dh,BYTE PTR [eax]
  103593:	32 30                	xor    dh,BYTE PTR [eax]
  103595:	30 33                	xor    BYTE PTR [ebx],dh
  103597:	32 30                	xor    dh,BYTE PTR [eax]
  103599:	00 00                	add    BYTE PTR [eax],al
	...

0010359c <.rdata$zzz>:
  10359c:	47                   	inc    edi
  10359d:	43                   	inc    ebx
  10359e:	43                   	inc    ebx
  10359f:	3a 20                	cmp    ah,BYTE PTR [eax]
  1035a1:	28 47 4e             	sub    BYTE PTR [edi+0x4e],al
  1035a4:	55                   	push   ebp
  1035a5:	29 20                	sub    DWORD PTR [eax],esp
  1035a7:	39 2e                	cmp    DWORD PTR [esi],ebp
  1035a9:	33 2d 77 69 6e 33    	xor    ebp,DWORD PTR ds:0x336e6977
  1035af:	32 20                	xor    ah,BYTE PTR [eax]
  1035b1:	32 30                	xor    dh,BYTE PTR [eax]
  1035b3:	32 30                	xor    dh,BYTE PTR [eax]
  1035b5:	30 33                	xor    BYTE PTR [ebx],dh
  1035b7:	32 30                	xor    dh,BYTE PTR [eax]
  1035b9:	00 00                	add    BYTE PTR [eax],al
	...

001035bc <.rdata$zzz>:
  1035bc:	47                   	inc    edi
  1035bd:	43                   	inc    ebx
  1035be:	43                   	inc    ebx
  1035bf:	3a 20                	cmp    ah,BYTE PTR [eax]
  1035c1:	28 47 4e             	sub    BYTE PTR [edi+0x4e],al
  1035c4:	55                   	push   ebp
  1035c5:	29 20                	sub    DWORD PTR [eax],esp
  1035c7:	39 2e                	cmp    DWORD PTR [esi],ebp
  1035c9:	33 2d 77 69 6e 33    	xor    ebp,DWORD PTR ds:0x336e6977
  1035cf:	32 20                	xor    ah,BYTE PTR [eax]
  1035d1:	32 30                	xor    dh,BYTE PTR [eax]
  1035d3:	32 30                	xor    dh,BYTE PTR [eax]
  1035d5:	30 33                	xor    BYTE PTR [ebx],dh
  1035d7:	32 30                	xor    dh,BYTE PTR [eax]
  1035d9:	00 00                	add    BYTE PTR [eax],al
	...

001035dc <.rdata$zzz>:
  1035dc:	47                   	inc    edi
  1035dd:	43                   	inc    ebx
  1035de:	43                   	inc    ebx
  1035df:	3a 20                	cmp    ah,BYTE PTR [eax]
  1035e1:	28 47 4e             	sub    BYTE PTR [edi+0x4e],al
  1035e4:	55                   	push   ebp
  1035e5:	29 20                	sub    DWORD PTR [eax],esp
  1035e7:	39 2e                	cmp    DWORD PTR [esi],ebp
  1035e9:	33 2d 77 69 6e 33    	xor    ebp,DWORD PTR ds:0x336e6977
  1035ef:	32 20                	xor    ah,BYTE PTR [eax]
  1035f1:	32 30                	xor    dh,BYTE PTR [eax]
  1035f3:	32 30                	xor    dh,BYTE PTR [eax]
  1035f5:	30 33                	xor    BYTE PTR [ebx],dh
  1035f7:	32 30                	xor    dh,BYTE PTR [eax]
  1035f9:	00 00                	add    BYTE PTR [eax],al
	...

001035fc <.rdata$zzz>:
  1035fc:	47                   	inc    edi
  1035fd:	43                   	inc    ebx
  1035fe:	43                   	inc    ebx
  1035ff:	3a 20                	cmp    ah,BYTE PTR [eax]
  103601:	28 47 4e             	sub    BYTE PTR [edi+0x4e],al
  103604:	55                   	push   ebp
  103605:	29 20                	sub    DWORD PTR [eax],esp
  103607:	39 2e                	cmp    DWORD PTR [esi],ebp
  103609:	33 2d 77 69 6e 33    	xor    ebp,DWORD PTR ds:0x336e6977
  10360f:	32 20                	xor    ah,BYTE PTR [eax]
  103611:	32 30                	xor    dh,BYTE PTR [eax]
  103613:	32 30                	xor    dh,BYTE PTR [eax]
  103615:	30 33                	xor    BYTE PTR [ebx],dh
  103617:	32 30                	xor    dh,BYTE PTR [eax]
  103619:	00 00                	add    BYTE PTR [eax],al
	...

0010361c <.rdata$zzz>:
  10361c:	47                   	inc    edi
  10361d:	43                   	inc    ebx
  10361e:	43                   	inc    ebx
  10361f:	3a 20                	cmp    ah,BYTE PTR [eax]
  103621:	28 47 4e             	sub    BYTE PTR [edi+0x4e],al
  103624:	55                   	push   ebp
  103625:	29 20                	sub    DWORD PTR [eax],esp
  103627:	39 2e                	cmp    DWORD PTR [esi],ebp
  103629:	33 2d 77 69 6e 33    	xor    ebp,DWORD PTR ds:0x336e6977
  10362f:	32 20                	xor    ah,BYTE PTR [eax]
  103631:	32 30                	xor    dh,BYTE PTR [eax]
  103633:	32 30                	xor    dh,BYTE PTR [eax]
  103635:	30 33                	xor    BYTE PTR [ebx],dh
  103637:	32 30                	xor    dh,BYTE PTR [eax]
  103639:	00 00                	add    BYTE PTR [eax],al
	...

0010363c <.rdata$zzz>:
  10363c:	47                   	inc    edi
  10363d:	43                   	inc    ebx
  10363e:	43                   	inc    ebx
  10363f:	3a 20                	cmp    ah,BYTE PTR [eax]
  103641:	28 47 4e             	sub    BYTE PTR [edi+0x4e],al
  103644:	55                   	push   ebp
  103645:	29 20                	sub    DWORD PTR [eax],esp
  103647:	39 2e                	cmp    DWORD PTR [esi],ebp
  103649:	33 2d 77 69 6e 33    	xor    ebp,DWORD PTR ds:0x336e6977
  10364f:	32 20                	xor    ah,BYTE PTR [eax]
  103651:	32 30                	xor    dh,BYTE PTR [eax]
  103653:	32 30                	xor    dh,BYTE PTR [eax]
  103655:	30 33                	xor    BYTE PTR [ebx],dh
  103657:	32 30                	xor    dh,BYTE PTR [eax]
  103659:	00 00                	add    BYTE PTR [eax],al
	...

Disassembly of section .drectve:

00105000 <.drectve>:
  105000:	20 2d 61 6c 69 67    	and    BYTE PTR ds:0x67696c61,ch
  105006:	6e                   	outs   dx,BYTE PTR ds:[esi]
  105007:	63 6f 6d             	arpl   WORD PTR [edi+0x6d],bp
  10500a:	6d                   	ins    DWORD PTR es:[edi],dx
  10500b:	3a 22                	cmp    ah,BYTE PTR [edx]
  10500d:	5f                   	pop    edi
  10500e:	70 61                	jo     105071 <.drectve+0xd>
  105010:	67 65 5f             	addr16 gs pop edi
  105013:	64 69 72 65 63 74 6f 	imul   esi,DWORD PTR fs:[edx+0x65],0x726f7463
  10501a:	72 
  10501b:	79 22                	jns    10503f <.drectve+0x3f>
  10501d:	2c 31                	sub    al,0x31
  10501f:	32 20                	xor    ah,BYTE PTR [eax]
  105021:	2d 61 6c 69 67       	sub    eax,0x67696c61
  105026:	6e                   	outs   dx,BYTE PTR ds:[esi]
  105027:	63 6f 6d             	arpl   WORD PTR [edi+0x6d],bp
  10502a:	6d                   	ins    DWORD PTR es:[edi],dx
  10502b:	3a 22                	cmp    ah,BYTE PTR [edx]
  10502d:	5f                   	pop    edi
  10502e:	66 69 72 73 74 5f    	imul   si,WORD PTR [edx+0x73],0x5f74
  105034:	70 61                	jo     105097 <.drectve+0x33>
  105036:	67 65 5f             	addr16 gs pop edi
  105039:	74 61                	je     10509c <.drectve+0x4>
  10503b:	62 6c 65 22          	bound  ebp,QWORD PTR [ebp+eiz*2+0x22]
  10503f:	2c 31                	sub    al,0x31
  105041:	32 00                	xor    al,BYTE PTR [eax]
	...

00105044 <.drectve>:
  105044:	20 2d 61 6c 69 67    	and    BYTE PTR ds:0x67696c61,ch
  10504a:	6e                   	outs   dx,BYTE PTR ds:[esi]
  10504b:	63 6f 6d             	arpl   WORD PTR [edi+0x6d],bp
  10504e:	6d                   	ins    DWORD PTR es:[edi],dx
  10504f:	3a 22                	cmp    ah,BYTE PTR [edx]
  105051:	5f                   	pop    edi
  105052:	76 69                	jbe    1050bd <.drectve+0x25>
  105054:	64 65 6f             	fs outs dx,DWORD PTR gs:[esi]
  105057:	5f                   	pop    edi
  105058:	6d                   	ins    DWORD PTR es:[edi],dx
  105059:	65 6d                	gs ins DWORD PTR es:[edi],dx
  10505b:	6f                   	outs   dx,DWORD PTR ds:[esi]
  10505c:	72 79                	jb     1050d7 <.drectve+0x3f>
  10505e:	22 2c 32             	and    ch,BYTE PTR [edx+esi*1]
  105061:	00 00                	add    BYTE PTR [eax],al
	...

00105064 <.drectve>:
  105064:	20 2d 61 6c 69 67    	and    BYTE PTR ds:0x67696c61,ch
  10506a:	6e                   	outs   dx,BYTE PTR ds:[esi]
  10506b:	63 6f 6d             	arpl   WORD PTR [edi+0x6d],bp
  10506e:	6d                   	ins    DWORD PTR es:[edi],dx
  10506f:	3a 22                	cmp    ah,BYTE PTR [edx]
  105071:	5f                   	pop    edi
  105072:	67 64 74 5f          	addr16 fs je 1050d5 <.drectve+0x3d>
  105076:	65 6e                	outs   dx,BYTE PTR gs:[esi]
  105078:	74 72                	je     1050ec <.drectve+0x54>
  10507a:	69 65 73 22 2c 35 20 	imul   esp,DWORD PTR [ebp+0x73],0x20352c22
  105081:	2d 61 6c 69 67       	sub    eax,0x67696c61
  105086:	6e                   	outs   dx,BYTE PTR ds:[esi]
  105087:	63 6f 6d             	arpl   WORD PTR [edi+0x6d],bp
  10508a:	6d                   	ins    DWORD PTR es:[edi],dx
  10508b:	3a 22                	cmp    ah,BYTE PTR [edx]
  10508d:	5f                   	pop    edi
  10508e:	67 64 74 5f          	addr16 fs je 1050f1 <.drectve+0x1>
  105092:	70 74                	jo     105108 <.drectve+0x18>
  105094:	72 22                	jb     1050b8 <.drectve+0x20>
  105096:	2c 32                	sub    al,0x32

00105098 <.drectve>:
  105098:	20 2d 61 6c 69 67    	and    BYTE PTR ds:0x67696c61,ch
  10509e:	6e                   	outs   dx,BYTE PTR ds:[esi]
  10509f:	63 6f 6d             	arpl   WORD PTR [edi+0x6d],bp
  1050a2:	6d                   	ins    DWORD PTR es:[edi],dx
  1050a3:	3a 22                	cmp    ah,BYTE PTR [edx]
  1050a5:	5f                   	pop    edi
  1050a6:	69 64 74 5f 65 6e 74 	imul   esp,DWORD PTR [esp+esi*2+0x5f],0x72746e65
  1050ad:	72 
  1050ae:	69 65 73 22 2c 35 20 	imul   esp,DWORD PTR [ebp+0x73],0x20352c22
  1050b5:	2d 61 6c 69 67       	sub    eax,0x67696c61
  1050ba:	6e                   	outs   dx,BYTE PTR ds:[esi]
  1050bb:	63 6f 6d             	arpl   WORD PTR [edi+0x6d],bp
  1050be:	6d                   	ins    DWORD PTR es:[edi],dx
  1050bf:	3a 22                	cmp    ah,BYTE PTR [edx]
  1050c1:	5f                   	pop    edi
  1050c2:	69 64 74 5f 70 74 72 	imul   esp,DWORD PTR [esp+esi*2+0x5f],0x22727470
  1050c9:	22 
  1050ca:	2c 32                	sub    al,0x32
  1050cc:	20 2d 61 6c 69 67    	and    BYTE PTR ds:0x67696c61,ch
  1050d2:	6e                   	outs   dx,BYTE PTR ds:[esi]
  1050d3:	63 6f 6d             	arpl   WORD PTR [edi+0x6d],bp
  1050d6:	6d                   	ins    DWORD PTR es:[edi],dx
  1050d7:	3a 22                	cmp    ah,BYTE PTR [edx]
  1050d9:	5f                   	pop    edi
  1050da:	69 6e 74 65 72 72 75 	imul   ebp,DWORD PTR [esi+0x74],0x75727265
  1050e1:	70 74                	jo     105157 <.drectve+0x4b>
  1050e3:	5f                   	pop    edi
  1050e4:	68 61 6e 64 6c       	push   0x6c646e61
  1050e9:	65 72 73             	gs jb  10515f <.drectve+0x53>
  1050ec:	22 2c 35 00    	and    ch,BYTE PTR [esi*1+0x612d2000]

001050f0 <.drectve>:
  1050f0:	20 2d 61 6c 69 67    	and    BYTE PTR ds:0x67696c61,ch
  1050f6:	6e                   	outs   dx,BYTE PTR ds:[esi]
  1050f7:	63 6f 6d             	arpl   WORD PTR [edi+0x6d],bp
  1050fa:	6d                   	ins    DWORD PTR es:[edi],dx
  1050fb:	3a 22                	cmp    ah,BYTE PTR [edx]
  1050fd:	5f                   	pop    edi
  1050fe:	6b 65 72 6e          	imul   esp,DWORD PTR [ebp+0x72],0x6e
  105102:	65 6c                	gs ins BYTE PTR es:[edi],dx
  105104:	5f                   	pop    edi
  105105:	74 73                	je     10517a <.drectve+0x6e>
  105107:	73 22                	jae    10512b <.drectve+0x1f>
  105109:	2c 35                	sub    al,0x35
	...

0010510c <.drectve>:
  10510c:	20 2d 61 6c 69 67    	and    BYTE PTR ds:0x67696c61,ch
  105112:	6e                   	outs   dx,BYTE PTR ds:[esi]
  105113:	63 6f 6d             	arpl   WORD PTR [edi+0x6d],bp
  105116:	6d                   	ins    DWORD PTR es:[edi],dx
  105117:	3a 22                	cmp    ah,BYTE PTR [edx]
  105119:	5f                   	pop    edi
  10511a:	6d                   	ins    DWORD PTR es:[edi],dx
  10511b:	65 6d                	gs ins DWORD PTR es:[edi],dx
  10511d:	5f                   	pop    edi
  10511e:	73 74                	jae    105194 <.drectve+0x88>
  105120:	61                   	popa   
  105121:	72 74                	jb     105197 <.drectve+0x8b>
  105123:	22 2c 32             	and    ch,BYTE PTR [edx+esi*1]
  105126:	20 2d 61 6c 69 67    	and    BYTE PTR ds:0x67696c61,ch
  10512c:	6e                   	outs   dx,BYTE PTR ds:[esi]
  10512d:	63 6f 6d             	arpl   WORD PTR [edi+0x6d],bp
  105130:	6d                   	ins    DWORD PTR es:[edi],dx
  105131:	3a 22                	cmp    ah,BYTE PTR [edx]
  105133:	5f                   	pop    edi
  105134:	74 6f                	je     1051a5 <.drectve+0x99>
  105136:	74 61                	je     105199 <.drectve+0x8d>
  105138:	6c                   	ins    BYTE PTR es:[edi],dx
  105139:	5f                   	pop    edi
  10513a:	62 6c 6f 63          	bound  ebp,QWORD PTR [edi+ebp*2+0x63]
  10513e:	6b 73 22 2c          	imul   esi,DWORD PTR [ebx+0x22],0x2c
  105142:	32 20                	xor    ah,BYTE PTR [eax]
  105144:	2d 61 6c 69 67       	sub    eax,0x67696c61
  105149:	6e                   	outs   dx,BYTE PTR ds:[esi]
  10514a:	63 6f 6d             	arpl   WORD PTR [edi+0x6d],bp
  10514d:	6d                   	ins    DWORD PTR es:[edi],dx
  10514e:	3a 22                	cmp    ah,BYTE PTR [edx]
  105150:	5f                   	pop    edi
  105151:	62 69 74             	bound  ebp,QWORD PTR [ecx+0x74]
  105154:	6d                   	ins    DWORD PTR es:[edi],dx
  105155:	61                   	popa   
  105156:	70 5f                	jo     1051b7 <.drectve+0xab>
  105158:	73 69                	jae    1051c3 <.drectve+0xb7>
  10515a:	7a 65                	jp     1051c1 <.drectve+0xb5>
  10515c:	22 2c 32             	and    ch,BYTE PTR [edx+esi*1]
	...
x86_64-w64-mingw32-objdump: error: bin/kernel.exe(.bss) section size (0x1c6b8 bytes) is larger than file size (0xd829 bytes)
x86_64-w64-mingw32-objdump: Reading section .bss failed because: memory exhausted
