00000000  EB22              jmp short 0x24
00000002  90                nop
00000003  90                nop
00000004  02B0AD1B0300      add dh,[eax+0x31bad]
0000000A  0100              add [eax],eax
0000000C  FB                sti
0000000D  4F                dec edi
0000000E  51                push ecx
0000000F  E404              in al,0x4
00000011  0010              add [eax],dl
00000013  0000              add [eax],al
00000015  0010              add [eax],dl
00000017  0000              add [eax],al
00000019  0000              add [eax],al
0000001B  0000              add [eax],al
0000001D  0000              add [eax],al
0000001F  002400            add [eax+eax],ah
00000022  1000              adc [eax],al
00000024  BCB8261200        mov esp,0x1226b8
00000029  E802020000        call 0x230
0000002E  83C408            add esp,byte +0x8
00000031  FA                cli
00000032  F4                hlt
00000033  EBFD              jmp short 0x32
00000035  6690              xchg ax,ax
00000037  6690              xchg ax,ax
00000039  6690              xchg ax,ax
0000003B  6690              xchg ax,ax
0000003D  6690              xchg ax,ax
0000003F  90                nop
00000040  FA                cli
00000041  6A00              push byte +0x0
00000043  6A00              push byte +0x0
00000045  E901010000        jmp 0x14b
0000004A  FA                cli
0000004B  6A00              push byte +0x0
0000004D  6A01              push byte +0x1
0000004F  E9F7000000        jmp 0x14b
00000054  FA                cli
00000055  6A00              push byte +0x0
00000057  6A02              push byte +0x2
00000059  E9ED000000        jmp 0x14b
0000005E  FA                cli
0000005F  6A00              push byte +0x0
00000061  6A03              push byte +0x3
00000063  E9E3000000        jmp 0x14b
00000068  FA                cli
00000069  6A00              push byte +0x0
0000006B  6A04              push byte +0x4
0000006D  E9D9000000        jmp 0x14b
00000072  FA                cli
00000073  6A00              push byte +0x0
00000075  6A05              push byte +0x5
00000077  E9CF000000        jmp 0x14b
0000007C  FA                cli
0000007D  6A00              push byte +0x0
0000007F  6A06              push byte +0x6
00000081  E9C5000000        jmp 0x14b
00000086  FA                cli
00000087  6A00              push byte +0x0
00000089  6A07              push byte +0x7
0000008B  E9BB000000        jmp 0x14b
00000090  FA                cli
00000091  6A08              push byte +0x8
00000093  E9B3000000        jmp 0x14b
00000098  FA                cli
00000099  6A00              push byte +0x0
0000009B  6A09              push byte +0x9
0000009D  E9A9000000        jmp 0x14b
000000A2  FA                cli
000000A3  6A0A              push byte +0xa
000000A5  E9A1000000        jmp 0x14b
000000AA  FA                cli
000000AB  6A0B              push byte +0xb
000000AD  E999000000        jmp 0x14b
000000B2  FA                cli
000000B3  6A0C              push byte +0xc
000000B5  E991000000        jmp 0x14b
000000BA  FA                cli
000000BB  6A0D              push byte +0xd
000000BD  E989000000        jmp 0x14b
000000C2  FA                cli
000000C3  6A0E              push byte +0xe
000000C5  E981000000        jmp 0x14b
000000CA  FA                cli
000000CB  6A00              push byte +0x0
000000CD  6A0F              push byte +0xf
000000CF  EB7A              jmp short 0x14b
000000D1  FA                cli
000000D2  6A00              push byte +0x0
000000D4  6A10              push byte +0x10
000000D6  EB73              jmp short 0x14b
000000D8  FA                cli
000000D9  6A00              push byte +0x0
000000DB  6A11              push byte +0x11
000000DD  EB6C              jmp short 0x14b
000000DF  FA                cli
000000E0  6A00              push byte +0x0
000000E2  6A12              push byte +0x12
000000E4  EB65              jmp short 0x14b
000000E6  FA                cli
000000E7  6A00              push byte +0x0
000000E9  6A13              push byte +0x13
000000EB  EB5E              jmp short 0x14b
000000ED  FA                cli
000000EE  6A00              push byte +0x0
000000F0  6A14              push byte +0x14
000000F2  EB57              jmp short 0x14b
000000F4  FA                cli
000000F5  6A00              push byte +0x0
000000F7  6A15              push byte +0x15
000000F9  EB50              jmp short 0x14b
000000FB  FA                cli
000000FC  6A00              push byte +0x0
000000FE  6A16              push byte +0x16
00000100  EB49              jmp short 0x14b
00000102  FA                cli
00000103  6A00              push byte +0x0
00000105  6A17              push byte +0x17
00000107  EB42              jmp short 0x14b
00000109  FA                cli
0000010A  6A00              push byte +0x0
0000010C  6A18              push byte +0x18
0000010E  EB3B              jmp short 0x14b
00000110  FA                cli
00000111  6A00              push byte +0x0
00000113  6A19              push byte +0x19
00000115  EB34              jmp short 0x14b
00000117  FA                cli
00000118  6A00              push byte +0x0
0000011A  6A1A              push byte +0x1a
0000011C  EB2D              jmp short 0x14b
0000011E  FA                cli
0000011F  6A00              push byte +0x0
00000121  6A1B              push byte +0x1b
00000123  EB26              jmp short 0x14b
00000125  FA                cli
00000126  6A00              push byte +0x0
00000128  6A1C              push byte +0x1c
0000012A  EB1F              jmp short 0x14b
0000012C  FA                cli
0000012D  6A00              push byte +0x0
0000012F  6A1D              push byte +0x1d
00000131  EB18              jmp short 0x14b
00000133  FA                cli
00000134  6A00              push byte +0x0
00000136  6A1E              push byte +0x1e
00000138  EB11              jmp short 0x14b
0000013A  FA                cli
0000013B  6A00              push byte +0x0
0000013D  6A1F              push byte +0x1f
0000013F  EB0A              jmp short 0x14b
00000141  FA                cli
00000142  6A00              push byte +0x0
00000144  6880000000        push dword 0x80
00000149  EB00              jmp short 0x14b
0000014B  60                pusha
0000014C  668CD8            mov ax,ds
0000014F  50                push eax
00000150  66B81000          mov ax,0x10
00000154  8ED8              mov ds,eax
00000156  8EC0              mov es,eax
00000158  8EE0              mov fs,eax
0000015A  8EE8              mov gs,eax
0000015C  E8A11E0000        call 0x2002
00000161  5B                pop ebx
00000162  8EDB              mov ds,ebx
00000164  8EC3              mov es,ebx
00000166  8EE3              mov fs,ebx
00000168  8EEB              mov gs,ebx
0000016A  61                popa
0000016B  83C408            add esp,byte +0x8
0000016E  FB                sti
0000016F  CF                iret
00000170  FA                cli
00000171  6A00              push byte +0x0
00000173  6A20              push byte +0x20
00000175  EB69              jmp short 0x1e0
00000177  FA                cli
00000178  6A00              push byte +0x0
0000017A  6A21              push byte +0x21
0000017C  EB62              jmp short 0x1e0
0000017E  FA                cli
0000017F  6A00              push byte +0x0
00000181  6A22              push byte +0x22
00000183  EB5B              jmp short 0x1e0
00000185  FA                cli
00000186  6A00              push byte +0x0
00000188  6A23              push byte +0x23
0000018A  EB54              jmp short 0x1e0
0000018C  FA                cli
0000018D  6A00              push byte +0x0
0000018F  6A24              push byte +0x24
00000191  EB4D              jmp short 0x1e0
00000193  FA                cli
00000194  6A00              push byte +0x0
00000196  6A25              push byte +0x25
00000198  EB46              jmp short 0x1e0
0000019A  FA                cli
0000019B  6A00              push byte +0x0
0000019D  6A26              push byte +0x26
0000019F  EB3F              jmp short 0x1e0
000001A1  FA                cli
000001A2  6A00              push byte +0x0
000001A4  6A27              push byte +0x27
000001A6  EB38              jmp short 0x1e0
000001A8  FA                cli
000001A9  6A00              push byte +0x0
000001AB  6A28              push byte +0x28
000001AD  EB31              jmp short 0x1e0
000001AF  FA                cli
000001B0  6A00              push byte +0x0
000001B2  6A29              push byte +0x29
000001B4  EB2A              jmp short 0x1e0
000001B6  FA                cli
000001B7  6A00              push byte +0x0
000001B9  6A2A              push byte +0x2a
000001BB  EB23              jmp short 0x1e0
000001BD  FA                cli
000001BE  6A00              push byte +0x0
000001C0  6A2B              push byte +0x2b
000001C2  EB1C              jmp short 0x1e0
000001C4  FA                cli
000001C5  6A00              push byte +0x0
000001C7  6A2C              push byte +0x2c
000001C9  EB15              jmp short 0x1e0
000001CB  FA                cli
000001CC  6A00              push byte +0x0
000001CE  6A2D              push byte +0x2d
000001D0  EB0E              jmp short 0x1e0
000001D2  FA                cli
000001D3  6A00              push byte +0x0
000001D5  6A2E              push byte +0x2e
000001D7  EB07              jmp short 0x1e0
000001D9  FA                cli
000001DA  6A00              push byte +0x0
000001DC  6A2F              push byte +0x2f
000001DE  EB00              jmp short 0x1e0
000001E0  60                pusha
000001E1  668CD8            mov ax,ds
000001E4  50                push eax
000001E5  66B81000          mov ax,0x10
000001E9  8ED8              mov ds,eax
000001EB  8EC0              mov es,eax
000001ED  8EE0              mov fs,eax
000001EF  8EE8              mov gs,eax
000001F1  54                push esp
000001F2  E86C1E0000        call 0x2063
000001F7  5C                pop esp
000001F8  5B                pop ebx
000001F9  8EDB              mov ds,ebx
000001FB  8EC3              mov es,ebx
000001FD  8EE3              mov fs,ebx
000001FF  8EEB              mov gs,ebx
00000201  61                popa
00000202  83C408            add esp,byte +0x8
00000205  FB                sti
00000206  CF                iret
00000207  6690              xchg ax,ax
00000209  6690              xchg ax,ax
0000020B  6690              xchg ax,ax
0000020D  6690              xchg ax,ax
0000020F  90                nop
00000210  55                push ebp
00000211  89E5              mov ebp,esp
00000213  8B442408          mov eax,[esp+0x8]
00000217  0F22D8            mov cr3,eax
0000021A  89EC              mov esp,ebp
0000021C  5D                pop ebp
0000021D  C3                ret
0000021E  55                push ebp
0000021F  89E5              mov ebp,esp
00000221  0F20C0            mov eax,cr0
00000224  0D00000080        or eax,0x80000000
00000229  0F22C0            mov cr0,eax
0000022C  89EC              mov esp,ebp
0000022E  5D                pop ebp
0000022F  C3                ret
00000230  83EC2C            sub esp,byte +0x2c
00000233  E83E020000        call 0x476
00000238  E86B030000        call 0x5a8
0000023D  E885200000        call 0x22c7
00000242  C744240400301000  mov dword [esp+0x4],0x103000
0000024A  C704240B301000    mov dword [esp],0x10300b
00000251  E8A0120000        call 0x14f6
00000256  C7042425301000    mov dword [esp],0x103025
0000025D  E894120000        call 0x14f6
00000262  E87E130000        call 0x15e5
00000267  E83D160000        call 0x18a9
0000026C  C744240800000000  mov dword [esp+0x8],0x0
00000274  C744240410000000  mov dword [esp+0x4],0x10
0000027C  C7042405000000    mov dword [esp],0x5
00000283  E8281E0000        call 0x20b0
00000288  C7042444301000    mov dword [esp],0x103044
0000028F  E862120000        call 0x14f6
00000294  C7042400008044    mov dword [esp],0x44800000
0000029B  E834200000        call 0x22d4
000002A0  C7042464301000    mov dword [esp],0x103064
000002A7  E84A120000        call 0x14f6
000002AC  C744241C00000000  mov dword [esp+0x1c],0x0
000002B4  EB14              jmp short 0x2ca
000002B6  8B44241C          mov eax,[esp+0x1c]
000002BA  C704850060100002  mov dword [eax*4+0x106000],0x2
         -000000
000002C5  8344241C01        add dword [esp+0x1c],byte +0x1
000002CA  817C241CFF030000  cmp dword [esp+0x1c],0x3ff
000002D2  7EE2              jng 0x2b6
000002D4  C744241C00000000  mov dword [esp+0x1c],0x0
000002DC  EB1C              jmp short 0x2fa
000002DE  8B44241C          mov eax,[esp+0x1c]
000002E2  C1E00C            shl eax,byte 0xc
000002E5  83C803            or eax,byte +0x3
000002E8  89C2              mov edx,eax
000002EA  8B44241C          mov eax,[esp+0x1c]
000002EE  89148500701000    mov [eax*4+0x107000],edx
000002F5  8344241C01        add dword [esp+0x1c],byte +0x1
000002FA  817C241CFF030000  cmp dword [esp+0x1c],0x3ff
00000302  7EDA              jng 0x2de
00000304  B800701000        mov eax,0x107000
00000309  83C803            or eax,byte +0x3
0000030C  A300601000        mov [0x106000],eax
00000311  C7042400601000    mov dword [esp],0x106000
00000318  E8F3FEFFFF        call 0x210
0000031D  E8FCFEFFFF        call 0x21e
00000322  C7042489301000    mov dword [esp],0x103089
00000329  E8C8110000        call 0x14f6
0000032E  90                nop
0000032F  83C42C            add esp,byte +0x2c
00000332  C3                ret
00000333  90                nop
00000334  8B542408          mov edx,[esp+0x8]
00000338  89D0              mov eax,edx
0000033A  C1E002            shl eax,byte 0x2
0000033D  01D0              add eax,edx
0000033F  C1E004            shl eax,byte 0x4
00000342  89C2              mov edx,eax
00000344  8B442404          mov eax,[esp+0x4]
00000348  01D0              add eax,edx
0000034A  01C0              add eax,eax
0000034C  C3                ret
0000034D  83EC2C            sub esp,byte +0x2c
00000350  C74424040E000000  mov dword [esp+0x4],0xe
00000358  C70424D4030000    mov dword [esp],0x3d4
0000035F  E8FB020000        call 0x65f
00000364  C70424D5030000    mov dword [esp],0x3d5
0000036B  E8D0020000        call 0x640
00000370  0FB6C0            movzx eax,al
00000373  C1E008            shl eax,byte 0x8
00000376  8944241C          mov [esp+0x1c],eax
0000037A  C74424040F000000  mov dword [esp+0x4],0xf
00000382  C70424D4030000    mov dword [esp],0x3d4
00000389  E8D1020000        call 0x65f
0000038E  C70424D5030000    mov dword [esp],0x3d5
00000395  E8A6020000        call 0x640
0000039A  0FB6C0            movzx eax,al
0000039D  0144241C          add [esp+0x1c],eax
000003A1  8B44241C          mov eax,[esp+0x1c]
000003A5  01C0              add eax,eax
000003A7  83C42C            add esp,byte +0x2c
000003AA  C3                ret
000003AB  83EC1C            sub esp,byte +0x1c
000003AE  8B442420          mov eax,[esp+0x20]
000003B2  89C2              mov edx,eax
000003B4  C1EA1F            shr edx,byte 0x1f
000003B7  01D0              add eax,edx
000003B9  D1F8              sar eax,1
000003BB  89442420          mov [esp+0x20],eax
000003BF  C74424040E000000  mov dword [esp+0x4],0xe
000003C7  C70424D4030000    mov dword [esp],0x3d4
000003CE  E88C020000        call 0x65f
000003D3  8B442420          mov eax,[esp+0x20]
000003D7  C1F808            sar eax,byte 0x8
000003DA  0FB6C0            movzx eax,al
000003DD  89442404          mov [esp+0x4],eax
000003E1  C70424D5030000    mov dword [esp],0x3d5
000003E8  E872020000        call 0x65f
000003ED  C74424040F000000  mov dword [esp+0x4],0xf
000003F5  C70424D4030000    mov dword [esp],0x3d4
000003FC  E85E020000        call 0x65f
00000401  8B442420          mov eax,[esp+0x20]
00000405  0FB6C0            movzx eax,al
00000408  89442404          mov [esp+0x4],eax
0000040C  C70424D5030000    mov dword [esp],0x3d5
00000413  E847020000        call 0x65f
00000418  90                nop
00000419  83C41C            add esp,byte +0x1c
0000041C  C3                ret
0000041D  83EC08            sub esp,byte +0x8
00000420  8B54240C          mov edx,[esp+0xc]
00000424  8B442410          mov eax,[esp+0x10]
00000428  88542404          mov [esp+0x4],dl
0000042C  880424            mov [esp],al
0000042F  0FBE0424          movsx eax,byte [esp]
00000433  C1E004            shl eax,byte 0x4
00000436  0A442404          or al,[esp+0x4]
0000043A  83C408            add esp,byte +0x8
0000043D  C3                ret
0000043E  83EC18            sub esp,byte +0x18
00000441  8B54241C          mov edx,[esp+0x1c]
00000445  8B442420          mov eax,[esp+0x20]
00000449  88542404          mov [esp+0x4],dl
0000044D  880424            mov [esp],al
00000450  660FBE442404      movsx ax,[esp+0x4]
00000456  6689442416        mov [esp+0x16],ax
0000045B  660FBE0424        movsx ax,[esp]
00000460  6689442414        mov [esp+0x14],ax
00000465  0FBF442414        movsx eax,word [esp+0x14]
0000046A  C1E008            shl eax,byte 0x8
0000046D  660B442416        or ax,[esp+0x16]
00000472  83C418            add esp,byte +0x18
00000475  C3                ret
00000476  83EC08            sub esp,byte +0x8
00000479  C705048010000080  mov dword [dword 0x108004],0xb8000
         -0B00
00000483  C744240400000000  mov dword [esp+0x4],0x0
0000048B  C704240F000000    mov dword [esp],0xf
00000492  E886FFFFFF        call 0x41d
00000497  A208801000        mov [0x108008],al
0000049C  C6050180100000    mov byte [dword 0x108001],0x0
000004A3  C6050080100000    mov byte [dword 0x108000],0x0
000004AA  90                nop
000004AB  83C408            add esp,byte +0x8
000004AE  C3                ret
000004AF  83EC3C            sub esp,byte +0x3c
000004B2  8B442440          mov eax,[esp+0x40]
000004B6  8844241C          mov [esp+0x1c],al
000004BA  807C241C0A        cmp byte [esp+0x1c],0xa
000004BF  7518              jnz 0x4d9
000004C1  C6050180100000    mov byte [dword 0x108001],0x0
000004C8  0FB60500801000    movzx eax,byte [dword 0x108000]
000004CF  83C001            add eax,byte +0x1
000004D2  A200801000        mov [0x108000],al
000004D7  EB61              jmp short 0x53a
000004D9  0FB60500801000    movzx eax,byte [dword 0x108000]
000004E0  0FB6D0            movzx edx,al
000004E3  89D0              mov eax,edx
000004E5  C1E002            shl eax,byte 0x2
000004E8  01D0              add eax,edx
000004EA  C1E004            shl eax,byte 0x4
000004ED  89C2              mov edx,eax
000004EF  0FB60501801000    movzx eax,byte [dword 0x108001]
000004F6  0FB6C0            movzx eax,al
000004F9  01D0              add eax,edx
000004FB  8944242C          mov [esp+0x2c],eax
000004FF  0FB60508801000    movzx eax,byte [dword 0x108008]
00000506  0FBED0            movsx edx,al
00000509  0FBE44241C        movsx eax,byte [esp+0x1c]
0000050E  89542404          mov [esp+0x4],edx
00000512  890424            mov [esp],eax
00000515  E824FFFFFF        call 0x43e
0000051A  8B1504801000      mov edx,[dword 0x108004]
00000520  8B4C242C          mov ecx,[esp+0x2c]
00000524  01C9              add ecx,ecx
00000526  01CA              add edx,ecx
00000528  668902            mov [edx],ax
0000052B  0FB60501801000    movzx eax,byte [dword 0x108001]
00000532  83C001            add eax,byte +0x1
00000535  A201801000        mov [0x108001],al
0000053A  0FB60500801000    movzx eax,byte [dword 0x108000]
00000541  0FB6D0            movzx edx,al
00000544  0FB60501801000    movzx eax,byte [dword 0x108001]
0000054B  0FB6C0            movzx eax,al
0000054E  89542404          mov [esp+0x4],edx
00000552  890424            mov [esp],eax
00000555  E8DAFDFFFF        call 0x334
0000055A  890424            mov [esp],eax
0000055D  E849FEFFFF        call 0x3ab
00000562  90                nop
00000563  83C43C            add esp,byte +0x3c
00000566  C3                ret
00000567  83EC2C            sub esp,byte +0x2c
0000056A  C744241C00000000  mov dword [esp+0x1c],0x0
00000572  EB1D              jmp short 0x591
00000574  8B54241C          mov edx,[esp+0x1c]
00000578  8B442430          mov eax,[esp+0x30]
0000057C  01D0              add eax,edx
0000057E  0FB600            movzx eax,byte [eax]
00000581  0FBEC0            movsx eax,al
00000584  890424            mov [esp],eax
00000587  E823FFFFFF        call 0x4af
0000058C  8344241C01        add dword [esp+0x1c],byte +0x1
00000591  8B442430          mov eax,[esp+0x30]
00000595  890424            mov [esp],eax
00000598  E8EF010000        call 0x78c
0000059D  3944241C          cmp [esp+0x1c],eax
000005A1  7CD1              jl 0x574
000005A3  90                nop
000005A4  83C42C            add esp,byte +0x2c
000005A7  C3                ret
000005A8  83EC2C            sub esp,byte +0x2c
000005AB  C744241C00000000  mov dword [esp+0x1c],0x0
000005B3  EB60              jmp short 0x615
000005B5  C744241800000000  mov dword [esp+0x18],0x0
000005BD  EB4A              jmp short 0x609
000005BF  8B54241C          mov edx,[esp+0x1c]
000005C3  89D0              mov eax,edx
000005C5  C1E002            shl eax,byte 0x2
000005C8  01D0              add eax,edx
000005CA  C1E004            shl eax,byte 0x4
000005CD  89C2              mov edx,eax
000005CF  8B442418          mov eax,[esp+0x18]
000005D3  01D0              add eax,edx
000005D5  89442414          mov [esp+0x14],eax
000005D9  0FB60508801000    movzx eax,byte [dword 0x108008]
000005E0  0FBEC0            movsx eax,al
000005E3  89442404          mov [esp+0x4],eax
000005E7  C7042420000000    mov dword [esp],0x20
000005EE  E84BFEFFFF        call 0x43e
000005F3  8B1504801000      mov edx,[dword 0x108004]
000005F9  8B4C2414          mov ecx,[esp+0x14]
000005FD  01C9              add ecx,ecx
000005FF  01CA              add edx,ecx
00000601  668902            mov [edx],ax
00000604  8344241801        add dword [esp+0x18],byte +0x1
00000609  837C24184F        cmp dword [esp+0x18],byte +0x4f
0000060E  7EAF              jng 0x5bf
00000610  8344241C01        add dword [esp+0x1c],byte +0x1
00000615  837C241C18        cmp dword [esp+0x1c],byte +0x18
0000061A  7E99              jng 0x5b5
0000061C  C744240400000000  mov dword [esp+0x4],0x0
00000624  C7042400000000    mov dword [esp],0x0
0000062B  E804FDFFFF        call 0x334
00000630  890424            mov [esp],eax
00000633  E873FDFFFF        call 0x3ab
00000638  90                nop
00000639  83C42C            add esp,byte +0x2c
0000063C  C3                ret
0000063D  90                nop
0000063E  90                nop
0000063F  90                nop
00000640  83EC14            sub esp,byte +0x14
00000643  8B442418          mov eax,[esp+0x18]
00000647  66890424          mov [esp],ax
0000064B  0FB70424          movzx eax,word [esp]
0000064F  89C2              mov edx,eax
00000651  EC                in al,dx
00000652  88442413          mov [esp+0x13],al
00000656  0FB6442413        movzx eax,byte [esp+0x13]
0000065B  83C414            add esp,byte +0x14
0000065E  C3                ret
0000065F  83EC08            sub esp,byte +0x8
00000662  8B44240C          mov eax,[esp+0xc]
00000666  8B542410          mov edx,[esp+0x10]
0000066A  6689442404        mov [esp+0x4],ax
0000066F  89D0              mov eax,edx
00000671  880424            mov [esp],al
00000674  0FB60424          movzx eax,byte [esp]
00000678  0FB7542404        movzx edx,word [esp+0x4]
0000067D  EE                out dx,al
0000067E  90                nop
0000067F  83C408            add esp,byte +0x8
00000682  C3                ret
00000683  83EC14            sub esp,byte +0x14
00000686  8B442418          mov eax,[esp+0x18]
0000068A  66890424          mov [esp],ax
0000068E  0FB70424          movzx eax,word [esp]
00000692  89C2              mov edx,eax
00000694  66ED              in ax,dx
00000696  6689442412        mov [esp+0x12],ax
0000069B  0FB7442412        movzx eax,word [esp+0x12]
000006A0  83C414            add esp,byte +0x14
000006A3  C3                ret
000006A4  83EC08            sub esp,byte +0x8
000006A7  8B54240C          mov edx,[esp+0xc]
000006AB  8B442410          mov eax,[esp+0x10]
000006AF  6689542404        mov [esp+0x4],dx
000006B4  66890424          mov [esp],ax
000006B8  0FB70424          movzx eax,word [esp]
000006BC  0FB7542404        movzx edx,word [esp+0x4]
000006C1  66EF              out dx,ax
000006C3  90                nop
000006C4  83C408            add esp,byte +0x8
000006C7  C3                ret
000006C8  EB22              jmp short 0x6ec
000006CA  8B442404          mov eax,[esp+0x4]
000006CE  0FB610            movzx edx,byte [eax]
000006D1  8B442408          mov eax,[esp+0x8]
000006D5  0FB600            movzx eax,byte [eax]
000006D8  38C2              cmp dl,al
000006DA  7406              jz 0x6e2
000006DC  B800000000        mov eax,0x0
000006E1  C3                ret
000006E2  8344240401        add dword [esp+0x4],byte +0x1
000006E7  8344240801        add dword [esp+0x8],byte +0x1
000006EC  8B44240C          mov eax,[esp+0xc]
000006F0  8D50FF            lea edx,[eax-0x1]
000006F3  8954240C          mov [esp+0xc],edx
000006F7  85C0              test eax,eax
000006F9  75CF              jnz 0x6ca
000006FB  B801000000        mov eax,0x1
00000700  C3                ret
00000701  83EC10            sub esp,byte +0x10
00000704  8B442414          mov eax,[esp+0x14]
00000708  89442404          mov [esp+0x4],eax
0000070C  8B442414          mov eax,[esp+0x14]
00000710  8944240C          mov [esp+0xc],eax
00000714  8B442418          mov eax,[esp+0x18]
00000718  89442408          mov [esp+0x8],eax
0000071C  EB1B              jmp short 0x739
0000071E  8B542408          mov edx,[esp+0x8]
00000722  8D4201            lea eax,[edx+0x1]
00000725  89442408          mov [esp+0x8],eax
00000729  8B44240C          mov eax,[esp+0xc]
0000072D  8D4801            lea ecx,[eax+0x1]
00000730  894C240C          mov [esp+0xc],ecx
00000734  0FB612            movzx edx,byte [edx]
00000737  8810              mov [eax],dl
00000739  8B44241C          mov eax,[esp+0x1c]
0000073D  8D50FF            lea edx,[eax-0x1]
00000740  8954241C          mov [esp+0x1c],edx
00000744  85C0              test eax,eax
00000746  75D6              jnz 0x71e
00000748  8B442404          mov eax,[esp+0x4]
0000074C  83C410            add esp,byte +0x10
0000074F  C3                ret
00000750  83EC14            sub esp,byte +0x14
00000753  8B44241C          mov eax,[esp+0x1c]
00000757  880424            mov [esp],al
0000075A  8B442418          mov eax,[esp+0x18]
0000075E  89442410          mov [esp+0x10],eax
00000762  EB16              jmp short 0x77a
00000764  8B442410          mov eax,[esp+0x10]
00000768  8D5001            lea edx,[eax+0x1]
0000076B  89542410          mov [esp+0x10],edx
0000076F  0FB61424          movzx edx,byte [esp]
00000773  8810              mov [eax],dl
00000775  836C242001        sub dword [esp+0x20],byte +0x1
0000077A  837C242000        cmp dword [esp+0x20],byte +0x0
0000077F  75E3              jnz 0x764
00000781  8B442418          mov eax,[esp+0x18]
00000785  83C414            add esp,byte +0x14
00000788  C3                ret
00000789  90                nop
0000078A  90                nop
0000078B  90                nop
0000078C  83EC10            sub esp,byte +0x10
0000078F  C744240C00000000  mov dword [esp+0xc],0x0
00000797  EB05              jmp short 0x79e
00000799  8344240C01        add dword [esp+0xc],byte +0x1
0000079E  8B442414          mov eax,[esp+0x14]
000007A2  8D5001            lea edx,[eax+0x1]
000007A5  89542414          mov [esp+0x14],edx
000007A9  0FB600            movzx eax,byte [eax]
000007AC  84C0              test al,al
000007AE  75E9              jnz 0x799
000007B0  8B44240C          mov eax,[esp+0xc]
000007B4  83C410            add esp,byte +0x10
000007B7  C3                ret
000007B8  83EC10            sub esp,byte +0x10
000007BB  8B442414          mov eax,[esp+0x14]
000007BF  8944240C          mov [esp+0xc],eax
000007C3  EB05              jmp short 0x7ca
000007C5  8344240C01        add dword [esp+0xc],byte +0x1
000007CA  8B442418          mov eax,[esp+0x18]
000007CE  8D50FF            lea edx,[eax-0x1]
000007D1  89542418          mov [esp+0x18],edx
000007D5  85C0              test eax,eax
000007D7  740B              jz 0x7e4
000007D9  8B44240C          mov eax,[esp+0xc]
000007DD  0FB600            movzx eax,byte [eax]
000007E0  84C0              test al,al
000007E2  75E1              jnz 0x7c5
000007E4  8B44240C          mov eax,[esp+0xc]
000007E8  2B442414          sub eax,[esp+0x14]
000007EC  83C410            add esp,byte +0x10
000007EF  C3                ret
000007F0  83EC10            sub esp,byte +0x10
000007F3  837C241400        cmp dword [esp+0x14],byte +0x0
000007F8  7407              jz 0x801
000007FA  837C241800        cmp dword [esp+0x18],byte +0x0
000007FF  750E              jnz 0x80f
00000801  C744241400000000  mov dword [esp+0x14],0x0
00000809  8B442414          mov eax,[esp+0x14]
0000080D  EB74              jmp short 0x883
0000080F  817C241CFF000000  cmp dword [esp+0x1c],0xff
00000817  7E08              jng 0x821
00000819  C744241CFF000000  mov dword [esp+0x1c],0xff
00000821  C744240C00000000  mov dword [esp+0xc],0x0
00000829  EB2F              jmp short 0x85a
0000082B  8B542418          mov edx,[esp+0x18]
0000082F  8B44240C          mov eax,[esp+0xc]
00000833  01D0              add eax,edx
00000835  8B4C2414          mov ecx,[esp+0x14]
00000839  8B54240C          mov edx,[esp+0xc]
0000083D  01CA              add edx,ecx
0000083F  0FB600            movzx eax,byte [eax]
00000842  8802              mov [edx],al
00000844  8B542418          mov edx,[esp+0x18]
00000848  8B44240C          mov eax,[esp+0xc]
0000084C  01D0              add eax,edx
0000084E  0FB600            movzx eax,byte [eax]
00000851  84C0              test al,al
00000853  7411              jz 0x866
00000855  8344240C01        add dword [esp+0xc],byte +0x1
0000085A  8B44240C          mov eax,[esp+0xc]
0000085E  3944241C          cmp [esp+0x1c],eax
00000862  7FC7              jg 0x82b
00000864  EB01              jmp short 0x867
00000866  90                nop
00000867  817C240CFE000000  cmp dword [esp+0xc],0xfe
0000086F  760E              jna 0x87f
00000871  C744241400000000  mov dword [esp+0x14],0x0
00000879  8B442414          mov eax,[esp+0x14]
0000087D  EB04              jmp short 0x883
0000087F  8B442414          mov eax,[esp+0x14]
00000883  83C410            add esp,byte +0x10
00000886  C3                ret
00000887  83EC10            sub esp,byte +0x10
0000088A  C744240C00000000  mov dword [esp+0xc],0x0
00000892  EB21              jmp short 0x8b5
00000894  8B44240C          mov eax,[esp+0xc]
00000898  8D5001            lea edx,[eax+0x1]
0000089B  8954240C          mov [esp+0xc],edx
0000089F  89C2              mov edx,eax
000008A1  8B442418          mov eax,[esp+0x18]
000008A5  01D0              add eax,edx
000008A7  0FB600            movzx eax,byte [eax]
000008AA  84C0              test al,al
000008AC  7507              jnz 0x8b5
000008AE  B800000000        mov eax,0x0
000008B3  EB23              jmp short 0x8d8
000008B5  8B54240C          mov edx,[esp+0xc]
000008B9  8B442414          mov eax,[esp+0x14]
000008BD  01D0              add eax,edx
000008BF  0FB610            movzx edx,byte [eax]
000008C2  8B4C240C          mov ecx,[esp+0xc]
000008C6  8B442418          mov eax,[esp+0x18]
000008CA  01C8              add eax,ecx
000008CC  0FB600            movzx eax,byte [eax]
000008CF  38C2              cmp dl,al
000008D1  74C1              jz 0x894
000008D3  B801000000        mov eax,0x1
000008D8  83C410            add esp,byte +0x10
000008DB  C3                ret
000008DC  83EC2C            sub esp,byte +0x2c
000008DF  8B442434          mov eax,[esp+0x34]
000008E3  8D5001            lea edx,[eax+0x1]
000008E6  89542434          mov [esp+0x34],edx
000008EA  0FB600            movzx eax,byte [eax]
000008ED  8844241F          mov [esp+0x1f],al
000008F1  807C241F00        cmp byte [esp+0x1f],0x0
000008F6  7506              jnz 0x8fe
000008F8  8B442430          mov eax,[esp+0x30]
000008FC  EB62              jmp short 0x960
000008FE  8B442434          mov eax,[esp+0x34]
00000902  890424            mov [esp],eax
00000905  E882FEFFFF        call 0x78c
0000090A  89442418          mov [esp+0x18],eax
0000090E  8B442430          mov eax,[esp+0x30]
00000912  8D5001            lea edx,[eax+0x1]
00000915  89542430          mov [esp+0x30],edx
00000919  0FB600            movzx eax,byte [eax]
0000091C  88442417          mov [esp+0x17],al
00000920  807C241700        cmp byte [esp+0x17],0x0
00000925  7507              jnz 0x92e
00000927  B800000000        mov eax,0x0
0000092C  EB32              jmp short 0x960
0000092E  0FB6442417        movzx eax,byte [esp+0x17]
00000933  3A44241F          cmp al,[esp+0x1f]
00000937  75D5              jnz 0x90e
00000939  8B442418          mov eax,[esp+0x18]
0000093D  89442408          mov [esp+0x8],eax
00000941  8B442434          mov eax,[esp+0x34]
00000945  89442404          mov [esp+0x4],eax
00000949  8B442430          mov eax,[esp+0x30]
0000094D  890424            mov [esp],eax
00000950  E8A6000000        call 0x9fb
00000955  85C0              test eax,eax
00000957  75B5              jnz 0x90e
00000959  8B442430          mov eax,[esp+0x30]
0000095D  83E801            sub eax,byte +0x1
00000960  83C42C            add esp,byte +0x2c
00000963  C3                ret
00000964  83EC10            sub esp,byte +0x10
00000967  C744240C00000000  mov dword [esp+0xc],0x0
0000096F  EB05              jmp short 0x976
00000971  8344240C01        add dword [esp+0xc],byte +0x1
00000976  8B542418          mov edx,[esp+0x18]
0000097A  8D4201            lea eax,[edx+0x1]
0000097D  89442418          mov [esp+0x18],eax
00000981  8B442414          mov eax,[esp+0x14]
00000985  8D4801            lea ecx,[eax+0x1]
00000988  894C2414          mov [esp+0x14],ecx
0000098C  0FB612            movzx edx,byte [edx]
0000098F  8810              mov [eax],dl
00000991  0FB600            movzx eax,byte [eax]
00000994  84C0              test al,al
00000996  75D9              jnz 0x971
00000998  8B44240C          mov eax,[esp+0xc]
0000099C  83C410            add esp,byte +0x10
0000099F  C3                ret
000009A0  83EC2C            sub esp,byte +0x2c
000009A3  8B442430          mov eax,[esp+0x30]
000009A7  890424            mov [esp],eax
000009AA  E8DDFDFFFF        call 0x78c
000009AF  89C2              mov edx,eax
000009B1  8B442430          mov eax,[esp+0x30]
000009B5  01D0              add eax,edx
000009B7  8944241C          mov [esp+0x1c],eax
000009BB  8B442434          mov eax,[esp+0x34]
000009BF  890424            mov [esp],eax
000009C2  E8C5FDFFFF        call 0x78c
000009C7  89442408          mov [esp+0x8],eax
000009CB  8B442434          mov eax,[esp+0x34]
000009CF  89442404          mov [esp+0x4],eax
000009D3  8B44241C          mov eax,[esp+0x1c]
000009D7  890424            mov [esp],eax
000009DA  E822FDFFFF        call 0x701
000009DF  8B442434          mov eax,[esp+0x34]
000009E3  890424            mov [esp],eax
000009E6  E8A1FDFFFF        call 0x78c
000009EB  0144241C          add [esp+0x1c],eax
000009EF  8B44241C          mov eax,[esp+0x1c]
000009F3  C60000            mov byte [eax],0x0
000009F6  90                nop
000009F7  83C42C            add esp,byte +0x2c
000009FA  C3                ret
000009FB  83EC10            sub esp,byte +0x10
000009FE  C744240C00000000  mov dword [esp+0xc],0x0
00000A06  EB41              jmp short 0xa49
00000A08  8B442414          mov eax,[esp+0x14]
00000A0C  0FB600            movzx eax,byte [eax]
00000A0F  0FBEC8            movsx ecx,al
00000A12  8B442418          mov eax,[esp+0x18]
00000A16  8D5001            lea edx,[eax+0x1]
00000A19  89542418          mov [esp+0x18],edx
00000A1D  0FB600            movzx eax,byte [eax]
00000A20  0FBEC0            movsx eax,al
00000A23  29C1              sub ecx,eax
00000A25  89C8              mov eax,ecx
00000A27  8944240C          mov [esp+0xc],eax
00000A2B  837C240C00        cmp dword [esp+0xc],byte +0x0
00000A30  751E              jnz 0xa50
00000A32  8B442414          mov eax,[esp+0x14]
00000A36  8D5001            lea edx,[eax+0x1]
00000A39  89542414          mov [esp+0x14],edx
00000A3D  0FB600            movzx eax,byte [eax]
00000A40  84C0              test al,al
00000A42  740C              jz 0xa50
00000A44  836C241C01        sub dword [esp+0x1c],byte +0x1
00000A49  837C241C00        cmp dword [esp+0x1c],byte +0x0
00000A4E  75B8              jnz 0xa08
00000A50  8B44240C          mov eax,[esp+0xc]
00000A54  83C410            add esp,byte +0x10
00000A57  C3                ret
00000A58  83EC10            sub esp,byte +0x10
00000A5B  8B442418          mov eax,[esp+0x18]
00000A5F  89442404          mov [esp+0x4],eax
00000A63  C744240C00000000  mov dword [esp+0xc],0x0
00000A6B  8B4C241C          mov ecx,[esp+0x1c]
00000A6F  8B442418          mov eax,[esp+0x18]
00000A73  BA00000000        mov edx,0x0
00000A78  F7F1              div ecx
00000A7A  89542404          mov [esp+0x4],edx
00000A7E  837C240409        cmp dword [esp+0x4],byte +0x9
00000A83  770B              ja 0xa90
00000A85  8B442404          mov eax,[esp+0x4]
00000A89  83C030            add eax,byte +0x30
00000A8C  89C1              mov ecx,eax
00000A8E  EB09              jmp short 0xa99
00000A90  8B442404          mov eax,[esp+0x4]
00000A94  83C057            add eax,byte +0x57
00000A97  89C1              mov ecx,eax
00000A99  8B44240C          mov eax,[esp+0xc]
00000A9D  8D5001            lea edx,[eax+0x1]
00000AA0  8954240C          mov [esp+0xc],edx
00000AA4  89C2              mov edx,eax
00000AA6  8B442414          mov eax,[esp+0x14]
00000AAA  01D0              add eax,edx
00000AAC  8808              mov [eax],cl
00000AAE  8B4C241C          mov ecx,[esp+0x1c]
00000AB2  8B442418          mov eax,[esp+0x18]
00000AB6  BA00000000        mov edx,0x0
00000ABB  F7F1              div ecx
00000ABD  89442418          mov [esp+0x18],eax
00000AC1  837C241800        cmp dword [esp+0x18],byte +0x0
00000AC6  75A3              jnz 0xa6b
00000AC8  8B44240C          mov eax,[esp+0xc]
00000ACC  8D50FF            lea edx,[eax-0x1]
00000ACF  8954240C          mov [esp+0xc],edx
00000AD3  89C2              mov edx,eax
00000AD5  8B442414          mov eax,[esp+0x14]
00000AD9  01D0              add eax,edx
00000ADB  C60000            mov byte [eax],0x0
00000ADE  C744240800000000  mov dword [esp+0x8],0x0
00000AE6  EB47              jmp short 0xb2f
00000AE8  8B542408          mov edx,[esp+0x8]
00000AEC  8B442414          mov eax,[esp+0x14]
00000AF0  01D0              add eax,edx
00000AF2  0FB600            movzx eax,byte [eax]
00000AF5  0FBEC0            movsx eax,al
00000AF8  89442404          mov [esp+0x4],eax
00000AFC  8B54240C          mov edx,[esp+0xc]
00000B00  8B442414          mov eax,[esp+0x14]
00000B04  01D0              add eax,edx
00000B06  8B4C2408          mov ecx,[esp+0x8]
00000B0A  8B542414          mov edx,[esp+0x14]
00000B0E  01CA              add edx,ecx
00000B10  0FB600            movzx eax,byte [eax]
00000B13  8802              mov [edx],al
00000B15  8B54240C          mov edx,[esp+0xc]
00000B19  8B442414          mov eax,[esp+0x14]
00000B1D  01D0              add eax,edx
00000B1F  8B542404          mov edx,[esp+0x4]
00000B23  8810              mov [eax],dl
00000B25  8344240801        add dword [esp+0x8],byte +0x1
00000B2A  836C240C01        sub dword [esp+0xc],byte +0x1
00000B2F  8B442408          mov eax,[esp+0x8]
00000B33  3B44240C          cmp eax,[esp+0xc]
00000B37  7CAF              jl 0xae8
00000B39  90                nop
00000B3A  90                nop
00000B3B  83C410            add esp,byte +0x10
00000B3E  C3                ret
00000B3F  83EC2C            sub esp,byte +0x2c
00000B42  C744241C00000000  mov dword [esp+0x1c],0x0
00000B4A  EB05              jmp short 0xb51
00000B4C  8344243001        add dword [esp+0x30],byte +0x1
00000B51  8B442430          mov eax,[esp+0x30]
00000B55  0FB600            movzx eax,byte [eax]
00000B58  0FBEC0            movsx eax,al
00000B5B  890424            mov [esp],eax
00000B5E  E886000000        call 0xbe9
00000B63  85C0              test eax,eax
00000B65  75E5              jnz 0xb4c
00000B67  8B442430          mov eax,[esp+0x30]
00000B6B  0FB600            movzx eax,byte [eax]
00000B6E  3C2D              cmp al,0x2d
00000B70  750F              jnz 0xb81
00000B72  C744241801000000  mov dword [esp+0x18],0x1
00000B7A  8344243001        add dword [esp+0x30],byte +0x1
00000B7F  EB18              jmp short 0xb99
00000B81  C744241800000000  mov dword [esp+0x18],0x0
00000B89  8B442430          mov eax,[esp+0x30]
00000B8D  0FB600            movzx eax,byte [eax]
00000B90  3C2B              cmp al,0x2b
00000B92  7505              jnz 0xb99
00000B94  8344243001        add dword [esp+0x30],byte +0x1
00000B99  8B442430          mov eax,[esp+0x30]
00000B9D  0FB600            movzx eax,byte [eax]
00000BA0  0FBEC0            movsx eax,al
00000BA3  83E830            sub eax,byte +0x30
00000BA6  89442414          mov [esp+0x14],eax
00000BAA  837C241409        cmp dword [esp+0x14],byte +0x9
00000BAF  7720              ja 0xbd1
00000BB1  8B54241C          mov edx,[esp+0x1c]
00000BB5  89D0              mov eax,edx
00000BB7  C1E002            shl eax,byte 0x2
00000BBA  01D0              add eax,edx
00000BBC  01C0              add eax,eax
00000BBE  89C2              mov edx,eax
00000BC0  8B442414          mov eax,[esp+0x14]
00000BC4  01D0              add eax,edx
00000BC6  8944241C          mov [esp+0x1c],eax
00000BCA  8344243001        add dword [esp+0x30],byte +0x1
00000BCF  EBC8              jmp short 0xb99
00000BD1  90                nop
00000BD2  837C241800        cmp dword [esp+0x18],byte +0x0
00000BD7  7408              jz 0xbe1
00000BD9  8B44241C          mov eax,[esp+0x1c]
00000BDD  F7D8              neg eax
00000BDF  EB04              jmp short 0xbe5
00000BE1  8B44241C          mov eax,[esp+0x1c]
00000BE5  83C42C            add esp,byte +0x2c
00000BE8  C3                ret
00000BE9  83EC04            sub esp,byte +0x4
00000BEC  8B442408          mov eax,[esp+0x8]
00000BF0  880424            mov [esp],al
00000BF3  803C2420          cmp byte [esp],0x20
00000BF7  741E              jz 0xc17
00000BF9  803C2409          cmp byte [esp],0x9
00000BFD  7418              jz 0xc17
00000BFF  803C240A          cmp byte [esp],0xa
00000C03  7412              jz 0xc17
00000C05  803C240B          cmp byte [esp],0xb
00000C09  740C              jz 0xc17
00000C0B  803C240C          cmp byte [esp],0xc
00000C0F  7406              jz 0xc17
00000C11  803C240D          cmp byte [esp],0xd
00000C15  7507              jnz 0xc1e
00000C17  B801000000        mov eax,0x1
00000C1C  EB05              jmp short 0xc23
00000C1E  B800000000        mov eax,0x0
00000C23  83C404            add esp,byte +0x4
00000C26  C3                ret
00000C27  83EC04            sub esp,byte +0x4
00000C2A  8B442408          mov eax,[esp+0x8]
00000C2E  880424            mov [esp],al
00000C31  803C241F          cmp byte [esp],0x1f
00000C35  7E0D              jng 0xc44
00000C37  803C247F          cmp byte [esp],0x7f
00000C3B  7407              jz 0xc44
00000C3D  B801000000        mov eax,0x1
00000C42  EB05              jmp short 0xc49
00000C44  B800000000        mov eax,0x0
00000C49  83C404            add esp,byte +0x4
00000C4C  C3                ret
00000C4D  83EC20            sub esp,byte +0x20
00000C50  8B442424          mov eax,[esp+0x24]
00000C54  8B00              mov eax,[eax]
00000C56  8944241C          mov [esp+0x1c],eax
00000C5A  837C241C00        cmp dword [esp+0x1c],byte +0x0
00000C5F  7507              jnz 0xc68
00000C61  B800000000        mov eax,0x0
00000C66  EB78              jmp short 0xce0
00000C68  8B44241C          mov eax,[esp+0x1c]
00000C6C  89442414          mov [esp+0x14],eax
00000C70  8B44241C          mov eax,[esp+0x1c]
00000C74  8D5001            lea edx,[eax+0x1]
00000C77  8954241C          mov [esp+0x1c],edx
00000C7B  0FB600            movzx eax,byte [eax]
00000C7E  0FBEC0            movsx eax,al
00000C81  89442410          mov [esp+0x10],eax
00000C85  8B442428          mov eax,[esp+0x28]
00000C89  89442418          mov [esp+0x18],eax
00000C8D  8B442418          mov eax,[esp+0x18]
00000C91  8D5001            lea edx,[eax+0x1]
00000C94  89542418          mov [esp+0x18],edx
00000C98  0FB600            movzx eax,byte [eax]
00000C9B  0FBEC0            movsx eax,al
00000C9E  8944240C          mov [esp+0xc],eax
00000CA2  8B44240C          mov eax,[esp+0xc]
00000CA6  3B442410          cmp eax,[esp+0x10]
00000CAA  752B              jnz 0xcd7
00000CAC  837C241000        cmp dword [esp+0x10],byte +0x0
00000CB1  750A              jnz 0xcbd
00000CB3  C744241C00000000  mov dword [esp+0x1c],0x0
00000CBB  EB0A              jmp short 0xcc7
00000CBD  8B44241C          mov eax,[esp+0x1c]
00000CC1  83E801            sub eax,byte +0x1
00000CC4  C60000            mov byte [eax],0x0
00000CC7  8B442424          mov eax,[esp+0x24]
00000CCB  8B54241C          mov edx,[esp+0x1c]
00000CCF  8910              mov [eax],edx
00000CD1  8B442414          mov eax,[esp+0x14]
00000CD5  EB09              jmp short 0xce0
00000CD7  837C240C00        cmp dword [esp+0xc],byte +0x0
00000CDC  75AF              jnz 0xc8d
00000CDE  EB90              jmp short 0xc70
00000CE0  83C420            add esp,byte +0x20
00000CE3  C3                ret
00000CE4  837C24042F        cmp dword [esp+0x4],byte +0x2f
00000CE9  7E0D              jng 0xcf8
00000CEB  837C240439        cmp dword [esp+0x4],byte +0x39
00000CF0  7F06              jg 0xcf8
00000CF2  B801000000        mov eax,0x1
00000CF7  C3                ret
00000CF8  B800000000        mov eax,0x0
00000CFD  C3                ret
00000CFE  53                push ebx
00000CFF  83EC14            sub esp,byte +0x14
00000D02  C744241000000000  mov dword [esp+0x10],0x0
00000D0A  EB2D              jmp short 0xd39
00000D0C  8B542410          mov edx,[esp+0x10]
00000D10  89D0              mov eax,edx
00000D12  C1E002            shl eax,byte 0x2
00000D15  01D0              add eax,edx
00000D17  01C0              add eax,eax
00000D19  89C3              mov ebx,eax
00000D1B  8B44241C          mov eax,[esp+0x1c]
00000D1F  8B00              mov eax,[eax]
00000D21  8D4801            lea ecx,[eax+0x1]
00000D24  8B54241C          mov edx,[esp+0x1c]
00000D28  890A              mov [edx],ecx
00000D2A  0FB600            movzx eax,byte [eax]
00000D2D  0FBEC0            movsx eax,al
00000D30  01D8              add eax,ebx
00000D32  83E830            sub eax,byte +0x30
00000D35  89442410          mov [esp+0x10],eax
00000D39  8B44241C          mov eax,[esp+0x1c]
00000D3D  8B00              mov eax,[eax]
00000D3F  0FB600            movzx eax,byte [eax]
00000D42  0FBEC0            movsx eax,al
00000D45  890424            mov [esp],eax
00000D48  E897FFFFFF        call 0xce4
00000D4D  85C0              test eax,eax
00000D4F  75BB              jnz 0xd0c
00000D51  8B442410          mov eax,[esp+0x10]
00000D55  83C414            add esp,byte +0x14
00000D58  5B                pop ebx
00000D59  C3                ret
00000D5A  83EC60            sub esp,byte +0x60
00000D5D  8B442478          mov eax,[esp+0x78]
00000D61  83E020            and eax,byte +0x20
00000D64  88442457          mov [esp+0x57],al
00000D68  8B442478          mov eax,[esp+0x78]
00000D6C  83E010            and eax,byte +0x10
00000D6F  85C0              test eax,eax
00000D71  7405              jz 0xd78
00000D73  83642478FE        and dword [esp+0x78],byte -0x2
00000D78  837C246C01        cmp dword [esp+0x6c],byte +0x1
00000D7D  7E07              jng 0xd86
00000D7F  837C246C10        cmp dword [esp+0x6c],byte +0x10
00000D84  7E0A              jng 0xd90
00000D86  B800000000        mov eax,0x0
00000D8B  E947020000        jmp 0xfd7
00000D90  8B442478          mov eax,[esp+0x78]
00000D94  83E001            and eax,byte +0x1
00000D97  85C0              test eax,eax
00000D99  7407              jz 0xda2
00000D9B  B830000000        mov eax,0x30
00000DA0  EB05              jmp short 0xda7
00000DA2  B820000000        mov eax,0x20
00000DA7  88442456          mov [esp+0x56],al
00000DAB  C644245F00        mov byte [esp+0x5f],0x0
00000DB0  8B442478          mov eax,[esp+0x78]
00000DB4  83E002            and eax,byte +0x2
00000DB7  85C0              test eax,eax
00000DB9  7443              jz 0xdfe
00000DBB  837C246800        cmp dword [esp+0x68],byte +0x0
00000DC0  7910              jns 0xdd2
00000DC2  C644245F2D        mov byte [esp+0x5f],0x2d
00000DC7  F75C2468          neg dword [esp+0x68]
00000DCB  836C247001        sub dword [esp+0x70],byte +0x1
00000DD0  EB2C              jmp short 0xdfe
00000DD2  8B442478          mov eax,[esp+0x78]
00000DD6  83E004            and eax,byte +0x4
00000DD9  85C0              test eax,eax
00000DDB  740C              jz 0xde9
00000DDD  C644245F2B        mov byte [esp+0x5f],0x2b
00000DE2  836C247001        sub dword [esp+0x70],byte +0x1
00000DE7  EB15              jmp short 0xdfe
00000DE9  8B442478          mov eax,[esp+0x78]
00000DED  83E008            and eax,byte +0x8
00000DF0  85C0              test eax,eax
00000DF2  740A              jz 0xdfe
00000DF4  C644245F20        mov byte [esp+0x5f],0x20
00000DF9  836C247001        sub dword [esp+0x70],byte +0x1
00000DFE  8B442478          mov eax,[esp+0x78]
00000E02  83E040            and eax,byte +0x40
00000E05  85C0              test eax,eax
00000E07  741A              jz 0xe23
00000E09  837C246C10        cmp dword [esp+0x6c],byte +0x10
00000E0E  7507              jnz 0xe17
00000E10  836C247002        sub dword [esp+0x70],byte +0x2
00000E15  EB0C              jmp short 0xe23
00000E17  837C246C08        cmp dword [esp+0x6c],byte +0x8
00000E1C  7505              jnz 0xe23
00000E1E  836C247001        sub dword [esp+0x70],byte +0x1
00000E23  C744245800000000  mov dword [esp+0x58],0x0
00000E2B  837C246800        cmp dword [esp+0x68],byte +0x0
00000E30  7558              jnz 0xe8a
00000E32  8B442458          mov eax,[esp+0x58]
00000E36  8D5001            lea edx,[eax+0x1]
00000E39  89542458          mov [esp+0x58],edx
00000E3D  C644040E30        mov byte [esp+eax+0xe],0x30
00000E42  EB4D              jmp short 0xe91
00000E44  8B442468          mov eax,[esp+0x68]
00000E48  8B4C246C          mov ecx,[esp+0x6c]
00000E4C  BA00000000        mov edx,0x0
00000E51  F7F1              div ecx
00000E53  89D0              mov eax,edx
00000E55  89442450          mov [esp+0x50],eax
00000E59  8B442468          mov eax,[esp+0x68]
00000E5D  8B4C246C          mov ecx,[esp+0x6c]
00000E61  BA00000000        mov edx,0x0
00000E66  F7F1              div ecx
00000E68  89442468          mov [esp+0x68],eax
00000E6C  8B442450          mov eax,[esp+0x50]
00000E70  0FB6903C321000    movzx edx,byte [eax+0x10323c]
00000E77  8B442458          mov eax,[esp+0x58]
00000E7B  8D4801            lea ecx,[eax+0x1]
00000E7E  894C2458          mov [esp+0x58],ecx
00000E82  0A542457          or dl,[esp+0x57]
00000E86  8854040E          mov [esp+eax+0xe],dl
00000E8A  837C246800        cmp dword [esp+0x68],byte +0x0
00000E8F  75B3              jnz 0xe44
00000E91  8B442458          mov eax,[esp+0x58]
00000E95  3B442474          cmp eax,[esp+0x74]
00000E99  7E08              jng 0xea3
00000E9B  8B442458          mov eax,[esp+0x58]
00000E9F  89442474          mov [esp+0x74],eax
00000EA3  8B442474          mov eax,[esp+0x74]
00000EA7  29442470          sub [esp+0x70],eax
00000EAB  8B442478          mov eax,[esp+0x78]
00000EAF  83E011            and eax,byte +0x11
00000EB2  85C0              test eax,eax
00000EB4  751F              jnz 0xed5
00000EB6  EB0E              jmp short 0xec6
00000EB8  8B442464          mov eax,[esp+0x64]
00000EBC  8D5001            lea edx,[eax+0x1]
00000EBF  89542464          mov [esp+0x64],edx
00000EC3  C60020            mov byte [eax],0x20
00000EC6  8B442470          mov eax,[esp+0x70]
00000ECA  8D50FF            lea edx,[eax-0x1]
00000ECD  89542470          mov [esp+0x70],edx
00000ED1  85C0              test eax,eax
00000ED3  7FE3              jg 0xeb8
00000ED5  807C245F00        cmp byte [esp+0x5f],0x0
00000EDA  7412              jz 0xeee
00000EDC  8B442464          mov eax,[esp+0x64]
00000EE0  8D5001            lea edx,[eax+0x1]
00000EE3  89542464          mov [esp+0x64],edx
00000EE7  0FB654245F        movzx edx,byte [esp+0x5f]
00000EEC  8810              mov [eax],dl
00000EEE  8B442478          mov eax,[esp+0x78]
00000EF2  83E040            and eax,byte +0x40
00000EF5  85C0              test eax,eax
00000EF7  7441              jz 0xf3a
00000EF9  837C246C08        cmp dword [esp+0x6c],byte +0x8
00000EFE  7510              jnz 0xf10
00000F00  8B442464          mov eax,[esp+0x64]
00000F04  8D5001            lea edx,[eax+0x1]
00000F07  89542464          mov [esp+0x64],edx
00000F0B  C60030            mov byte [eax],0x30
00000F0E  EB2A              jmp short 0xf3a
00000F10  837C246C10        cmp dword [esp+0x6c],byte +0x10
00000F15  7523              jnz 0xf3a
00000F17  8B442464          mov eax,[esp+0x64]
00000F1B  8D5001            lea edx,[eax+0x1]
00000F1E  89542464          mov [esp+0x64],edx
00000F22  C60030            mov byte [eax],0x30
00000F25  8B442464          mov eax,[esp+0x64]
00000F29  8D5001            lea edx,[eax+0x1]
00000F2C  89542464          mov [esp+0x64],edx
00000F30  0FB6542457        movzx edx,byte [esp+0x57]
00000F35  83CA58            or edx,byte +0x58
00000F38  8810              mov [eax],dl
00000F3A  8B442478          mov eax,[esp+0x78]
00000F3E  83E010            and eax,byte +0x10
00000F41  85C0              test eax,eax
00000F43  7533              jnz 0xf78
00000F45  EB12              jmp short 0xf59
00000F47  8B442464          mov eax,[esp+0x64]
00000F4B  8D5001            lea edx,[eax+0x1]
00000F4E  89542464          mov [esp+0x64],edx
00000F52  0FB6542456        movzx edx,byte [esp+0x56]
00000F57  8810              mov [eax],dl
00000F59  8B442470          mov eax,[esp+0x70]
00000F5D  8D50FF            lea edx,[eax-0x1]
00000F60  89542470          mov [esp+0x70],edx
00000F64  85C0              test eax,eax
00000F66  7FDF              jg 0xf47
00000F68  EB0E              jmp short 0xf78
00000F6A  8B442464          mov eax,[esp+0x64]
00000F6E  8D5001            lea edx,[eax+0x1]
00000F71  89542464          mov [esp+0x64],edx
00000F75  C60030            mov byte [eax],0x30
00000F78  8B442474          mov eax,[esp+0x74]
00000F7C  8D50FF            lea edx,[eax-0x1]
00000F7F  89542474          mov [esp+0x74],edx
00000F83  39442458          cmp [esp+0x58],eax
00000F87  7CE1              jl 0xf6a
00000F89  EB1A              jmp short 0xfa5
00000F8B  8B442464          mov eax,[esp+0x64]
00000F8F  8D5001            lea edx,[eax+0x1]
00000F92  89542464          mov [esp+0x64],edx
00000F96  8D4C240E          lea ecx,[esp+0xe]
00000F9A  8B542458          mov edx,[esp+0x58]
00000F9E  01CA              add edx,ecx
00000FA0  0FB612            movzx edx,byte [edx]
00000FA3  8810              mov [eax],dl
00000FA5  8B442458          mov eax,[esp+0x58]
00000FA9  8D50FF            lea edx,[eax-0x1]
00000FAC  89542458          mov [esp+0x58],edx
00000FB0  85C0              test eax,eax
00000FB2  7FD7              jg 0xf8b
00000FB4  EB0E              jmp short 0xfc4
00000FB6  8B442464          mov eax,[esp+0x64]
00000FBA  8D5001            lea edx,[eax+0x1]
00000FBD  89542464          mov [esp+0x64],edx
00000FC1  C60020            mov byte [eax],0x20
00000FC4  8B442470          mov eax,[esp+0x70]
00000FC8  8D50FF            lea edx,[eax-0x1]
00000FCB  89542470          mov [esp+0x70],edx
00000FCF  85C0              test eax,eax
00000FD1  7FE3              jg 0xfb6
00000FD3  8B442464          mov eax,[esp+0x64]
00000FD7  83C460            add esp,byte +0x60
00000FDA  C3                ret
00000FDB  83EC5C            sub esp,byte +0x5c
00000FDE  8B442460          mov eax,[esp+0x60]
00000FE2  89442440          mov [esp+0x40],eax
00000FE6  E9B6040000        jmp 0x14a1
00000FEB  8B442464          mov eax,[esp+0x64]
00000FEF  0FB600            movzx eax,byte [eax]
00000FF2  3C25              cmp al,0x25
00000FF4  7419              jz 0x100f
00000FF6  8B542464          mov edx,[esp+0x64]
00000FFA  8B442440          mov eax,[esp+0x40]
00000FFE  8D4801            lea ecx,[eax+0x1]
00001001  894C2440          mov [esp+0x40],ecx
00001005  0FB612            movzx edx,byte [edx]
00001008  8810              mov [eax],dl
0000100A  E987040000        jmp 0x1496
0000100F  C744243800000000  mov dword [esp+0x38],0x0
00001017  8B442464          mov eax,[esp+0x64]
0000101B  83C001            add eax,byte +0x1
0000101E  89442464          mov [esp+0x64],eax
00001022  8B442464          mov eax,[esp+0x64]
00001026  0FB600            movzx eax,byte [eax]
00001029  0FBEC0            movsx eax,al
0000102C  83E820            sub eax,byte +0x20
0000102F  83F810            cmp eax,byte +0x10
00001032  772C              ja 0x1060
00001034  8B0485A8301000    mov eax,[eax*4+0x1030a8]
0000103B  FFE0              jmp eax
0000103D  834C243810        or dword [esp+0x38],byte +0x10
00001042  EBD3              jmp short 0x1017
00001044  834C243804        or dword [esp+0x38],byte +0x4
00001049  EBCC              jmp short 0x1017
0000104B  834C243808        or dword [esp+0x38],byte +0x8
00001050  EBC5              jmp short 0x1017
00001052  834C243840        or dword [esp+0x38],byte +0x40
00001057  EBBE              jmp short 0x1017
00001059  834C243801        or dword [esp+0x38],byte +0x1
0000105E  EBB7              jmp short 0x1017
00001060  C7442434FFFFFFFF  mov dword [esp+0x34],0xffffffff
00001068  8B442464          mov eax,[esp+0x64]
0000106C  0FB600            movzx eax,byte [eax]
0000106F  0FBEC0            movsx eax,al
00001072  890424            mov [esp],eax
00001075  E86AFCFFFF        call 0xce4
0000107A  85C0              test eax,eax
0000107C  7412              jz 0x1090
0000107E  8D442464          lea eax,[esp+0x64]
00001082  890424            mov [esp],eax
00001085  E874FCFFFF        call 0xcfe
0000108A  89442434          mov [esp+0x34],eax
0000108E  EB37              jmp short 0x10c7
00001090  8B442464          mov eax,[esp+0x64]
00001094  0FB600            movzx eax,byte [eax]
00001097  3C2A              cmp al,0x2a
00001099  752C              jnz 0x10c7
0000109B  8B442464          mov eax,[esp+0x64]
0000109F  83C001            add eax,byte +0x1
000010A2  89442464          mov [esp+0x64],eax
000010A6  8B442468          mov eax,[esp+0x68]
000010AA  8D5004            lea edx,[eax+0x4]
000010AD  89542468          mov [esp+0x68],edx
000010B1  8B00              mov eax,[eax]
000010B3  89442434          mov [esp+0x34],eax
000010B7  837C243400        cmp dword [esp+0x34],byte +0x0
000010BC  7909              jns 0x10c7
000010BE  F75C2434          neg dword [esp+0x34]
000010C2  834C243810        or dword [esp+0x38],byte +0x10
000010C7  C7442430FFFFFFFF  mov dword [esp+0x30],0xffffffff
000010CF  8B442464          mov eax,[esp+0x64]
000010D3  0FB600            movzx eax,byte [eax]
000010D6  3C2E              cmp al,0x2e
000010D8  7569              jnz 0x1143
000010DA  8B442464          mov eax,[esp+0x64]
000010DE  83C001            add eax,byte +0x1
000010E1  89442464          mov [esp+0x64],eax
000010E5  8B442464          mov eax,[esp+0x64]
000010E9  0FB600            movzx eax,byte [eax]
000010EC  0FBEC0            movsx eax,al
000010EF  890424            mov [esp],eax
000010F2  E8EDFBFFFF        call 0xce4
000010F7  85C0              test eax,eax
000010F9  7412              jz 0x110d
000010FB  8D442464          lea eax,[esp+0x64]
000010FF  890424            mov [esp],eax
00001102  E8F7FBFFFF        call 0xcfe
00001107  89442430          mov [esp+0x30],eax
0000110B  EB27              jmp short 0x1134
0000110D  8B442464          mov eax,[esp+0x64]
00001111  0FB600            movzx eax,byte [eax]
00001114  3C2A              cmp al,0x2a
00001116  751C              jnz 0x1134
00001118  8B442464          mov eax,[esp+0x64]
0000111C  83C001            add eax,byte +0x1
0000111F  89442464          mov [esp+0x64],eax
00001123  8B442468          mov eax,[esp+0x68]
00001127  8D5004            lea edx,[eax+0x4]
0000112A  89542468          mov [esp+0x68],edx
0000112E  8B00              mov eax,[eax]
00001130  89442430          mov [esp+0x30],eax
00001134  837C243000        cmp dword [esp+0x30],byte +0x0
00001139  7908              jns 0x1143
0000113B  C744243000000000  mov dword [esp+0x30],0x0
00001143  C744242CFFFFFFFF  mov dword [esp+0x2c],0xffffffff
0000114B  8B442464          mov eax,[esp+0x64]
0000114F  0FB600            movzx eax,byte [eax]
00001152  3C68              cmp al,0x68
00001154  7416              jz 0x116c
00001156  8B442464          mov eax,[esp+0x64]
0000115A  0FB600            movzx eax,byte [eax]
0000115D  3C6C              cmp al,0x6c
0000115F  740B              jz 0x116c
00001161  8B442464          mov eax,[esp+0x64]
00001165  0FB600            movzx eax,byte [eax]
00001168  3C4C              cmp al,0x4c
0000116A  7519              jnz 0x1185
0000116C  8B442464          mov eax,[esp+0x64]
00001170  0FB600            movzx eax,byte [eax]
00001173  0FBEC0            movsx eax,al
00001176  8944242C          mov [esp+0x2c],eax
0000117A  8B442464          mov eax,[esp+0x64]
0000117E  83C001            add eax,byte +0x1
00001181  89442464          mov [esp+0x64],eax
00001185  C74424440A000000  mov dword [esp+0x44],0xa
0000118D  8B442464          mov eax,[esp+0x64]
00001191  0FB600            movzx eax,byte [eax]
00001194  0FBEC0            movsx eax,al
00001197  83E825            sub eax,byte +0x25
0000119A  83F853            cmp eax,byte +0x53
0000119D  0F87FE010000      ja near 0x13a1
000011A3  8B0485EC301000    mov eax,[eax*4+0x1030ec]
000011AA  FFE0              jmp eax
000011AC  8B442438          mov eax,[esp+0x38]
000011B0  83E010            and eax,byte +0x10
000011B3  85C0              test eax,eax
000011B5  751C              jnz 0x11d3
000011B7  EB0E              jmp short 0x11c7
000011B9  8B442440          mov eax,[esp+0x40]
000011BD  8D5001            lea edx,[eax+0x1]
000011C0  89542440          mov [esp+0x40],edx
000011C4  C60020            mov byte [eax],0x20
000011C7  836C243401        sub dword [esp+0x34],byte +0x1
000011CC  837C243400        cmp dword [esp+0x34],byte +0x0
000011D1  7FE6              jg 0x11b9
000011D3  8B442468          mov eax,[esp+0x68]
000011D7  8D5004            lea edx,[eax+0x4]
000011DA  89542468          mov [esp+0x68],edx
000011DE  8B08              mov ecx,[eax]
000011E0  8B442440          mov eax,[esp+0x40]
000011E4  8D5001            lea edx,[eax+0x1]
000011E7  89542440          mov [esp+0x40],edx
000011EB  89CA              mov edx,ecx
000011ED  8810              mov [eax],dl
000011EF  EB0E              jmp short 0x11ff
000011F1  8B442440          mov eax,[esp+0x40]
000011F5  8D5001            lea edx,[eax+0x1]
000011F8  89542440          mov [esp+0x40],edx
000011FC  C60020            mov byte [eax],0x20
000011FF  836C243401        sub dword [esp+0x34],byte +0x1
00001204  837C243400        cmp dword [esp+0x34],byte +0x0
00001209  7FE6              jg 0x11f1
0000120B  E986020000        jmp 0x1496
00001210  8B442468          mov eax,[esp+0x68]
00001214  8D5004            lea edx,[eax+0x4]
00001217  89542468          mov [esp+0x68],edx
0000121B  8B00              mov eax,[eax]
0000121D  8944243C          mov [esp+0x3c],eax
00001221  8B442430          mov eax,[esp+0x30]
00001225  89442404          mov [esp+0x4],eax
00001229  8B44243C          mov eax,[esp+0x3c]
0000122D  890424            mov [esp],eax
00001230  E883F5FFFF        call 0x7b8
00001235  89442428          mov [esp+0x28],eax
00001239  8B442438          mov eax,[esp+0x38]
0000123D  83E010            and eax,byte +0x10
00001240  85C0              test eax,eax
00001242  7521              jnz 0x1265
00001244  EB0E              jmp short 0x1254
00001246  8B442440          mov eax,[esp+0x40]
0000124A  8D5001            lea edx,[eax+0x1]
0000124D  89542440          mov [esp+0x40],edx
00001251  C60020            mov byte [eax],0x20
00001254  8B442434          mov eax,[esp+0x34]
00001258  8D50FF            lea edx,[eax-0x1]
0000125B  89542434          mov [esp+0x34],edx
0000125F  39442428          cmp [esp+0x28],eax
00001263  7CE1              jl 0x1246
00001265  C744244800000000  mov dword [esp+0x48],0x0
0000126D  EB20              jmp short 0x128f
0000126F  8B54243C          mov edx,[esp+0x3c]
00001273  8D4201            lea eax,[edx+0x1]
00001276  8944243C          mov [esp+0x3c],eax
0000127A  8B442440          mov eax,[esp+0x40]
0000127E  8D4801            lea ecx,[eax+0x1]
00001281  894C2440          mov [esp+0x40],ecx
00001285  0FB612            movzx edx,byte [edx]
00001288  8810              mov [eax],dl
0000128A  8344244801        add dword [esp+0x48],byte +0x1
0000128F  8B442448          mov eax,[esp+0x48]
00001293  3B442428          cmp eax,[esp+0x28]
00001297  7CD6              jl 0x126f
00001299  EB0E              jmp short 0x12a9
0000129B  8B442440          mov eax,[esp+0x40]
0000129F  8D5001            lea edx,[eax+0x1]
000012A2  89542440          mov [esp+0x40],edx
000012A6  C60020            mov byte [eax],0x20
000012A9  8B442434          mov eax,[esp+0x34]
000012AD  8D50FF            lea edx,[eax-0x1]
000012B0  89542434          mov [esp+0x34],edx
000012B4  39442428          cmp [esp+0x28],eax
000012B8  7CE1              jl 0x129b
000012BA  E9D7010000        jmp 0x1496
000012BF  837C2434FF        cmp dword [esp+0x34],byte -0x1
000012C4  750D              jnz 0x12d3
000012C6  C744243408000000  mov dword [esp+0x34],0x8
000012CE  834C243801        or dword [esp+0x38],byte +0x1
000012D3  8B442468          mov eax,[esp+0x68]
000012D7  8D5004            lea edx,[eax+0x4]
000012DA  89542468          mov [esp+0x68],edx
000012DE  8B00              mov eax,[eax]
000012E0  89C2              mov edx,eax
000012E2  8B442438          mov eax,[esp+0x38]
000012E6  89442414          mov [esp+0x14],eax
000012EA  8B442430          mov eax,[esp+0x30]
000012EE  89442410          mov [esp+0x10],eax
000012F2  8B442434          mov eax,[esp+0x34]
000012F6  8944240C          mov [esp+0xc],eax
000012FA  C744240810000000  mov dword [esp+0x8],0x10
00001302  89542404          mov [esp+0x4],edx
00001306  8B442440          mov eax,[esp+0x40]
0000130A  890424            mov [esp],eax
0000130D  E848FAFFFF        call 0xd5a
00001312  89442440          mov [esp+0x40],eax
00001316  E97B010000        jmp 0x1496
0000131B  837C242C6C        cmp dword [esp+0x2c],byte +0x6c
00001320  7526              jnz 0x1348
00001322  8B442468          mov eax,[esp+0x68]
00001326  8D5004            lea edx,[eax+0x4]
00001329  89542468          mov [esp+0x68],edx
0000132D  8B00              mov eax,[eax]
0000132F  89442420          mov [esp+0x20],eax
00001333  8B442440          mov eax,[esp+0x40]
00001337  2B442460          sub eax,[esp+0x60]
0000133B  89C2              mov edx,eax
0000133D  8B442420          mov eax,[esp+0x20]
00001341  8910              mov [eax],edx
00001343  E94E010000        jmp 0x1496
00001348  8B442468          mov eax,[esp+0x68]
0000134C  8D5004            lea edx,[eax+0x4]
0000134F  89542468          mov [esp+0x68],edx
00001353  8B00              mov eax,[eax]
00001355  89442424          mov [esp+0x24],eax
00001359  8B442440          mov eax,[esp+0x40]
0000135D  2B442460          sub eax,[esp+0x60]
00001361  89C2              mov edx,eax
00001363  8B442424          mov eax,[esp+0x24]
00001367  8910              mov [eax],edx
00001369  E928010000        jmp 0x1496
0000136E  8B442440          mov eax,[esp+0x40]
00001372  8D5001            lea edx,[eax+0x1]
00001375  89542440          mov [esp+0x40],edx
00001379  C60025            mov byte [eax],0x25
0000137C  E915010000        jmp 0x1496
00001381  C744244408000000  mov dword [esp+0x44],0x8
00001389  EB59              jmp short 0x13e4
0000138B  834C243820        or dword [esp+0x38],byte +0x20
00001390  C744244410000000  mov dword [esp+0x44],0x10
00001398  EB4A              jmp short 0x13e4
0000139A  834C243802        or dword [esp+0x38],byte +0x2
0000139F  EB42              jmp short 0x13e3
000013A1  8B442440          mov eax,[esp+0x40]
000013A5  8D5001            lea edx,[eax+0x1]
000013A8  89542440          mov [esp+0x40],edx
000013AC  C60025            mov byte [eax],0x25
000013AF  8B442464          mov eax,[esp+0x64]
000013B3  0FB600            movzx eax,byte [eax]
000013B6  84C0              test al,al
000013B8  7419              jz 0x13d3
000013BA  8B542464          mov edx,[esp+0x64]
000013BE  8B442440          mov eax,[esp+0x40]
000013C2  8D4801            lea ecx,[eax+0x1]
000013C5  894C2440          mov [esp+0x40],ecx
000013C9  0FB612            movzx edx,byte [edx]
000013CC  8810              mov [eax],dl
000013CE  E9C3000000        jmp 0x1496
000013D3  8B442464          mov eax,[esp+0x64]
000013D7  83E801            sub eax,byte +0x1
000013DA  89442464          mov [esp+0x64],eax
000013DE  E9B3000000        jmp 0x1496
000013E3  90                nop
000013E4  837C242C6C        cmp dword [esp+0x2c],byte +0x6c
000013E9  7513              jnz 0x13fe
000013EB  8B442468          mov eax,[esp+0x68]
000013EF  8D5004            lea edx,[eax+0x4]
000013F2  89542468          mov [esp+0x68],edx
000013F6  8B00              mov eax,[eax]
000013F8  8944244C          mov [esp+0x4c],eax
000013FC  EB60              jmp short 0x145e
000013FE  837C242C68        cmp dword [esp+0x2c],byte +0x68
00001403  752A              jnz 0x142f
00001405  8B442468          mov eax,[esp+0x68]
00001409  8D5004            lea edx,[eax+0x4]
0000140C  89542468          mov [esp+0x68],edx
00001410  8B00              mov eax,[eax]
00001412  0FB7C0            movzx eax,ax
00001415  8944244C          mov [esp+0x4c],eax
00001419  8B442438          mov eax,[esp+0x38]
0000141D  83E002            and eax,byte +0x2
00001420  85C0              test eax,eax
00001422  743A              jz 0x145e
00001424  8B44244C          mov eax,[esp+0x4c]
00001428  98                cwde
00001429  8944244C          mov [esp+0x4c],eax
0000142D  EB2F              jmp short 0x145e
0000142F  8B442438          mov eax,[esp+0x38]
00001433  83E002            and eax,byte +0x2
00001436  85C0              test eax,eax
00001438  7413              jz 0x144d
0000143A  8B442468          mov eax,[esp+0x68]
0000143E  8D5004            lea edx,[eax+0x4]
00001441  89542468          mov [esp+0x68],edx
00001445  8B00              mov eax,[eax]
00001447  8944244C          mov [esp+0x4c],eax
0000144B  EB11              jmp short 0x145e
0000144D  8B442468          mov eax,[esp+0x68]
00001451  8D5004            lea edx,[eax+0x4]
00001454  89542468          mov [esp+0x68],edx
00001458  8B00              mov eax,[eax]
0000145A  8944244C          mov [esp+0x4c],eax
0000145E  8B44244C          mov eax,[esp+0x4c]
00001462  8B542438          mov edx,[esp+0x38]
00001466  89542414          mov [esp+0x14],edx
0000146A  8B542430          mov edx,[esp+0x30]
0000146E  89542410          mov [esp+0x10],edx
00001472  8B542434          mov edx,[esp+0x34]
00001476  8954240C          mov [esp+0xc],edx
0000147A  8B542444          mov edx,[esp+0x44]
0000147E  89542408          mov [esp+0x8],edx
00001482  89442404          mov [esp+0x4],eax
00001486  8B442440          mov eax,[esp+0x40]
0000148A  890424            mov [esp],eax
0000148D  E8C8F8FFFF        call 0xd5a
00001492  89442440          mov [esp+0x40],eax
00001496  8B442464          mov eax,[esp+0x64]
0000149A  83C001            add eax,byte +0x1
0000149D  89442464          mov [esp+0x64],eax
000014A1  8B442464          mov eax,[esp+0x64]
000014A5  0FB600            movzx eax,byte [eax]
000014A8  84C0              test al,al
000014AA  0F853BFBFFFF      jnz near 0xfeb
000014B0  8B442440          mov eax,[esp+0x40]
000014B4  C60000            mov byte [eax],0x0
000014B7  8B442440          mov eax,[esp+0x40]
000014BB  2B442460          sub eax,[esp+0x60]
000014BF  83C45C            add esp,byte +0x5c
000014C2  C3                ret
000014C3  83EC2C            sub esp,byte +0x2c
000014C6  8D442438          lea eax,[esp+0x38]
000014CA  89442418          mov [esp+0x18],eax
000014CE  8B442418          mov eax,[esp+0x18]
000014D2  89442408          mov [esp+0x8],eax
000014D6  8B442434          mov eax,[esp+0x34]
000014DA  89442404          mov [esp+0x4],eax
000014DE  8B442430          mov eax,[esp+0x30]
000014E2  890424            mov [esp],eax
000014E5  E8F1FAFFFF        call 0xfdb
000014EA  8944241C          mov [esp+0x1c],eax
000014EE  8B44241C          mov eax,[esp+0x1c]
000014F2  83C42C            add esp,byte +0x2c
000014F5  C3                ret
000014F6  81EC2C040000      sub esp,0x42c
000014FC  8D842434040000    lea eax,[esp+0x434]
00001503  89442418          mov [esp+0x18],eax
00001507  8B442418          mov eax,[esp+0x18]
0000150B  89442408          mov [esp+0x8],eax
0000150F  8B842430040000    mov eax,[esp+0x430]
00001516  89442404          mov [esp+0x4],eax
0000151A  8D44241C          lea eax,[esp+0x1c]
0000151E  890424            mov [esp],eax
00001521  E8B5FAFFFF        call 0xfdb
00001526  8984241C040000    mov [esp+0x41c],eax
0000152D  8D44241C          lea eax,[esp+0x1c]
00001531  890424            mov [esp],eax
00001534  E82EF0FFFF        call 0x567
00001539  8B84241C040000    mov eax,[esp+0x41c]
00001540  81C42C040000      add esp,0x42c
00001546  C3                ret
00001547  90                nop
00001548  83EC18            sub esp,byte +0x18
0000154B  8B542428          mov edx,[esp+0x28]
0000154F  8B44242C          mov eax,[esp+0x2c]
00001553  88542404          mov [esp+0x4],dl
00001557  880424            mov [esp],al
0000155A  8B44241C          mov eax,[esp+0x1c]
0000155E  C1E003            shl eax,byte 0x3
00001561  0520801000        add eax,0x108020
00001566  89442414          mov [esp+0x14],eax
0000156A  8B442420          mov eax,[esp+0x20]
0000156E  89C2              mov edx,eax
00001570  8B442414          mov eax,[esp+0x14]
00001574  66895002          mov [eax+0x2],dx
00001578  8B442420          mov eax,[esp+0x20]
0000157C  C1E810            shr eax,byte 0x10
0000157F  89C2              mov edx,eax
00001581  8B442414          mov eax,[esp+0x14]
00001585  885004            mov [eax+0x4],dl
00001588  8B442420          mov eax,[esp+0x20]
0000158C  C1E818            shr eax,byte 0x18
0000158F  89C2              mov edx,eax
00001591  8B442414          mov eax,[esp+0x14]
00001595  885007            mov [eax+0x7],dl
00001598  8B442424          mov eax,[esp+0x24]
0000159C  89C2              mov edx,eax
0000159E  8B442414          mov eax,[esp+0x14]
000015A2  668910            mov [eax],dx
000015A5  8B442424          mov eax,[esp+0x24]
000015A9  C1E810            shr eax,byte 0x10
000015AC  83E00F            and eax,byte +0xf
000015AF  89C2              mov edx,eax
000015B1  8B442414          mov eax,[esp+0x14]
000015B5  885006            mov [eax+0x6],dl
000015B8  8B442414          mov eax,[esp+0x14]
000015BC  0FB6542404        movzx edx,byte [esp+0x4]
000015C1  885005            mov [eax+0x5],dl
000015C4  8B442414          mov eax,[esp+0x14]
000015C8  0FB64006          movzx eax,byte [eax+0x6]
000015CC  89C2              mov edx,eax
000015CE  0FB60424          movzx eax,byte [esp]
000015D2  83E0F0            and eax,byte -0x10
000015D5  09D0              or eax,edx
000015D7  89C2              mov edx,eax
000015D9  8B442414          mov eax,[esp+0x14]
000015DD  885006            mov [eax+0x6],dl
000015E0  90                nop
000015E1  83C418            add esp,byte +0x18
000015E4  C3                ret
000015E5  83EC14            sub esp,byte +0x14
000015E8  66C705608010003F  mov word [dword 0x108060],0x3f
         -00
000015F1  B820801000        mov eax,0x108020
000015F6  A362801000        mov [0x108062],eax
000015FB  C744241000000000  mov dword [esp+0x10],0x0
00001603  C744240C00000000  mov dword [esp+0xc],0x0
0000160B  C744240800000000  mov dword [esp+0x8],0x0
00001613  C744240400000000  mov dword [esp+0x4],0x0
0000161B  C7042400000000    mov dword [esp],0x0
00001622  E821FFFFFF        call 0x1548
00001627  C7442410CF000000  mov dword [esp+0x10],0xcf
0000162F  C744240C9A000000  mov dword [esp+0xc],0x9a
00001637  C7442408FFFFFFFF  mov dword [esp+0x8],0xffffffff
0000163F  C744240400000000  mov dword [esp+0x4],0x0
00001647  C7042401000000    mov dword [esp],0x1
0000164E  E8F5FEFFFF        call 0x1548
00001653  C7442410CF000000  mov dword [esp+0x10],0xcf
0000165B  C744240C92000000  mov dword [esp+0xc],0x92
00001663  C7442408FFFFFFFF  mov dword [esp+0x8],0xffffffff
0000166B  C744240400000000  mov dword [esp+0x4],0x0
00001673  C7042402000000    mov dword [esp],0x2
0000167A  E8C9FEFFFF        call 0x1548
0000167F  C7442410CF000000  mov dword [esp+0x10],0xcf
00001687  C744240CFA000000  mov dword [esp+0xc],0xfa
0000168F  C7442408FFFFFFFF  mov dword [esp+0x8],0xffffffff
00001697  C744240400000000  mov dword [esp+0x4],0x0
0000169F  C7042403000000    mov dword [esp],0x3
000016A6  E89DFEFFFF        call 0x1548
000016AB  C7442410CF000000  mov dword [esp+0x10],0xcf
000016B3  C744240CF2000000  mov dword [esp+0xc],0xf2
000016BB  C7442408FFFFFFFF  mov dword [esp+0x8],0xffffffff
000016C3  C744240400000000  mov dword [esp+0x4],0x0
000016CB  C7042404000000    mov dword [esp],0x4
000016D2  E871FEFFFF        call 0x1548
000016D7  0F011560801000    lgdt [dword 0x108060]
000016DE  66B81000          mov ax,0x10
000016E2  8ED8              mov ds,eax
000016E4  8EC0              mov es,eax
000016E6  8EE0              mov fs,eax
000016E8  8EE8              mov gs,eax
000016EA  8ED0              mov ss,eax
000016EC  EAF31610000800    jmp 0x8:0x1016f3
000016F3  90                nop
000016F4  83C414            add esp,byte +0x14
000016F7  C3                ret
000016F8  83EC1C            sub esp,byte +0x1c
000016FB  8B442420          mov eax,[esp+0x20]
000016FF  89442404          mov [esp+0x4],eax
00001703  C7042488331000    mov dword [esp],0x103388
0000170A  E8E7FDFFFF        call 0x14f6
0000170F  817C2420FF000000  cmp dword [esp+0x20],0xff
00001717  7F0F              jg 0x1728
00001719  8B442420          mov eax,[esp+0x20]
0000171D  8B542424          mov edx,[esp+0x24]
00001721  89148580801000    mov [eax*4+0x108080],edx
00001728  90                nop
00001729  83C41C            add esp,byte +0x1c
0000172C  C3                ret
0000172D  83EC18            sub esp,byte +0x18
00001730  8B442424          mov eax,[esp+0x24]
00001734  8B542428          mov edx,[esp+0x28]
00001738  6689442404        mov [esp+0x4],ax
0000173D  89D0              mov eax,edx
0000173F  880424            mov [esp],al
00001742  8B44241C          mov eax,[esp+0x1c]
00001746  C1E003            shl eax,byte 0x3
00001749  05A0841000        add eax,0x1084a0
0000174E  89442414          mov [esp+0x14],eax
00001752  8B442420          mov eax,[esp+0x20]
00001756  89C2              mov edx,eax
00001758  8B442414          mov eax,[esp+0x14]
0000175C  668910            mov [eax],dx
0000175F  8B442420          mov eax,[esp+0x20]
00001763  C1E810            shr eax,byte 0x10
00001766  89C2              mov edx,eax
00001768  8B442414          mov eax,[esp+0x14]
0000176C  66895006          mov [eax+0x6],dx
00001770  8B442414          mov eax,[esp+0x14]
00001774  C6400400          mov byte [eax+0x4],0x0
00001778  8B442414          mov eax,[esp+0x14]
0000177C  0FB7542404        movzx edx,word [esp+0x4]
00001781  66895002          mov [eax+0x2],dx
00001785  0FB60424          movzx eax,byte [esp]
00001789  83C860            or eax,byte +0x60
0000178C  89C2              mov edx,eax
0000178E  8B442414          mov eax,[esp+0x14]
00001792  885005            mov [eax+0x5],dl
00001795  90                nop
00001796  83C418            add esp,byte +0x18
00001799  C3                ret
0000179A  83EC1C            sub esp,byte +0x1c
0000179D  C744240411000000  mov dword [esp+0x4],0x11
000017A5  C7042420000000    mov dword [esp],0x20
000017AC  E8AEEEFFFF        call 0x65f
000017B1  C744240411000000  mov dword [esp+0x4],0x11
000017B9  C70424A0000000    mov dword [esp],0xa0
000017C0  E89AEEFFFF        call 0x65f
000017C5  C744240420000000  mov dword [esp+0x4],0x20
000017CD  C7042421000000    mov dword [esp],0x21
000017D4  E886EEFFFF        call 0x65f
000017D9  C744240428000000  mov dword [esp+0x4],0x28
000017E1  C70424A1000000    mov dword [esp],0xa1
000017E8  E872EEFFFF        call 0x65f
000017ED  C744240404000000  mov dword [esp+0x4],0x4
000017F5  C7042421000000    mov dword [esp],0x21
000017FC  E85EEEFFFF        call 0x65f
00001801  C744240402000000  mov dword [esp+0x4],0x2
00001809  C70424A1000000    mov dword [esp],0xa1
00001810  E84AEEFFFF        call 0x65f
00001815  C744240401000000  mov dword [esp+0x4],0x1
0000181D  C7042421000000    mov dword [esp],0x21
00001824  E836EEFFFF        call 0x65f
00001829  C744240401000000  mov dword [esp+0x4],0x1
00001831  C70424A1000000    mov dword [esp],0xa1
00001838  E822EEFFFF        call 0x65f
0000183D  C744240400000000  mov dword [esp+0x4],0x0
00001845  C7042421000000    mov dword [esp],0x21
0000184C  E80EEEFFFF        call 0x65f
00001851  C744240400000000  mov dword [esp+0x4],0x0
00001859  C70424A1000000    mov dword [esp],0xa1
00001860  E8FAEDFFFF        call 0x65f
00001865  90                nop
00001866  83C41C            add esp,byte +0x1c
00001869  C3                ret
0000186A  83EC2C            sub esp,byte +0x2c
0000186D  8B442430          mov eax,[esp+0x30]
00001871  8844241C          mov [esp+0x1c],al
00001875  807C241C27        cmp byte [esp+0x1c],0x27
0000187A  7614              jna 0x1890
0000187C  C744240420000000  mov dword [esp+0x4],0x20
00001884  C70424A0000000    mov dword [esp],0xa0
0000188B  E8CFEDFFFF        call 0x65f
00001890  C744240420000000  mov dword [esp+0x4],0x20
00001898  C7042420000000    mov dword [esp],0x20
0000189F  E8BBEDFFFF        call 0x65f
000018A4  90                nop
000018A5  83C42C            add esp,byte +0x2c
000018A8  C3                ret
000018A9  83EC1C            sub esp,byte +0x1c
000018AC  C744240800080000  mov dword [esp+0x8],0x800
000018B4  C744240400000000  mov dword [esp+0x4],0x0
000018BC  C70424A0841000    mov dword [esp],0x1084a0
000018C3  E888EEFFFF        call 0x750
000018C8  B8A0841000        mov eax,0x1084a0
000018CD  A382841000        mov [0x108482],eax
000018D2  66C70580841000FF  mov word [dword 0x108480],0x7ff
         -07
000018DB  E8BAFEFFFF        call 0x179a
000018E0  B840001000        mov eax,0x100040
000018E5  C744240C8E000000  mov dword [esp+0xc],0x8e
000018ED  C744240808000000  mov dword [esp+0x8],0x8
000018F5  89442404          mov [esp+0x4],eax
000018F9  C7042400000000    mov dword [esp],0x0
00001900  E828FEFFFF        call 0x172d
00001905  B84A001000        mov eax,0x10004a
0000190A  C744240C8E000000  mov dword [esp+0xc],0x8e
00001912  C744240808000000  mov dword [esp+0x8],0x8
0000191A  89442404          mov [esp+0x4],eax
0000191E  C7042401000000    mov dword [esp],0x1
00001925  E803FEFFFF        call 0x172d
0000192A  B854001000        mov eax,0x100054
0000192F  C744240C8E000000  mov dword [esp+0xc],0x8e
00001937  C744240808000000  mov dword [esp+0x8],0x8
0000193F  89442404          mov [esp+0x4],eax
00001943  C7042402000000    mov dword [esp],0x2
0000194A  E8DEFDFFFF        call 0x172d
0000194F  B85E001000        mov eax,0x10005e
00001954  C744240C8E000000  mov dword [esp+0xc],0x8e
0000195C  C744240808000000  mov dword [esp+0x8],0x8
00001964  89442404          mov [esp+0x4],eax
00001968  C7042403000000    mov dword [esp],0x3
0000196F  E8B9FDFFFF        call 0x172d
00001974  B868001000        mov eax,0x100068
00001979  C744240C8E000000  mov dword [esp+0xc],0x8e
00001981  C744240808000000  mov dword [esp+0x8],0x8
00001989  89442404          mov [esp+0x4],eax
0000198D  C7042404000000    mov dword [esp],0x4
00001994  E894FDFFFF        call 0x172d
00001999  B872001000        mov eax,0x100072
0000199E  C744240C8E000000  mov dword [esp+0xc],0x8e
000019A6  C744240808000000  mov dword [esp+0x8],0x8
000019AE  89442404          mov [esp+0x4],eax
000019B2  C7042405000000    mov dword [esp],0x5
000019B9  E86FFDFFFF        call 0x172d
000019BE  B87C001000        mov eax,0x10007c
000019C3  C744240C8E000000  mov dword [esp+0xc],0x8e
000019CB  C744240808000000  mov dword [esp+0x8],0x8
000019D3  89442404          mov [esp+0x4],eax
000019D7  C7042406000000    mov dword [esp],0x6
000019DE  E84AFDFFFF        call 0x172d
000019E3  B886001000        mov eax,0x100086
000019E8  C744240C8E000000  mov dword [esp+0xc],0x8e
000019F0  C744240808000000  mov dword [esp+0x8],0x8
000019F8  89442404          mov [esp+0x4],eax
000019FC  C7042407000000    mov dword [esp],0x7
00001A03  E825FDFFFF        call 0x172d
00001A08  B890001000        mov eax,0x100090
00001A0D  C744240C8E000000  mov dword [esp+0xc],0x8e
00001A15  C744240808000000  mov dword [esp+0x8],0x8
00001A1D  89442404          mov [esp+0x4],eax
00001A21  C7042408000000    mov dword [esp],0x8
00001A28  E800FDFFFF        call 0x172d
00001A2D  B898001000        mov eax,0x100098
00001A32  C744240C8E000000  mov dword [esp+0xc],0x8e
00001A3A  C744240808000000  mov dword [esp+0x8],0x8
00001A42  89442404          mov [esp+0x4],eax
00001A46  C7042409000000    mov dword [esp],0x9
00001A4D  E8DBFCFFFF        call 0x172d
00001A52  B8A2001000        mov eax,0x1000a2
00001A57  C744240C8E000000  mov dword [esp+0xc],0x8e
00001A5F  C744240808000000  mov dword [esp+0x8],0x8
00001A67  89442404          mov [esp+0x4],eax
00001A6B  C704240A000000    mov dword [esp],0xa
00001A72  E8B6FCFFFF        call 0x172d
00001A77  B8AA001000        mov eax,0x1000aa
00001A7C  C744240C8E000000  mov dword [esp+0xc],0x8e
00001A84  C744240808000000  mov dword [esp+0x8],0x8
00001A8C  89442404          mov [esp+0x4],eax
00001A90  C704240B000000    mov dword [esp],0xb
00001A97  E891FCFFFF        call 0x172d
00001A9C  B8B2001000        mov eax,0x1000b2
00001AA1  C744240C8E000000  mov dword [esp+0xc],0x8e
00001AA9  C744240808000000  mov dword [esp+0x8],0x8
00001AB1  89442404          mov [esp+0x4],eax
00001AB5  C704240C000000    mov dword [esp],0xc
00001ABC  E86CFCFFFF        call 0x172d
00001AC1  B8BA001000        mov eax,0x1000ba
00001AC6  C744240C8E000000  mov dword [esp+0xc],0x8e
00001ACE  C744240808000000  mov dword [esp+0x8],0x8
00001AD6  89442404          mov [esp+0x4],eax
00001ADA  C704240D000000    mov dword [esp],0xd
00001AE1  E847FCFFFF        call 0x172d
00001AE6  B8C2001000        mov eax,0x1000c2
00001AEB  C744240C8E000000  mov dword [esp+0xc],0x8e
00001AF3  C744240808000000  mov dword [esp+0x8],0x8
00001AFB  89442404          mov [esp+0x4],eax
00001AFF  C704240E000000    mov dword [esp],0xe
00001B06  E822FCFFFF        call 0x172d
00001B0B  B8CA001000        mov eax,0x1000ca
00001B10  C744240C8E000000  mov dword [esp+0xc],0x8e
00001B18  C744240808000000  mov dword [esp+0x8],0x8
00001B20  89442404          mov [esp+0x4],eax
00001B24  C704240F000000    mov dword [esp],0xf
00001B2B  E8FDFBFFFF        call 0x172d
00001B30  B8D1001000        mov eax,0x1000d1
00001B35  C744240C8E000000  mov dword [esp+0xc],0x8e
00001B3D  C744240808000000  mov dword [esp+0x8],0x8
00001B45  89442404          mov [esp+0x4],eax
00001B49  C7042410000000    mov dword [esp],0x10
00001B50  E8D8FBFFFF        call 0x172d
00001B55  B8D8001000        mov eax,0x1000d8
00001B5A  C744240C8E000000  mov dword [esp+0xc],0x8e
00001B62  C744240808000000  mov dword [esp+0x8],0x8
00001B6A  89442404          mov [esp+0x4],eax
00001B6E  C7042411000000    mov dword [esp],0x11
00001B75  E8B3FBFFFF        call 0x172d
00001B7A  B8DF001000        mov eax,0x1000df
00001B7F  C744240C8E000000  mov dword [esp+0xc],0x8e
00001B87  C744240808000000  mov dword [esp+0x8],0x8
00001B8F  89442404          mov [esp+0x4],eax
00001B93  C7042412000000    mov dword [esp],0x12
00001B9A  E88EFBFFFF        call 0x172d
00001B9F  B8E6001000        mov eax,0x1000e6
00001BA4  C744240C8E000000  mov dword [esp+0xc],0x8e
00001BAC  C744240808000000  mov dword [esp+0x8],0x8
00001BB4  89442404          mov [esp+0x4],eax
00001BB8  C7042413000000    mov dword [esp],0x13
00001BBF  E869FBFFFF        call 0x172d
00001BC4  B8ED001000        mov eax,0x1000ed
00001BC9  C744240C8E000000  mov dword [esp+0xc],0x8e
00001BD1  C744240808000000  mov dword [esp+0x8],0x8
00001BD9  89442404          mov [esp+0x4],eax
00001BDD  C7042414000000    mov dword [esp],0x14
00001BE4  E844FBFFFF        call 0x172d
00001BE9  B8F4001000        mov eax,0x1000f4
00001BEE  C744240C8E000000  mov dword [esp+0xc],0x8e
00001BF6  C744240808000000  mov dword [esp+0x8],0x8
00001BFE  89442404          mov [esp+0x4],eax
00001C02  C7042415000000    mov dword [esp],0x15
00001C09  E81FFBFFFF        call 0x172d
00001C0E  B8FB001000        mov eax,0x1000fb
00001C13  C744240C8E000000  mov dword [esp+0xc],0x8e
00001C1B  C744240808000000  mov dword [esp+0x8],0x8
00001C23  89442404          mov [esp+0x4],eax
00001C27  C7042416000000    mov dword [esp],0x16
00001C2E  E8FAFAFFFF        call 0x172d
00001C33  B802011000        mov eax,0x100102
00001C38  C744240C8E000000  mov dword [esp+0xc],0x8e
00001C40  C744240808000000  mov dword [esp+0x8],0x8
00001C48  89442404          mov [esp+0x4],eax
00001C4C  C7042417000000    mov dword [esp],0x17
00001C53  E8D5FAFFFF        call 0x172d
00001C58  B809011000        mov eax,0x100109
00001C5D  C744240C8E000000  mov dword [esp+0xc],0x8e
00001C65  C744240808000000  mov dword [esp+0x8],0x8
00001C6D  89442404          mov [esp+0x4],eax
00001C71  C7042418000000    mov dword [esp],0x18
00001C78  E8B0FAFFFF        call 0x172d
00001C7D  B810011000        mov eax,0x100110
00001C82  C744240C8E000000  mov dword [esp+0xc],0x8e
00001C8A  C744240808000000  mov dword [esp+0x8],0x8
00001C92  89442404          mov [esp+0x4],eax
00001C96  C7042419000000    mov dword [esp],0x19
00001C9D  E88BFAFFFF        call 0x172d
00001CA2  B817011000        mov eax,0x100117
00001CA7  C744240C8E000000  mov dword [esp+0xc],0x8e
00001CAF  C744240808000000  mov dword [esp+0x8],0x8
00001CB7  89442404          mov [esp+0x4],eax
00001CBB  C704241A000000    mov dword [esp],0x1a
00001CC2  E866FAFFFF        call 0x172d
00001CC7  B81E011000        mov eax,0x10011e
00001CCC  C744240C8E000000  mov dword [esp+0xc],0x8e
00001CD4  C744240808000000  mov dword [esp+0x8],0x8
00001CDC  89442404          mov [esp+0x4],eax
00001CE0  C704241B000000    mov dword [esp],0x1b
00001CE7  E841FAFFFF        call 0x172d
00001CEC  B825011000        mov eax,0x100125
00001CF1  C744240C8E000000  mov dword [esp+0xc],0x8e
00001CF9  C744240808000000  mov dword [esp+0x8],0x8
00001D01  89442404          mov [esp+0x4],eax
00001D05  C704241C000000    mov dword [esp],0x1c
00001D0C  E81CFAFFFF        call 0x172d
00001D11  B82C011000        mov eax,0x10012c
00001D16  C744240C8E000000  mov dword [esp+0xc],0x8e
00001D1E  C744240808000000  mov dword [esp+0x8],0x8
00001D26  89442404          mov [esp+0x4],eax
00001D2A  C704241D000000    mov dword [esp],0x1d
00001D31  E8F7F9FFFF        call 0x172d
00001D36  B833011000        mov eax,0x100133
00001D3B  C744240C8E000000  mov dword [esp+0xc],0x8e
00001D43  C744240808000000  mov dword [esp+0x8],0x8
00001D4B  89442404          mov [esp+0x4],eax
00001D4F  C704241E000000    mov dword [esp],0x1e
00001D56  E8D2F9FFFF        call 0x172d
00001D5B  B83A011000        mov eax,0x10013a
00001D60  C744240C8E000000  mov dword [esp+0xc],0x8e
00001D68  C744240808000000  mov dword [esp+0x8],0x8
00001D70  89442404          mov [esp+0x4],eax
00001D74  C704241F000000    mov dword [esp],0x1f
00001D7B  E8ADF9FFFF        call 0x172d
00001D80  B870011000        mov eax,0x100170
00001D85  C744240C8E000000  mov dword [esp+0xc],0x8e
00001D8D  C744240808000000  mov dword [esp+0x8],0x8
00001D95  89442404          mov [esp+0x4],eax
00001D99  C7042420000000    mov dword [esp],0x20
00001DA0  E888F9FFFF        call 0x172d
00001DA5  B877011000        mov eax,0x100177
00001DAA  C744240C8E000000  mov dword [esp+0xc],0x8e
00001DB2  C744240808000000  mov dword [esp+0x8],0x8
00001DBA  89442404          mov [esp+0x4],eax
00001DBE  C7042421000000    mov dword [esp],0x21
00001DC5  E863F9FFFF        call 0x172d
00001DCA  B87E011000        mov eax,0x10017e
00001DCF  C744240C8E000000  mov dword [esp+0xc],0x8e
00001DD7  C744240808000000  mov dword [esp+0x8],0x8
00001DDF  89442404          mov [esp+0x4],eax
00001DE3  C7042422000000    mov dword [esp],0x22
00001DEA  E83EF9FFFF        call 0x172d
00001DEF  B885011000        mov eax,0x100185
00001DF4  C744240C8E000000  mov dword [esp+0xc],0x8e
00001DFC  C744240808000000  mov dword [esp+0x8],0x8
00001E04  89442404          mov [esp+0x4],eax
00001E08  C7042423000000    mov dword [esp],0x23
00001E0F  E819F9FFFF        call 0x172d
00001E14  B88C011000        mov eax,0x10018c
00001E19  C744240C8E000000  mov dword [esp+0xc],0x8e
00001E21  C744240808000000  mov dword [esp+0x8],0x8
00001E29  89442404          mov [esp+0x4],eax
00001E2D  C7042424000000    mov dword [esp],0x24
00001E34  E8F4F8FFFF        call 0x172d
00001E39  B893011000        mov eax,0x100193
00001E3E  C744240C8E000000  mov dword [esp+0xc],0x8e
00001E46  C744240808000000  mov dword [esp+0x8],0x8
00001E4E  89442404          mov [esp+0x4],eax
00001E52  C7042425000000    mov dword [esp],0x25
00001E59  E8CFF8FFFF        call 0x172d
00001E5E  B89A011000        mov eax,0x10019a
00001E63  C744240C8E000000  mov dword [esp+0xc],0x8e
00001E6B  C744240808000000  mov dword [esp+0x8],0x8
00001E73  89442404          mov [esp+0x4],eax
00001E77  C7042426000000    mov dword [esp],0x26
00001E7E  E8AAF8FFFF        call 0x172d
00001E83  B8A1011000        mov eax,0x1001a1
00001E88  C744240C8E000000  mov dword [esp+0xc],0x8e
00001E90  C744240808000000  mov dword [esp+0x8],0x8
00001E98  89442404          mov [esp+0x4],eax
00001E9C  C7042427000000    mov dword [esp],0x27
00001EA3  E885F8FFFF        call 0x172d
00001EA8  B8A8011000        mov eax,0x1001a8
00001EAD  C744240C8E000000  mov dword [esp+0xc],0x8e
00001EB5  C744240808000000  mov dword [esp+0x8],0x8
00001EBD  89442404          mov [esp+0x4],eax
00001EC1  C7042428000000    mov dword [esp],0x28
00001EC8  E860F8FFFF        call 0x172d
00001ECD  B8AF011000        mov eax,0x1001af
00001ED2  C744240C8E000000  mov dword [esp+0xc],0x8e
00001EDA  C744240808000000  mov dword [esp+0x8],0x8
00001EE2  89442404          mov [esp+0x4],eax
00001EE6  C7042429000000    mov dword [esp],0x29
00001EED  E83BF8FFFF        call 0x172d
00001EF2  B8B6011000        mov eax,0x1001b6
00001EF7  C744240C8E000000  mov dword [esp+0xc],0x8e
00001EFF  C744240808000000  mov dword [esp+0x8],0x8
00001F07  89442404          mov [esp+0x4],eax
00001F0B  C704242A000000    mov dword [esp],0x2a
00001F12  E816F8FFFF        call 0x172d
00001F17  B8BD011000        mov eax,0x1001bd
00001F1C  C744240C8E000000  mov dword [esp+0xc],0x8e
00001F24  C744240808000000  mov dword [esp+0x8],0x8
00001F2C  89442404          mov [esp+0x4],eax
00001F30  C704242B000000    mov dword [esp],0x2b
00001F37  E8F1F7FFFF        call 0x172d
00001F3C  B8C4011000        mov eax,0x1001c4
00001F41  C744240C8E000000  mov dword [esp+0xc],0x8e
00001F49  C744240808000000  mov dword [esp+0x8],0x8
00001F51  89442404          mov [esp+0x4],eax
00001F55  C704242C000000    mov dword [esp],0x2c
00001F5C  E8CCF7FFFF        call 0x172d
00001F61  B8CB011000        mov eax,0x1001cb
00001F66  C744240C8E000000  mov dword [esp+0xc],0x8e
00001F6E  C744240808000000  mov dword [esp+0x8],0x8
00001F76  89442404          mov [esp+0x4],eax
00001F7A  C704242D000000    mov dword [esp],0x2d
00001F81  E8A7F7FFFF        call 0x172d
00001F86  B8D2011000        mov eax,0x1001d2
00001F8B  C744240C8E000000  mov dword [esp+0xc],0x8e
00001F93  C744240808000000  mov dword [esp+0x8],0x8
00001F9B  89442404          mov [esp+0x4],eax
00001F9F  C704242E000000    mov dword [esp],0x2e
00001FA6  E882F7FFFF        call 0x172d
00001FAB  B8D9011000        mov eax,0x1001d9
00001FB0  C744240C8E000000  mov dword [esp+0xc],0x8e
00001FB8  C744240808000000  mov dword [esp+0x8],0x8
00001FC0  89442404          mov [esp+0x4],eax
00001FC4  C704242F000000    mov dword [esp],0x2f
00001FCB  E85DF7FFFF        call 0x172d
00001FD0  B841011000        mov eax,0x100141
00001FD5  C744240C8E000000  mov dword [esp+0xc],0x8e
00001FDD  C744240808000000  mov dword [esp+0x8],0x8
00001FE5  89442404          mov [esp+0x4],eax
00001FE9  C7042480000000    mov dword [esp],0x80
00001FF0  E838F7FFFF        call 0x172d
00001FF5  0F011D80841000    lidt [dword 0x108480]
00001FFC  FB                sti
00001FFD  90                nop
00001FFE  83C41C            add esp,byte +0x1c
00002001  C3                ret
00002002  83EC2C            sub esp,byte +0x2c
00002005  8B442454          mov eax,[esp+0x54]
00002009  83F81F            cmp eax,byte +0x1f
0000200C  7725              ja 0x2033
0000200E  8B542458          mov edx,[esp+0x58]
00002012  8B442454          mov eax,[esp+0x54]
00002016  8B048500401000    mov eax,[eax*4+0x104000]
0000201D  89542408          mov [esp+0x8],edx
00002021  89442404          mov [esp+0x4],eax
00002025  C704249C331000    mov dword [esp],0x10339c
0000202C  E8C5F4FFFF        call 0x14f6
00002031  EBFE              jmp short 0x2031
00002033  8B442454          mov eax,[esp+0x54]
00002037  8B048580801000    mov eax,[eax*4+0x108080]
0000203E  85C0              test eax,eax
00002040  741C              jz 0x205e
00002042  8B442454          mov eax,[esp+0x54]
00002046  8B048580801000    mov eax,[eax*4+0x108080]
0000204D  8944241C          mov [esp+0x1c],eax
00002051  8D442430          lea eax,[esp+0x30]
00002055  890424            mov [esp],eax
00002058  8B44241C          mov eax,[esp+0x1c]
0000205C  FFD0              call eax
0000205E  90                nop
0000205F  83C42C            add esp,byte +0x2c
00002062  C3                ret
00002063  83EC2C            sub esp,byte +0x2c
00002066  8B442430          mov eax,[esp+0x30]
0000206A  8B4024            mov eax,[eax+0x24]
0000206D  8B048580801000    mov eax,[eax*4+0x108080]
00002074  85C0              test eax,eax
00002076  741F              jz 0x2097
00002078  8B442430          mov eax,[esp+0x30]
0000207C  8B4024            mov eax,[eax+0x24]
0000207F  8B048580801000    mov eax,[eax*4+0x108080]
00002086  8944241C          mov [esp+0x1c],eax
0000208A  8B442430          mov eax,[esp+0x30]
0000208E  890424            mov [esp],eax
00002091  8B44241C          mov eax,[esp+0x1c]
00002095  FFD0              call eax
00002097  8B442430          mov eax,[esp+0x30]
0000209B  8B4024            mov eax,[eax+0x24]
0000209E  0FB6C0            movzx eax,al
000020A1  890424            mov [esp],eax
000020A4  E8C1F7FFFF        call 0x186a
000020A9  90                nop
000020AA  83C42C            add esp,byte +0x2c
000020AD  C3                ret
000020AE  90                nop
000020AF  90                nop
000020B0  83EC3C            sub esp,byte +0x3c
000020B3  C744242CA08C1000  mov dword [esp+0x2c],0x108ca0
000020BB  8B44242C          mov eax,[esp+0x2c]
000020BF  8D5068            lea edx,[eax+0x68]
000020C2  8B442440          mov eax,[esp+0x40]
000020C6  C744241000000000  mov dword [esp+0x10],0x0
000020CE  C744240CE9000000  mov dword [esp+0xc],0xe9
000020D6  89542408          mov [esp+0x8],edx
000020DA  8B54242C          mov edx,[esp+0x2c]
000020DE  89542404          mov [esp+0x4],edx
000020E2  890424            mov [esp],eax
000020E5  E85EF4FFFF        call 0x1548
000020EA  C744240868000000  mov dword [esp+0x8],0x68
000020F2  C744240400000000  mov dword [esp+0x4],0x0
000020FA  C70424A08C1000    mov dword [esp],0x108ca0
00002101  E84AE6FFFF        call 0x750
00002106  8B442444          mov eax,[esp+0x44]
0000210A  A3A88C1000        mov [0x108ca8],eax
0000210F  8B442448          mov eax,[esp+0x48]
00002113  A3A48C1000        mov [0x108ca4],eax
00002118  C705EC8C10000B00  mov dword [dword 0x108cec],0xb
         -0000
00002122  C705F48C10001300  mov dword [dword 0x108cf4],0x13
         -0000
0000212C  C705E88C10001300  mov dword [dword 0x108ce8],0x13
         -0000
00002136  C705F88C10001300  mov dword [dword 0x108cf8],0x13
         -0000
00002140  C705FC8C10001300  mov dword [dword 0x108cfc],0x13
         -0000
0000214A  C705F08C10001300  mov dword [dword 0x108cf0],0x13
         -0000
00002154  66B82800          mov ax,0x28
00002158  0F00D8            ltr ax
0000215B  90                nop
0000215C  83C43C            add esp,byte +0x3c
0000215F  C3                ret
00002160  8B442404          mov eax,[esp+0x4]
00002164  A3A88C1000        mov [0x108ca8],eax
00002169  8B442408          mov eax,[esp+0x8]
0000216D  A3A48C1000        mov [0x108ca4],eax
00002172  90                nop
00002173  C3                ret
00002174  55                push ebp
00002175  57                push edi
00002176  56                push esi
00002177  53                push ebx
00002178  83EC04            sub esp,byte +0x4
0000217B  8B442418          mov eax,[esp+0x18]
0000217F  83C004            add eax,byte +0x4
00002182  890424            mov [esp],eax
00002185  8B442418          mov eax,[esp+0x18]
00002189  8D6808            lea ebp,[eax+0x8]
0000218C  8B442418          mov eax,[esp+0x18]
00002190  8D780C            lea edi,[eax+0xc]
00002193  8B44241C          mov eax,[esp+0x1c]
00002197  0FA2              cpuid
00002199  89C6              mov esi,eax
0000219B  8B442418          mov eax,[esp+0x18]
0000219F  8930              mov [eax],esi
000021A1  8B0424            mov eax,[esp]
000021A4  8918              mov [eax],ebx
000021A6  894D00            mov [ebp+0x0],ecx
000021A9  8917              mov [edi],edx
000021AB  90                nop
000021AC  83C404            add esp,byte +0x4
000021AF  5B                pop ebx
000021B0  5E                pop esi
000021B1  5F                pop edi
000021B2  5D                pop ebp
000021B3  C3                ret
000021B4  55                push ebp
000021B5  57                push edi
000021B6  56                push esi
000021B7  53                push ebx
000021B8  83EC04            sub esp,byte +0x4
000021BB  8B442418          mov eax,[esp+0x18]
000021BF  83C004            add eax,byte +0x4
000021C2  890424            mov [esp],eax
000021C5  8B442418          mov eax,[esp+0x18]
000021C9  8D6808            lea ebp,[eax+0x8]
000021CC  8B442418          mov eax,[esp+0x18]
000021D0  8D780C            lea edi,[eax+0xc]
000021D3  8B44241C          mov eax,[esp+0x1c]
000021D7  8B542420          mov edx,[esp+0x20]
000021DB  89D1              mov ecx,edx
000021DD  0FA2              cpuid
000021DF  89C6              mov esi,eax
000021E1  8B442418          mov eax,[esp+0x18]
000021E5  8930              mov [eax],esi
000021E7  8B0424            mov eax,[esp]
000021EA  8918              mov [eax],ebx
000021EC  894D00            mov [ebp+0x0],ecx
000021EF  8917              mov [edi],edx
000021F1  90                nop
000021F2  83C404            add esp,byte +0x4
000021F5  5B                pop ebx
000021F6  5E                pop esi
000021F7  5F                pop edi
000021F8  5D                pop ebp
000021F9  C3                ret
000021FA  83EC3C            sub esp,byte +0x3c
000021FD  C744241800000000  mov dword [esp+0x18],0x0
00002205  C744241C00000000  mov dword [esp+0x1c],0x0
0000220D  C744242000000000  mov dword [esp+0x20],0x0
00002215  C744242400000000  mov dword [esp+0x24],0x0
0000221D  C7442418FFFFFFFF  mov dword [esp+0x18],0xffffffff
00002225  C744240400000000  mov dword [esp+0x4],0x0
0000222D  8D442418          lea eax,[esp+0x18]
00002231  890424            mov [esp],eax
00002234  E83BFFFFFF        call 0x2174
00002239  8B442418          mov eax,[esp+0x18]
0000223D  8944242C          mov [esp+0x2c],eax
00002241  837C242C00        cmp dword [esp+0x2c],byte +0x0
00002246  750C              jnz 0x2254
00002248  C70424BC331000    mov dword [esp],0x1033bc
0000224F  E8A2F2FFFF        call 0x14f6
00002254  837C242C00        cmp dword [esp+0x2c],byte +0x0
00002259  7467              jz 0x22c2
0000225B  C744240401000000  mov dword [esp+0x4],0x1
00002263  8D442418          lea eax,[esp+0x18]
00002267  890424            mov [esp],eax
0000226A  E805FFFFFF        call 0x2174
0000226F  8B442418          mov eax,[esp+0x18]
00002273  C1F808            sar eax,byte 0x8
00002276  83E00F            and eax,byte +0xf
00002279  89442428          mov [esp+0x28],eax
0000227D  837C242804        cmp dword [esp+0x28],byte +0x4
00002282  7F16              jg 0x229a
00002284  8B442428          mov eax,[esp+0x28]
00002288  89442404          mov [esp+0x4],eax
0000228C  C704240C341000    mov dword [esp],0x10340c
00002293  E85EF2FFFF        call 0x14f6
00002298  EB14              jmp short 0x22ae
0000229A  8B442428          mov eax,[esp+0x28]
0000229E  89442404          mov [esp+0x4],eax
000022A2  C7042434341000    mov dword [esp],0x103434
000022A9  E848F2FFFF        call 0x14f6
000022AE  8B442428          mov eax,[esp+0x28]
000022B2  89442404          mov [esp+0x4],eax
000022B6  C7042460341000    mov dword [esp],0x103460
000022BD  E834F2FFFF        call 0x14f6
000022C2  90                nop
000022C3  83C43C            add esp,byte +0x3c
000022C6  C3                ret
000022C7  83EC0C            sub esp,byte +0xc
000022CA  E82BFFFFFF        call 0x21fa
000022CF  90                nop
000022D0  83C40C            add esp,byte +0xc
000022D3  C3                ret
000022D4  83EC1C            sub esp,byte +0x1c
000022D7  8B442420          mov eax,[esp+0x20]
000022DB  C1E80C            shr eax,byte 0xc
000022DE  A3088D1000        mov [0x108d08],eax
000022E3  A1088D1000        mov eax,[0x108d08]
000022E8  C1E803            shr eax,byte 0x3
000022EB  A30C8D1000        mov [0x108d0c],eax
000022F0  A10C8D1000        mov eax,[0x108d0c]
000022F5  8D14C500000000    lea edx,[eax*8+0x0]
000022FC  A1088D1000        mov eax,[0x108d08]
00002301  39C2              cmp edx,eax
00002303  730D              jnc 0x2312
00002305  A10C8D1000        mov eax,[0x108d0c]
0000230A  83C001            add eax,byte +0x1
0000230D  A30C8D1000        mov [0x108d0c],eax
00002312  A10C8D1000        mov eax,[0x108d0c]
00002317  89C2              mov edx,eax
00002319  A180401000        mov eax,[0x104080]
0000231E  89542408          mov [esp+0x8],edx
00002322  C744240400000000  mov dword [esp+0x4],0x0
0000232A  890424            mov [esp],eax
0000232D  E81EE4FFFF        call 0x750
00002332  8B1580401000      mov edx,[dword 0x104080]
00002338  A10C8D1000        mov eax,[0x108d0c]
0000233D  01D0              add eax,edx
0000233F  2500F0FFFF        and eax,0xfffff000
00002344  0500100000        add eax,0x1000
00002349  A3108D1000        mov [0x108d10],eax
0000234E  8B442420          mov eax,[esp+0x20]
00002352  C1E814            shr eax,byte 0x14
00002355  89442404          mov [esp+0x4],eax
00002359  C7042498341000    mov dword [esp],0x103498
00002360  E891F1FFFF        call 0x14f6
00002365  A1088D1000        mov eax,[0x108d08]
0000236A  89442404          mov [esp+0x4],eax
0000236E  C70424AD341000    mov dword [esp],0x1034ad
00002375  E87CF1FFFF        call 0x14f6
0000237A  A180401000        mov eax,[0x104080]
0000237F  89442404          mov [esp+0x4],eax
00002383  C70424BF341000    mov dword [esp],0x1034bf
0000238A  E867F1FFFF        call 0x14f6
0000238F  A10C8D1000        mov eax,[0x108d0c]
00002394  89442404          mov [esp+0x4],eax
00002398  C70424D3341000    mov dword [esp],0x1034d3
0000239F  E852F1FFFF        call 0x14f6
000023A4  A1108D1000        mov eax,[0x108d10]
000023A9  89442404          mov [esp+0x4],eax
000023AD  C70424E5341000    mov dword [esp],0x1034e5
000023B4  E83DF1FFFF        call 0x14f6
000023B9  90                nop
000023BA  83C41C            add esp,byte +0x1c
000023BD  C3                ret
000023BE  90                nop
000023BF  90                nop
000023C0  0000              add [eax],al
000023C2  0000              add [eax],al
000023C4  0000              add [eax],al
000023C6  0000              add [eax],al
000023C8  0000              add [eax],al
000023CA  0000              add [eax],al
000023CC  0000              add [eax],al
000023CE  0000              add [eax],al
000023D0  0000              add [eax],al
000023D2  0000              add [eax],al
000023D4  0000              add [eax],al
000023D6  0000              add [eax],al
000023D8  0000              add [eax],al
000023DA  0000              add [eax],al
000023DC  0000              add [eax],al
000023DE  0000              add [eax],al
000023E0  0000              add [eax],al
000023E2  0000              add [eax],al
000023E4  0000              add [eax],al
000023E6  0000              add [eax],al
000023E8  0000              add [eax],al
000023EA  0000              add [eax],al
000023EC  0000              add [eax],al
000023EE  0000              add [eax],al
000023F0  0000              add [eax],al
000023F2  0000              add [eax],al
000023F4  0000              add [eax],al
000023F6  0000              add [eax],al
000023F8  0000              add [eax],al
000023FA  0000              add [eax],al
000023FC  0000              add [eax],al
000023FE  0000              add [eax],al
00002400  0000              add [eax],al
00002402  0000              add [eax],al
00002404  0000              add [eax],al
00002406  0000              add [eax],al
00002408  0000              add [eax],al
0000240A  0000              add [eax],al
0000240C  0000              add [eax],al
0000240E  0000              add [eax],al
00002410  0000              add [eax],al
00002412  0000              add [eax],al
00002414  0000              add [eax],al
00002416  0000              add [eax],al
00002418  0000              add [eax],al
0000241A  0000              add [eax],al
0000241C  0000              add [eax],al
0000241E  0000              add [eax],al
00002420  0000              add [eax],al
00002422  0000              add [eax],al
00002424  0000              add [eax],al
00002426  0000              add [eax],al
00002428  0000              add [eax],al
0000242A  0000              add [eax],al
0000242C  0000              add [eax],al
0000242E  0000              add [eax],al
00002430  0000              add [eax],al
00002432  0000              add [eax],al
00002434  0000              add [eax],al
00002436  0000              add [eax],al
00002438  0000              add [eax],al
0000243A  0000              add [eax],al
0000243C  0000              add [eax],al
0000243E  0000              add [eax],al
00002440  0000              add [eax],al
00002442  0000              add [eax],al
00002444  0000              add [eax],al
00002446  0000              add [eax],al
00002448  0000              add [eax],al
0000244A  0000              add [eax],al
0000244C  0000              add [eax],al
0000244E  0000              add [eax],al
00002450  0000              add [eax],al
00002452  0000              add [eax],al
00002454  0000              add [eax],al
00002456  0000              add [eax],al
00002458  0000              add [eax],al
0000245A  0000              add [eax],al
0000245C  0000              add [eax],al
0000245E  0000              add [eax],al
00002460  0000              add [eax],al
00002462  0000              add [eax],al
00002464  0000              add [eax],al
00002466  0000              add [eax],al
00002468  0000              add [eax],al
0000246A  0000              add [eax],al
0000246C  0000              add [eax],al
0000246E  0000              add [eax],al
00002470  0000              add [eax],al
00002472  0000              add [eax],al
00002474  0000              add [eax],al
00002476  0000              add [eax],al
00002478  0000              add [eax],al
0000247A  0000              add [eax],al
0000247C  0000              add [eax],al
0000247E  0000              add [eax],al
00002480  0000              add [eax],al
00002482  0000              add [eax],al
00002484  0000              add [eax],al
00002486  0000              add [eax],al
00002488  0000              add [eax],al
0000248A  0000              add [eax],al
0000248C  0000              add [eax],al
0000248E  0000              add [eax],al
00002490  0000              add [eax],al
00002492  0000              add [eax],al
00002494  0000              add [eax],al
00002496  0000              add [eax],al
00002498  0000              add [eax],al
0000249A  0000              add [eax],al
0000249C  0000              add [eax],al
0000249E  0000              add [eax],al
000024A0  0000              add [eax],al
000024A2  0000              add [eax],al
000024A4  0000              add [eax],al
000024A6  0000              add [eax],al
000024A8  0000              add [eax],al
000024AA  0000              add [eax],al
000024AC  0000              add [eax],al
000024AE  0000              add [eax],al
000024B0  0000              add [eax],al
000024B2  0000              add [eax],al
000024B4  0000              add [eax],al
000024B6  0000              add [eax],al
000024B8  0000              add [eax],al
000024BA  0000              add [eax],al
000024BC  0000              add [eax],al
000024BE  0000              add [eax],al
000024C0  0000              add [eax],al
000024C2  0000              add [eax],al
000024C4  0000              add [eax],al
000024C6  0000              add [eax],al
000024C8  0000              add [eax],al
000024CA  0000              add [eax],al
000024CC  0000              add [eax],al
000024CE  0000              add [eax],al
000024D0  0000              add [eax],al
000024D2  0000              add [eax],al
000024D4  0000              add [eax],al
000024D6  0000              add [eax],al
000024D8  0000              add [eax],al
000024DA  0000              add [eax],al
000024DC  0000              add [eax],al
000024DE  0000              add [eax],al
000024E0  0000              add [eax],al
000024E2  0000              add [eax],al
000024E4  0000              add [eax],al
000024E6  0000              add [eax],al
000024E8  0000              add [eax],al
000024EA  0000              add [eax],al
000024EC  0000              add [eax],al
000024EE  0000              add [eax],al
000024F0  0000              add [eax],al
000024F2  0000              add [eax],al
000024F4  0000              add [eax],al
000024F6  0000              add [eax],al
000024F8  0000              add [eax],al
000024FA  0000              add [eax],al
000024FC  0000              add [eax],al
000024FE  0000              add [eax],al
00002500  0000              add [eax],al
00002502  0000              add [eax],al
00002504  0000              add [eax],al
00002506  0000              add [eax],al
00002508  0000              add [eax],al
0000250A  0000              add [eax],al
0000250C  0000              add [eax],al
0000250E  0000              add [eax],al
00002510  0000              add [eax],al
00002512  0000              add [eax],al
00002514  0000              add [eax],al
00002516  0000              add [eax],al
00002518  0000              add [eax],al
0000251A  0000              add [eax],al
0000251C  0000              add [eax],al
0000251E  0000              add [eax],al
00002520  0000              add [eax],al
00002522  0000              add [eax],al
00002524  0000              add [eax],al
00002526  0000              add [eax],al
00002528  0000              add [eax],al
0000252A  0000              add [eax],al
0000252C  0000              add [eax],al
0000252E  0000              add [eax],al
00002530  0000              add [eax],al
00002532  0000              add [eax],al
00002534  0000              add [eax],al
00002536  0000              add [eax],al
00002538  0000              add [eax],al
0000253A  0000              add [eax],al
0000253C  0000              add [eax],al
0000253E  0000              add [eax],al
00002540  0000              add [eax],al
00002542  0000              add [eax],al
00002544  0000              add [eax],al
00002546  0000              add [eax],al
00002548  0000              add [eax],al
0000254A  0000              add [eax],al
0000254C  0000              add [eax],al
0000254E  0000              add [eax],al
00002550  0000              add [eax],al
00002552  0000              add [eax],al
00002554  0000              add [eax],al
00002556  0000              add [eax],al
00002558  0000              add [eax],al
0000255A  0000              add [eax],al
0000255C  0000              add [eax],al
0000255E  0000              add [eax],al
00002560  0000              add [eax],al
00002562  0000              add [eax],al
00002564  0000              add [eax],al
00002566  0000              add [eax],al
00002568  0000              add [eax],al
0000256A  0000              add [eax],al
0000256C  0000              add [eax],al
0000256E  0000              add [eax],al
00002570  0000              add [eax],al
00002572  0000              add [eax],al
00002574  0000              add [eax],al
00002576  0000              add [eax],al
00002578  0000              add [eax],al
0000257A  0000              add [eax],al
0000257C  0000              add [eax],al
0000257E  0000              add [eax],al
00002580  0000              add [eax],al
00002582  0000              add [eax],al
00002584  0000              add [eax],al
00002586  0000              add [eax],al
00002588  0000              add [eax],al
0000258A  0000              add [eax],al
0000258C  0000              add [eax],al
0000258E  0000              add [eax],al
00002590  0000              add [eax],al
00002592  0000              add [eax],al
00002594  0000              add [eax],al
00002596  0000              add [eax],al
00002598  0000              add [eax],al
0000259A  0000              add [eax],al
0000259C  0000              add [eax],al
0000259E  0000              add [eax],al
000025A0  0000              add [eax],al
000025A2  0000              add [eax],al
000025A4  0000              add [eax],al
000025A6  0000              add [eax],al
000025A8  0000              add [eax],al
000025AA  0000              add [eax],al
000025AC  0000              add [eax],al
000025AE  0000              add [eax],al
000025B0  0000              add [eax],al
000025B2  0000              add [eax],al
000025B4  0000              add [eax],al
000025B6  0000              add [eax],al
000025B8  0000              add [eax],al
000025BA  0000              add [eax],al
000025BC  0000              add [eax],al
000025BE  0000              add [eax],al
000025C0  0000              add [eax],al
000025C2  0000              add [eax],al
000025C4  0000              add [eax],al
000025C6  0000              add [eax],al
000025C8  0000              add [eax],al
000025CA  0000              add [eax],al
000025CC  0000              add [eax],al
000025CE  0000              add [eax],al
000025D0  0000              add [eax],al
000025D2  0000              add [eax],al
000025D4  0000              add [eax],al
000025D6  0000              add [eax],al
000025D8  0000              add [eax],al
000025DA  0000              add [eax],al
000025DC  0000              add [eax],al
000025DE  0000              add [eax],al
000025E0  0000              add [eax],al
000025E2  0000              add [eax],al
000025E4  0000              add [eax],al
000025E6  0000              add [eax],al
000025E8  0000              add [eax],al
000025EA  0000              add [eax],al
000025EC  0000              add [eax],al
000025EE  0000              add [eax],al
000025F0  0000              add [eax],al
000025F2  0000              add [eax],al
000025F4  0000              add [eax],al
000025F6  0000              add [eax],al
000025F8  0000              add [eax],al
000025FA  0000              add [eax],al
000025FC  0000              add [eax],al
000025FE  0000              add [eax],al
00002600  0000              add [eax],al
00002602  0000              add [eax],al
00002604  0000              add [eax],al
00002606  0000              add [eax],al
00002608  0000              add [eax],al
0000260A  0000              add [eax],al
0000260C  0000              add [eax],al
0000260E  0000              add [eax],al
00002610  0000              add [eax],al
00002612  0000              add [eax],al
00002614  0000              add [eax],al
00002616  0000              add [eax],al
00002618  0000              add [eax],al
0000261A  0000              add [eax],al
0000261C  0000              add [eax],al
0000261E  0000              add [eax],al
00002620  0000              add [eax],al
00002622  0000              add [eax],al
00002624  0000              add [eax],al
00002626  0000              add [eax],al
00002628  0000              add [eax],al
0000262A  0000              add [eax],al
0000262C  0000              add [eax],al
0000262E  0000              add [eax],al
00002630  0000              add [eax],al
00002632  0000              add [eax],al
00002634  0000              add [eax],al
00002636  0000              add [eax],al
00002638  0000              add [eax],al
0000263A  0000              add [eax],al
0000263C  0000              add [eax],al
0000263E  0000              add [eax],al
00002640  0000              add [eax],al
00002642  0000              add [eax],al
00002644  0000              add [eax],al
00002646  0000              add [eax],al
00002648  0000              add [eax],al
0000264A  0000              add [eax],al
0000264C  0000              add [eax],al
0000264E  0000              add [eax],al
00002650  0000              add [eax],al
00002652  0000              add [eax],al
00002654  0000              add [eax],al
00002656  0000              add [eax],al
00002658  0000              add [eax],al
0000265A  0000              add [eax],al
0000265C  0000              add [eax],al
0000265E  0000              add [eax],al
00002660  0000              add [eax],al
00002662  0000              add [eax],al
00002664  0000              add [eax],al
00002666  0000              add [eax],al
00002668  0000              add [eax],al
0000266A  0000              add [eax],al
0000266C  0000              add [eax],al
0000266E  0000              add [eax],al
00002670  0000              add [eax],al
00002672  0000              add [eax],al
00002674  0000              add [eax],al
00002676  0000              add [eax],al
00002678  0000              add [eax],al
0000267A  0000              add [eax],al
0000267C  0000              add [eax],al
0000267E  0000              add [eax],al
00002680  0000              add [eax],al
00002682  0000              add [eax],al
00002684  0000              add [eax],al
00002686  0000              add [eax],al
00002688  0000              add [eax],al
0000268A  0000              add [eax],al
0000268C  0000              add [eax],al
0000268E  0000              add [eax],al
00002690  0000              add [eax],al
00002692  0000              add [eax],al
00002694  0000              add [eax],al
00002696  0000              add [eax],al
00002698  0000              add [eax],al
0000269A  0000              add [eax],al
0000269C  0000              add [eax],al
0000269E  0000              add [eax],al
000026A0  0000              add [eax],al
000026A2  0000              add [eax],al
000026A4  0000              add [eax],al
000026A6  0000              add [eax],al
000026A8  0000              add [eax],al
000026AA  0000              add [eax],al
000026AC  0000              add [eax],al
000026AE  0000              add [eax],al
000026B0  0000              add [eax],al
000026B2  0000              add [eax],al
000026B4  0000              add [eax],al
000026B6  0000              add [eax],al
000026B8  0000              add [eax],al
000026BA  0000              add [eax],al
000026BC  0000              add [eax],al
000026BE  0000              add [eax],al
000026C0  0000              add [eax],al
000026C2  0000              add [eax],al
000026C4  0000              add [eax],al
000026C6  0000              add [eax],al
000026C8  0000              add [eax],al
000026CA  0000              add [eax],al
000026CC  0000              add [eax],al
000026CE  0000              add [eax],al
000026D0  0000              add [eax],al
000026D2  0000              add [eax],al
000026D4  0000              add [eax],al
000026D6  0000              add [eax],al
000026D8  0000              add [eax],al
000026DA  0000              add [eax],al
000026DC  0000              add [eax],al
000026DE  0000              add [eax],al
000026E0  0000              add [eax],al
000026E2  0000              add [eax],al
000026E4  0000              add [eax],al
000026E6  0000              add [eax],al
000026E8  0000              add [eax],al
000026EA  0000              add [eax],al
000026EC  0000              add [eax],al
000026EE  0000              add [eax],al
000026F0  0000              add [eax],al
000026F2  0000              add [eax],al
000026F4  0000              add [eax],al
000026F6  0000              add [eax],al
000026F8  0000              add [eax],al
000026FA  0000              add [eax],al
000026FC  0000              add [eax],al
000026FE  0000              add [eax],al
00002700  0000              add [eax],al
00002702  0000              add [eax],al
00002704  0000              add [eax],al
00002706  0000              add [eax],al
00002708  0000              add [eax],al
0000270A  0000              add [eax],al
0000270C  0000              add [eax],al
0000270E  0000              add [eax],al
00002710  0000              add [eax],al
00002712  0000              add [eax],al
00002714  0000              add [eax],al
00002716  0000              add [eax],al
00002718  0000              add [eax],al
0000271A  0000              add [eax],al
0000271C  0000              add [eax],al
0000271E  0000              add [eax],al
00002720  0000              add [eax],al
00002722  0000              add [eax],al
00002724  0000              add [eax],al
00002726  0000              add [eax],al
00002728  0000              add [eax],al
0000272A  0000              add [eax],al
0000272C  0000              add [eax],al
0000272E  0000              add [eax],al
00002730  0000              add [eax],al
00002732  0000              add [eax],al
00002734  0000              add [eax],al
00002736  0000              add [eax],al
00002738  0000              add [eax],al
0000273A  0000              add [eax],al
0000273C  0000              add [eax],al
0000273E  0000              add [eax],al
00002740  0000              add [eax],al
00002742  0000              add [eax],al
00002744  0000              add [eax],al
00002746  0000              add [eax],al
00002748  0000              add [eax],al
0000274A  0000              add [eax],al
0000274C  0000              add [eax],al
0000274E  0000              add [eax],al
00002750  0000              add [eax],al
00002752  0000              add [eax],al
00002754  0000              add [eax],al
00002756  0000              add [eax],al
00002758  0000              add [eax],al
0000275A  0000              add [eax],al
0000275C  0000              add [eax],al
0000275E  0000              add [eax],al
00002760  0000              add [eax],al
00002762  0000              add [eax],al
00002764  0000              add [eax],al
00002766  0000              add [eax],al
00002768  0000              add [eax],al
0000276A  0000              add [eax],al
0000276C  0000              add [eax],al
0000276E  0000              add [eax],al
00002770  0000              add [eax],al
00002772  0000              add [eax],al
00002774  0000              add [eax],al
00002776  0000              add [eax],al
00002778  0000              add [eax],al
0000277A  0000              add [eax],al
0000277C  0000              add [eax],al
0000277E  0000              add [eax],al
00002780  0000              add [eax],al
00002782  0000              add [eax],al
00002784  0000              add [eax],al
00002786  0000              add [eax],al
00002788  0000              add [eax],al
0000278A  0000              add [eax],al
0000278C  0000              add [eax],al
0000278E  0000              add [eax],al
00002790  0000              add [eax],al
00002792  0000              add [eax],al
00002794  0000              add [eax],al
00002796  0000              add [eax],al
00002798  0000              add [eax],al
0000279A  0000              add [eax],al
0000279C  0000              add [eax],al
0000279E  0000              add [eax],al
000027A0  0000              add [eax],al
000027A2  0000              add [eax],al
000027A4  0000              add [eax],al
000027A6  0000              add [eax],al
000027A8  0000              add [eax],al
000027AA  0000              add [eax],al
000027AC  0000              add [eax],al
000027AE  0000              add [eax],al
000027B0  0000              add [eax],al
000027B2  0000              add [eax],al
000027B4  0000              add [eax],al
000027B6  0000              add [eax],al
000027B8  0000              add [eax],al
000027BA  0000              add [eax],al
000027BC  0000              add [eax],al
000027BE  0000              add [eax],al
000027C0  0000              add [eax],al
000027C2  0000              add [eax],al
000027C4  0000              add [eax],al
000027C6  0000              add [eax],al
000027C8  0000              add [eax],al
000027CA  0000              add [eax],al
000027CC  0000              add [eax],al
000027CE  0000              add [eax],al
000027D0  0000              add [eax],al
000027D2  0000              add [eax],al
000027D4  0000              add [eax],al
000027D6  0000              add [eax],al
000027D8  0000              add [eax],al
000027DA  0000              add [eax],al
000027DC  0000              add [eax],al
000027DE  0000              add [eax],al
000027E0  0000              add [eax],al
000027E2  0000              add [eax],al
000027E4  0000              add [eax],al
000027E6  0000              add [eax],al
000027E8  0000              add [eax],al
000027EA  0000              add [eax],al
000027EC  0000              add [eax],al
000027EE  0000              add [eax],al
000027F0  0000              add [eax],al
000027F2  0000              add [eax],al
000027F4  0000              add [eax],al
000027F6  0000              add [eax],al
000027F8  0000              add [eax],al
000027FA  0000              add [eax],al
000027FC  0000              add [eax],al
000027FE  0000              add [eax],al
00002800  0000              add [eax],al
00002802  0000              add [eax],al
00002804  0000              add [eax],al
00002806  0000              add [eax],al
00002808  0000              add [eax],al
0000280A  0000              add [eax],al
0000280C  0000              add [eax],al
0000280E  0000              add [eax],al
00002810  0000              add [eax],al
00002812  0000              add [eax],al
00002814  0000              add [eax],al
00002816  0000              add [eax],al
00002818  0000              add [eax],al
0000281A  0000              add [eax],al
0000281C  0000              add [eax],al
0000281E  0000              add [eax],al
00002820  0000              add [eax],al
00002822  0000              add [eax],al
00002824  0000              add [eax],al
00002826  0000              add [eax],al
00002828  0000              add [eax],al
0000282A  0000              add [eax],al
0000282C  0000              add [eax],al
0000282E  0000              add [eax],al
00002830  0000              add [eax],al
00002832  0000              add [eax],al
00002834  0000              add [eax],al
00002836  0000              add [eax],al
00002838  0000              add [eax],al
0000283A  0000              add [eax],al
0000283C  0000              add [eax],al
0000283E  0000              add [eax],al
00002840  0000              add [eax],al
00002842  0000              add [eax],al
00002844  0000              add [eax],al
00002846  0000              add [eax],al
00002848  0000              add [eax],al
0000284A  0000              add [eax],al
0000284C  0000              add [eax],al
0000284E  0000              add [eax],al
00002850  0000              add [eax],al
00002852  0000              add [eax],al
00002854  0000              add [eax],al
00002856  0000              add [eax],al
00002858  0000              add [eax],al
0000285A  0000              add [eax],al
0000285C  0000              add [eax],al
0000285E  0000              add [eax],al
00002860  0000              add [eax],al
00002862  0000              add [eax],al
00002864  0000              add [eax],al
00002866  0000              add [eax],al
00002868  0000              add [eax],al
0000286A  0000              add [eax],al
0000286C  0000              add [eax],al
0000286E  0000              add [eax],al
00002870  0000              add [eax],al
00002872  0000              add [eax],al
00002874  0000              add [eax],al
00002876  0000              add [eax],al
00002878  0000              add [eax],al
0000287A  0000              add [eax],al
0000287C  0000              add [eax],al
0000287E  0000              add [eax],al
00002880  0000              add [eax],al
00002882  0000              add [eax],al
00002884  0000              add [eax],al
00002886  0000              add [eax],al
00002888  0000              add [eax],al
0000288A  0000              add [eax],al
0000288C  0000              add [eax],al
0000288E  0000              add [eax],al
00002890  0000              add [eax],al
00002892  0000              add [eax],al
00002894  0000              add [eax],al
00002896  0000              add [eax],al
00002898  0000              add [eax],al
0000289A  0000              add [eax],al
0000289C  0000              add [eax],al
0000289E  0000              add [eax],al
000028A0  0000              add [eax],al
000028A2  0000              add [eax],al
000028A4  0000              add [eax],al
000028A6  0000              add [eax],al
000028A8  0000              add [eax],al
000028AA  0000              add [eax],al
000028AC  0000              add [eax],al
000028AE  0000              add [eax],al
000028B0  0000              add [eax],al
000028B2  0000              add [eax],al
000028B4  0000              add [eax],al
000028B6  0000              add [eax],al
000028B8  0000              add [eax],al
000028BA  0000              add [eax],al
000028BC  0000              add [eax],al
000028BE  0000              add [eax],al
000028C0  0000              add [eax],al
000028C2  0000              add [eax],al
000028C4  0000              add [eax],al
000028C6  0000              add [eax],al
000028C8  0000              add [eax],al
000028CA  0000              add [eax],al
000028CC  0000              add [eax],al
000028CE  0000              add [eax],al
000028D0  0000              add [eax],al
000028D2  0000              add [eax],al
000028D4  0000              add [eax],al
000028D6  0000              add [eax],al
000028D8  0000              add [eax],al
000028DA  0000              add [eax],al
000028DC  0000              add [eax],al
000028DE  0000              add [eax],al
000028E0  0000              add [eax],al
000028E2  0000              add [eax],al
000028E4  0000              add [eax],al
000028E6  0000              add [eax],al
000028E8  0000              add [eax],al
000028EA  0000              add [eax],al
000028EC  0000              add [eax],al
000028EE  0000              add [eax],al
000028F0  0000              add [eax],al
000028F2  0000              add [eax],al
000028F4  0000              add [eax],al
000028F6  0000              add [eax],al
000028F8  0000              add [eax],al
000028FA  0000              add [eax],al
000028FC  0000              add [eax],al
000028FE  0000              add [eax],al
00002900  0000              add [eax],al
00002902  0000              add [eax],al
00002904  0000              add [eax],al
00002906  0000              add [eax],al
00002908  0000              add [eax],al
0000290A  0000              add [eax],al
0000290C  0000              add [eax],al
0000290E  0000              add [eax],al
00002910  0000              add [eax],al
00002912  0000              add [eax],al
00002914  0000              add [eax],al
00002916  0000              add [eax],al
00002918  0000              add [eax],al
0000291A  0000              add [eax],al
0000291C  0000              add [eax],al
0000291E  0000              add [eax],al
00002920  0000              add [eax],al
00002922  0000              add [eax],al
00002924  0000              add [eax],al
00002926  0000              add [eax],al
00002928  0000              add [eax],al
0000292A  0000              add [eax],al
0000292C  0000              add [eax],al
0000292E  0000              add [eax],al
00002930  0000              add [eax],al
00002932  0000              add [eax],al
00002934  0000              add [eax],al
00002936  0000              add [eax],al
00002938  0000              add [eax],al
0000293A  0000              add [eax],al
0000293C  0000              add [eax],al
0000293E  0000              add [eax],al
00002940  0000              add [eax],al
00002942  0000              add [eax],al
00002944  0000              add [eax],al
00002946  0000              add [eax],al
00002948  0000              add [eax],al
0000294A  0000              add [eax],al
0000294C  0000              add [eax],al
0000294E  0000              add [eax],al
00002950  0000              add [eax],al
00002952  0000              add [eax],al
00002954  0000              add [eax],al
00002956  0000              add [eax],al
00002958  0000              add [eax],al
0000295A  0000              add [eax],al
0000295C  0000              add [eax],al
0000295E  0000              add [eax],al
00002960  0000              add [eax],al
00002962  0000              add [eax],al
00002964  0000              add [eax],al
00002966  0000              add [eax],al
00002968  0000              add [eax],al
0000296A  0000              add [eax],al
0000296C  0000              add [eax],al
0000296E  0000              add [eax],al
00002970  0000              add [eax],al
00002972  0000              add [eax],al
00002974  0000              add [eax],al
00002976  0000              add [eax],al
00002978  0000              add [eax],al
0000297A  0000              add [eax],al
0000297C  0000              add [eax],al
0000297E  0000              add [eax],al
00002980  0000              add [eax],al
00002982  0000              add [eax],al
00002984  0000              add [eax],al
00002986  0000              add [eax],al
00002988  0000              add [eax],al
0000298A  0000              add [eax],al
0000298C  0000              add [eax],al
0000298E  0000              add [eax],al
00002990  0000              add [eax],al
00002992  0000              add [eax],al
00002994  0000              add [eax],al
00002996  0000              add [eax],al
00002998  0000              add [eax],al
0000299A  0000              add [eax],al
0000299C  0000              add [eax],al
0000299E  0000              add [eax],al
000029A0  0000              add [eax],al
000029A2  0000              add [eax],al
000029A4  0000              add [eax],al
000029A6  0000              add [eax],al
000029A8  0000              add [eax],al
000029AA  0000              add [eax],al
000029AC  0000              add [eax],al
000029AE  0000              add [eax],al
000029B0  0000              add [eax],al
000029B2  0000              add [eax],al
000029B4  0000              add [eax],al
000029B6  0000              add [eax],al
000029B8  0000              add [eax],al
000029BA  0000              add [eax],al
000029BC  0000              add [eax],al
000029BE  0000              add [eax],al
000029C0  0000              add [eax],al
000029C2  0000              add [eax],al
000029C4  0000              add [eax],al
000029C6  0000              add [eax],al
000029C8  0000              add [eax],al
000029CA  0000              add [eax],al
000029CC  0000              add [eax],al
000029CE  0000              add [eax],al
000029D0  0000              add [eax],al
000029D2  0000              add [eax],al
000029D4  0000              add [eax],al
000029D6  0000              add [eax],al
000029D8  0000              add [eax],al
000029DA  0000              add [eax],al
000029DC  0000              add [eax],al
000029DE  0000              add [eax],al
000029E0  0000              add [eax],al
000029E2  0000              add [eax],al
000029E4  0000              add [eax],al
000029E6  0000              add [eax],al
000029E8  0000              add [eax],al
000029EA  0000              add [eax],al
000029EC  0000              add [eax],al
000029EE  0000              add [eax],al
000029F0  0000              add [eax],al
000029F2  0000              add [eax],al
000029F4  0000              add [eax],al
000029F6  0000              add [eax],al
000029F8  0000              add [eax],al
000029FA  0000              add [eax],al
000029FC  0000              add [eax],al
000029FE  0000              add [eax],al
00002A00  0000              add [eax],al
00002A02  0000              add [eax],al
00002A04  0000              add [eax],al
00002A06  0000              add [eax],al
00002A08  0000              add [eax],al
00002A0A  0000              add [eax],al
00002A0C  0000              add [eax],al
00002A0E  0000              add [eax],al
00002A10  0000              add [eax],al
00002A12  0000              add [eax],al
00002A14  0000              add [eax],al
00002A16  0000              add [eax],al
00002A18  0000              add [eax],al
00002A1A  0000              add [eax],al
00002A1C  0000              add [eax],al
00002A1E  0000              add [eax],al
00002A20  0000              add [eax],al
00002A22  0000              add [eax],al
00002A24  0000              add [eax],al
00002A26  0000              add [eax],al
00002A28  0000              add [eax],al
00002A2A  0000              add [eax],al
00002A2C  0000              add [eax],al
00002A2E  0000              add [eax],al
00002A30  0000              add [eax],al
00002A32  0000              add [eax],al
00002A34  0000              add [eax],al
00002A36  0000              add [eax],al
00002A38  0000              add [eax],al
00002A3A  0000              add [eax],al
00002A3C  0000              add [eax],al
00002A3E  0000              add [eax],al
00002A40  0000              add [eax],al
00002A42  0000              add [eax],al
00002A44  0000              add [eax],al
00002A46  0000              add [eax],al
00002A48  0000              add [eax],al
00002A4A  0000              add [eax],al
00002A4C  0000              add [eax],al
00002A4E  0000              add [eax],al
00002A50  0000              add [eax],al
00002A52  0000              add [eax],al
00002A54  0000              add [eax],al
00002A56  0000              add [eax],al
00002A58  0000              add [eax],al
00002A5A  0000              add [eax],al
00002A5C  0000              add [eax],al
00002A5E  0000              add [eax],al
00002A60  0000              add [eax],al
00002A62  0000              add [eax],al
00002A64  0000              add [eax],al
00002A66  0000              add [eax],al
00002A68  0000              add [eax],al
00002A6A  0000              add [eax],al
00002A6C  0000              add [eax],al
00002A6E  0000              add [eax],al
00002A70  0000              add [eax],al
00002A72  0000              add [eax],al
00002A74  0000              add [eax],al
00002A76  0000              add [eax],al
00002A78  0000              add [eax],al
00002A7A  0000              add [eax],al
00002A7C  0000              add [eax],al
00002A7E  0000              add [eax],al
00002A80  0000              add [eax],al
00002A82  0000              add [eax],al
00002A84  0000              add [eax],al
00002A86  0000              add [eax],al
00002A88  0000              add [eax],al
00002A8A  0000              add [eax],al
00002A8C  0000              add [eax],al
00002A8E  0000              add [eax],al
00002A90  0000              add [eax],al
00002A92  0000              add [eax],al
00002A94  0000              add [eax],al
00002A96  0000              add [eax],al
00002A98  0000              add [eax],al
00002A9A  0000              add [eax],al
00002A9C  0000              add [eax],al
00002A9E  0000              add [eax],al
00002AA0  0000              add [eax],al
00002AA2  0000              add [eax],al
00002AA4  0000              add [eax],al
00002AA6  0000              add [eax],al
00002AA8  0000              add [eax],al
00002AAA  0000              add [eax],al
00002AAC  0000              add [eax],al
00002AAE  0000              add [eax],al
00002AB0  0000              add [eax],al
00002AB2  0000              add [eax],al
00002AB4  0000              add [eax],al
00002AB6  0000              add [eax],al
00002AB8  0000              add [eax],al
00002ABA  0000              add [eax],al
00002ABC  0000              add [eax],al
00002ABE  0000              add [eax],al
00002AC0  0000              add [eax],al
00002AC2  0000              add [eax],al
00002AC4  0000              add [eax],al
00002AC6  0000              add [eax],al
00002AC8  0000              add [eax],al
00002ACA  0000              add [eax],al
00002ACC  0000              add [eax],al
00002ACE  0000              add [eax],al
00002AD0  0000              add [eax],al
00002AD2  0000              add [eax],al
00002AD4  0000              add [eax],al
00002AD6  0000              add [eax],al
00002AD8  0000              add [eax],al
00002ADA  0000              add [eax],al
00002ADC  0000              add [eax],al
00002ADE  0000              add [eax],al
00002AE0  0000              add [eax],al
00002AE2  0000              add [eax],al
00002AE4  0000              add [eax],al
00002AE6  0000              add [eax],al
00002AE8  0000              add [eax],al
00002AEA  0000              add [eax],al
00002AEC  0000              add [eax],al
00002AEE  0000              add [eax],al
00002AF0  0000              add [eax],al
00002AF2  0000              add [eax],al
00002AF4  0000              add [eax],al
00002AF6  0000              add [eax],al
00002AF8  0000              add [eax],al
00002AFA  0000              add [eax],al
00002AFC  0000              add [eax],al
00002AFE  0000              add [eax],al
00002B00  0000              add [eax],al
00002B02  0000              add [eax],al
00002B04  0000              add [eax],al
00002B06  0000              add [eax],al
00002B08  0000              add [eax],al
00002B0A  0000              add [eax],al
00002B0C  0000              add [eax],al
00002B0E  0000              add [eax],al
00002B10  0000              add [eax],al
00002B12  0000              add [eax],al
00002B14  0000              add [eax],al
00002B16  0000              add [eax],al
00002B18  0000              add [eax],al
00002B1A  0000              add [eax],al
00002B1C  0000              add [eax],al
00002B1E  0000              add [eax],al
00002B20  0000              add [eax],al
00002B22  0000              add [eax],al
00002B24  0000              add [eax],al
00002B26  0000              add [eax],al
00002B28  0000              add [eax],al
00002B2A  0000              add [eax],al
00002B2C  0000              add [eax],al
00002B2E  0000              add [eax],al
00002B30  0000              add [eax],al
00002B32  0000              add [eax],al
00002B34  0000              add [eax],al
00002B36  0000              add [eax],al
00002B38  0000              add [eax],al
00002B3A  0000              add [eax],al
00002B3C  0000              add [eax],al
00002B3E  0000              add [eax],al
00002B40  0000              add [eax],al
00002B42  0000              add [eax],al
00002B44  0000              add [eax],al
00002B46  0000              add [eax],al
00002B48  0000              add [eax],al
00002B4A  0000              add [eax],al
00002B4C  0000              add [eax],al
00002B4E  0000              add [eax],al
00002B50  0000              add [eax],al
00002B52  0000              add [eax],al
00002B54  0000              add [eax],al
00002B56  0000              add [eax],al
00002B58  0000              add [eax],al
00002B5A  0000              add [eax],al
00002B5C  0000              add [eax],al
00002B5E  0000              add [eax],al
00002B60  0000              add [eax],al
00002B62  0000              add [eax],al
00002B64  0000              add [eax],al
00002B66  0000              add [eax],al
00002B68  0000              add [eax],al
00002B6A  0000              add [eax],al
00002B6C  0000              add [eax],al
00002B6E  0000              add [eax],al
00002B70  0000              add [eax],al
00002B72  0000              add [eax],al
00002B74  0000              add [eax],al
00002B76  0000              add [eax],al
00002B78  0000              add [eax],al
00002B7A  0000              add [eax],al
00002B7C  0000              add [eax],al
00002B7E  0000              add [eax],al
00002B80  0000              add [eax],al
00002B82  0000              add [eax],al
00002B84  0000              add [eax],al
00002B86  0000              add [eax],al
00002B88  0000              add [eax],al
00002B8A  0000              add [eax],al
00002B8C  0000              add [eax],al
00002B8E  0000              add [eax],al
00002B90  0000              add [eax],al
00002B92  0000              add [eax],al
00002B94  0000              add [eax],al
00002B96  0000              add [eax],al
00002B98  0000              add [eax],al
00002B9A  0000              add [eax],al
00002B9C  0000              add [eax],al
00002B9E  0000              add [eax],al
00002BA0  0000              add [eax],al
00002BA2  0000              add [eax],al
00002BA4  0000              add [eax],al
00002BA6  0000              add [eax],al
00002BA8  0000              add [eax],al
00002BAA  0000              add [eax],al
00002BAC  0000              add [eax],al
00002BAE  0000              add [eax],al
00002BB0  0000              add [eax],al
00002BB2  0000              add [eax],al
00002BB4  0000              add [eax],al
00002BB6  0000              add [eax],al
00002BB8  0000              add [eax],al
00002BBA  0000              add [eax],al
00002BBC  0000              add [eax],al
00002BBE  0000              add [eax],al
00002BC0  0000              add [eax],al
00002BC2  0000              add [eax],al
00002BC4  0000              add [eax],al
00002BC6  0000              add [eax],al
00002BC8  0000              add [eax],al
00002BCA  0000              add [eax],al
00002BCC  0000              add [eax],al
00002BCE  0000              add [eax],al
00002BD0  0000              add [eax],al
00002BD2  0000              add [eax],al
00002BD4  0000              add [eax],al
00002BD6  0000              add [eax],al
00002BD8  0000              add [eax],al
00002BDA  0000              add [eax],al
00002BDC  0000              add [eax],al
00002BDE  0000              add [eax],al
00002BE0  0000              add [eax],al
00002BE2  0000              add [eax],al
00002BE4  0000              add [eax],al
00002BE6  0000              add [eax],al
00002BE8  0000              add [eax],al
00002BEA  0000              add [eax],al
00002BEC  0000              add [eax],al
00002BEE  0000              add [eax],al
00002BF0  0000              add [eax],al
00002BF2  0000              add [eax],al
00002BF4  0000              add [eax],al
00002BF6  0000              add [eax],al
00002BF8  0000              add [eax],al
00002BFA  0000              add [eax],al
00002BFC  0000              add [eax],al
00002BFE  0000              add [eax],al
00002C00  0000              add [eax],al
00002C02  0000              add [eax],al
00002C04  0000              add [eax],al
00002C06  0000              add [eax],al
00002C08  0000              add [eax],al
00002C0A  0000              add [eax],al
00002C0C  0000              add [eax],al
00002C0E  0000              add [eax],al
00002C10  0000              add [eax],al
00002C12  0000              add [eax],al
00002C14  0000              add [eax],al
00002C16  0000              add [eax],al
00002C18  0000              add [eax],al
00002C1A  0000              add [eax],al
00002C1C  0000              add [eax],al
00002C1E  0000              add [eax],al
00002C20  0000              add [eax],al
00002C22  0000              add [eax],al
00002C24  0000              add [eax],al
00002C26  0000              add [eax],al
00002C28  0000              add [eax],al
00002C2A  0000              add [eax],al
00002C2C  0000              add [eax],al
00002C2E  0000              add [eax],al
00002C30  0000              add [eax],al
00002C32  0000              add [eax],al
00002C34  0000              add [eax],al
00002C36  0000              add [eax],al
00002C38  0000              add [eax],al
00002C3A  0000              add [eax],al
00002C3C  0000              add [eax],al
00002C3E  0000              add [eax],al
00002C40  0000              add [eax],al
00002C42  0000              add [eax],al
00002C44  0000              add [eax],al
00002C46  0000              add [eax],al
00002C48  0000              add [eax],al
00002C4A  0000              add [eax],al
00002C4C  0000              add [eax],al
00002C4E  0000              add [eax],al
00002C50  0000              add [eax],al
00002C52  0000              add [eax],al
00002C54  0000              add [eax],al
00002C56  0000              add [eax],al
00002C58  0000              add [eax],al
00002C5A  0000              add [eax],al
00002C5C  0000              add [eax],al
00002C5E  0000              add [eax],al
00002C60  0000              add [eax],al
00002C62  0000              add [eax],al
00002C64  0000              add [eax],al
00002C66  0000              add [eax],al
00002C68  0000              add [eax],al
00002C6A  0000              add [eax],al
00002C6C  0000              add [eax],al
00002C6E  0000              add [eax],al
00002C70  0000              add [eax],al
00002C72  0000              add [eax],al
00002C74  0000              add [eax],al
00002C76  0000              add [eax],al
00002C78  0000              add [eax],al
00002C7A  0000              add [eax],al
00002C7C  0000              add [eax],al
00002C7E  0000              add [eax],al
00002C80  0000              add [eax],al
00002C82  0000              add [eax],al
00002C84  0000              add [eax],al
00002C86  0000              add [eax],al
00002C88  0000              add [eax],al
00002C8A  0000              add [eax],al
00002C8C  0000              add [eax],al
00002C8E  0000              add [eax],al
00002C90  0000              add [eax],al
00002C92  0000              add [eax],al
00002C94  0000              add [eax],al
00002C96  0000              add [eax],al
00002C98  0000              add [eax],al
00002C9A  0000              add [eax],al
00002C9C  0000              add [eax],al
00002C9E  0000              add [eax],al
00002CA0  0000              add [eax],al
00002CA2  0000              add [eax],al
00002CA4  0000              add [eax],al
00002CA6  0000              add [eax],al
00002CA8  0000              add [eax],al
00002CAA  0000              add [eax],al
00002CAC  0000              add [eax],al
00002CAE  0000              add [eax],al
00002CB0  0000              add [eax],al
00002CB2  0000              add [eax],al
00002CB4  0000              add [eax],al
00002CB6  0000              add [eax],al
00002CB8  0000              add [eax],al
00002CBA  0000              add [eax],al
00002CBC  0000              add [eax],al
00002CBE  0000              add [eax],al
00002CC0  0000              add [eax],al
00002CC2  0000              add [eax],al
00002CC4  0000              add [eax],al
00002CC6  0000              add [eax],al
00002CC8  0000              add [eax],al
00002CCA  0000              add [eax],al
00002CCC  0000              add [eax],al
00002CCE  0000              add [eax],al
00002CD0  0000              add [eax],al
00002CD2  0000              add [eax],al
00002CD4  0000              add [eax],al
00002CD6  0000              add [eax],al
00002CD8  0000              add [eax],al
00002CDA  0000              add [eax],al
00002CDC  0000              add [eax],al
00002CDE  0000              add [eax],al
00002CE0  0000              add [eax],al
00002CE2  0000              add [eax],al
00002CE4  0000              add [eax],al
00002CE6  0000              add [eax],al
00002CE8  0000              add [eax],al
00002CEA  0000              add [eax],al
00002CEC  0000              add [eax],al
00002CEE  0000              add [eax],al
00002CF0  0000              add [eax],al
00002CF2  0000              add [eax],al
00002CF4  0000              add [eax],al
00002CF6  0000              add [eax],al
00002CF8  0000              add [eax],al
00002CFA  0000              add [eax],al
00002CFC  0000              add [eax],al
00002CFE  0000              add [eax],al
00002D00  0000              add [eax],al
00002D02  0000              add [eax],al
00002D04  0000              add [eax],al
00002D06  0000              add [eax],al
00002D08  0000              add [eax],al
00002D0A  0000              add [eax],al
00002D0C  0000              add [eax],al
00002D0E  0000              add [eax],al
00002D10  0000              add [eax],al
00002D12  0000              add [eax],al
00002D14  0000              add [eax],al
00002D16  0000              add [eax],al
00002D18  0000              add [eax],al
00002D1A  0000              add [eax],al
00002D1C  0000              add [eax],al
00002D1E  0000              add [eax],al
00002D20  0000              add [eax],al
00002D22  0000              add [eax],al
00002D24  0000              add [eax],al
00002D26  0000              add [eax],al
00002D28  0000              add [eax],al
00002D2A  0000              add [eax],al
00002D2C  0000              add [eax],al
00002D2E  0000              add [eax],al
00002D30  0000              add [eax],al
00002D32  0000              add [eax],al
00002D34  0000              add [eax],al
00002D36  0000              add [eax],al
00002D38  0000              add [eax],al
00002D3A  0000              add [eax],al
00002D3C  0000              add [eax],al
00002D3E  0000              add [eax],al
00002D40  0000              add [eax],al
00002D42  0000              add [eax],al
00002D44  0000              add [eax],al
00002D46  0000              add [eax],al
00002D48  0000              add [eax],al
00002D4A  0000              add [eax],al
00002D4C  0000              add [eax],al
00002D4E  0000              add [eax],al
00002D50  0000              add [eax],al
00002D52  0000              add [eax],al
00002D54  0000              add [eax],al
00002D56  0000              add [eax],al
00002D58  0000              add [eax],al
00002D5A  0000              add [eax],al
00002D5C  0000              add [eax],al
00002D5E  0000              add [eax],al
00002D60  0000              add [eax],al
00002D62  0000              add [eax],al
00002D64  0000              add [eax],al
00002D66  0000              add [eax],al
00002D68  0000              add [eax],al
00002D6A  0000              add [eax],al
00002D6C  0000              add [eax],al
00002D6E  0000              add [eax],al
00002D70  0000              add [eax],al
00002D72  0000              add [eax],al
00002D74  0000              add [eax],al
00002D76  0000              add [eax],al
00002D78  0000              add [eax],al
00002D7A  0000              add [eax],al
00002D7C  0000              add [eax],al
00002D7E  0000              add [eax],al
00002D80  0000              add [eax],al
00002D82  0000              add [eax],al
00002D84  0000              add [eax],al
00002D86  0000              add [eax],al
00002D88  0000              add [eax],al
00002D8A  0000              add [eax],al
00002D8C  0000              add [eax],al
00002D8E  0000              add [eax],al
00002D90  0000              add [eax],al
00002D92  0000              add [eax],al
00002D94  0000              add [eax],al
00002D96  0000              add [eax],al
00002D98  0000              add [eax],al
00002D9A  0000              add [eax],al
00002D9C  0000              add [eax],al
00002D9E  0000              add [eax],al
00002DA0  0000              add [eax],al
00002DA2  0000              add [eax],al
00002DA4  0000              add [eax],al
00002DA6  0000              add [eax],al
00002DA8  0000              add [eax],al
00002DAA  0000              add [eax],al
00002DAC  0000              add [eax],al
00002DAE  0000              add [eax],al
00002DB0  0000              add [eax],al
00002DB2  0000              add [eax],al
00002DB4  0000              add [eax],al
00002DB6  0000              add [eax],al
00002DB8  0000              add [eax],al
00002DBA  0000              add [eax],al
00002DBC  0000              add [eax],al
00002DBE  0000              add [eax],al
00002DC0  0000              add [eax],al
00002DC2  0000              add [eax],al
00002DC4  0000              add [eax],al
00002DC6  0000              add [eax],al
00002DC8  0000              add [eax],al
00002DCA  0000              add [eax],al
00002DCC  0000              add [eax],al
00002DCE  0000              add [eax],al
00002DD0  0000              add [eax],al
00002DD2  0000              add [eax],al
00002DD4  0000              add [eax],al
00002DD6  0000              add [eax],al
00002DD8  0000              add [eax],al
00002DDA  0000              add [eax],al
00002DDC  0000              add [eax],al
00002DDE  0000              add [eax],al
00002DE0  0000              add [eax],al
00002DE2  0000              add [eax],al
00002DE4  0000              add [eax],al
00002DE6  0000              add [eax],al
00002DE8  0000              add [eax],al
00002DEA  0000              add [eax],al
00002DEC  0000              add [eax],al
00002DEE  0000              add [eax],al
00002DF0  0000              add [eax],al
00002DF2  0000              add [eax],al
00002DF4  0000              add [eax],al
00002DF6  0000              add [eax],al
00002DF8  0000              add [eax],al
00002DFA  0000              add [eax],al
00002DFC  0000              add [eax],al
00002DFE  0000              add [eax],al
00002E00  0000              add [eax],al
00002E02  0000              add [eax],al
00002E04  0000              add [eax],al
00002E06  0000              add [eax],al
00002E08  0000              add [eax],al
00002E0A  0000              add [eax],al
00002E0C  0000              add [eax],al
00002E0E  0000              add [eax],al
00002E10  0000              add [eax],al
00002E12  0000              add [eax],al
00002E14  0000              add [eax],al
00002E16  0000              add [eax],al
00002E18  0000              add [eax],al
00002E1A  0000              add [eax],al
00002E1C  0000              add [eax],al
00002E1E  0000              add [eax],al
00002E20  0000              add [eax],al
00002E22  0000              add [eax],al
00002E24  0000              add [eax],al
00002E26  0000              add [eax],al
00002E28  0000              add [eax],al
00002E2A  0000              add [eax],al
00002E2C  0000              add [eax],al
00002E2E  0000              add [eax],al
00002E30  0000              add [eax],al
00002E32  0000              add [eax],al
00002E34  0000              add [eax],al
00002E36  0000              add [eax],al
00002E38  0000              add [eax],al
00002E3A  0000              add [eax],al
00002E3C  0000              add [eax],al
00002E3E  0000              add [eax],al
00002E40  0000              add [eax],al
00002E42  0000              add [eax],al
00002E44  0000              add [eax],al
00002E46  0000              add [eax],al
00002E48  0000              add [eax],al
00002E4A  0000              add [eax],al
00002E4C  0000              add [eax],al
00002E4E  0000              add [eax],al
00002E50  0000              add [eax],al
00002E52  0000              add [eax],al
00002E54  0000              add [eax],al
00002E56  0000              add [eax],al
00002E58  0000              add [eax],al
00002E5A  0000              add [eax],al
00002E5C  0000              add [eax],al
00002E5E  0000              add [eax],al
00002E60  0000              add [eax],al
00002E62  0000              add [eax],al
00002E64  0000              add [eax],al
00002E66  0000              add [eax],al
00002E68  0000              add [eax],al
00002E6A  0000              add [eax],al
00002E6C  0000              add [eax],al
00002E6E  0000              add [eax],al
00002E70  0000              add [eax],al
00002E72  0000              add [eax],al
00002E74  0000              add [eax],al
00002E76  0000              add [eax],al
00002E78  0000              add [eax],al
00002E7A  0000              add [eax],al
00002E7C  0000              add [eax],al
00002E7E  0000              add [eax],al
00002E80  0000              add [eax],al
00002E82  0000              add [eax],al
00002E84  0000              add [eax],al
00002E86  0000              add [eax],al
00002E88  0000              add [eax],al
00002E8A  0000              add [eax],al
00002E8C  0000              add [eax],al
00002E8E  0000              add [eax],al
00002E90  0000              add [eax],al
00002E92  0000              add [eax],al
00002E94  0000              add [eax],al
00002E96  0000              add [eax],al
00002E98  0000              add [eax],al
00002E9A  0000              add [eax],al
00002E9C  0000              add [eax],al
00002E9E  0000              add [eax],al
00002EA0  0000              add [eax],al
00002EA2  0000              add [eax],al
00002EA4  0000              add [eax],al
00002EA6  0000              add [eax],al
00002EA8  0000              add [eax],al
00002EAA  0000              add [eax],al
00002EAC  0000              add [eax],al
00002EAE  0000              add [eax],al
00002EB0  0000              add [eax],al
00002EB2  0000              add [eax],al
00002EB4  0000              add [eax],al
00002EB6  0000              add [eax],al
00002EB8  0000              add [eax],al
00002EBA  0000              add [eax],al
00002EBC  0000              add [eax],al
00002EBE  0000              add [eax],al
00002EC0  0000              add [eax],al
00002EC2  0000              add [eax],al
00002EC4  0000              add [eax],al
00002EC6  0000              add [eax],al
00002EC8  0000              add [eax],al
00002ECA  0000              add [eax],al
00002ECC  0000              add [eax],al
00002ECE  0000              add [eax],al
00002ED0  0000              add [eax],al
00002ED2  0000              add [eax],al
00002ED4  0000              add [eax],al
00002ED6  0000              add [eax],al
00002ED8  0000              add [eax],al
00002EDA  0000              add [eax],al
00002EDC  0000              add [eax],al
00002EDE  0000              add [eax],al
00002EE0  0000              add [eax],al
00002EE2  0000              add [eax],al
00002EE4  0000              add [eax],al
00002EE6  0000              add [eax],al
00002EE8  0000              add [eax],al
00002EEA  0000              add [eax],al
00002EEC  0000              add [eax],al
00002EEE  0000              add [eax],al
00002EF0  0000              add [eax],al
00002EF2  0000              add [eax],al
00002EF4  0000              add [eax],al
00002EF6  0000              add [eax],al
00002EF8  0000              add [eax],al
00002EFA  0000              add [eax],al
00002EFC  0000              add [eax],al
00002EFE  0000              add [eax],al
00002F00  0000              add [eax],al
00002F02  0000              add [eax],al
00002F04  0000              add [eax],al
00002F06  0000              add [eax],al
00002F08  0000              add [eax],al
00002F0A  0000              add [eax],al
00002F0C  0000              add [eax],al
00002F0E  0000              add [eax],al
00002F10  0000              add [eax],al
00002F12  0000              add [eax],al
00002F14  0000              add [eax],al
00002F16  0000              add [eax],al
00002F18  0000              add [eax],al
00002F1A  0000              add [eax],al
00002F1C  0000              add [eax],al
00002F1E  0000              add [eax],al
00002F20  0000              add [eax],al
00002F22  0000              add [eax],al
00002F24  0000              add [eax],al
00002F26  0000              add [eax],al
00002F28  0000              add [eax],al
00002F2A  0000              add [eax],al
00002F2C  0000              add [eax],al
00002F2E  0000              add [eax],al
00002F30  0000              add [eax],al
00002F32  0000              add [eax],al
00002F34  0000              add [eax],al
00002F36  0000              add [eax],al
00002F38  0000              add [eax],al
00002F3A  0000              add [eax],al
00002F3C  0000              add [eax],al
00002F3E  0000              add [eax],al
00002F40  0000              add [eax],al
00002F42  0000              add [eax],al
00002F44  0000              add [eax],al
00002F46  0000              add [eax],al
00002F48  0000              add [eax],al
00002F4A  0000              add [eax],al
00002F4C  0000              add [eax],al
00002F4E  0000              add [eax],al
00002F50  0000              add [eax],al
00002F52  0000              add [eax],al
00002F54  0000              add [eax],al
00002F56  0000              add [eax],al
00002F58  0000              add [eax],al
00002F5A  0000              add [eax],al
00002F5C  0000              add [eax],al
00002F5E  0000              add [eax],al
00002F60  0000              add [eax],al
00002F62  0000              add [eax],al
00002F64  0000              add [eax],al
00002F66  0000              add [eax],al
00002F68  0000              add [eax],al
00002F6A  0000              add [eax],al
00002F6C  0000              add [eax],al
00002F6E  0000              add [eax],al
00002F70  0000              add [eax],al
00002F72  0000              add [eax],al
00002F74  0000              add [eax],al
00002F76  0000              add [eax],al
00002F78  0000              add [eax],al
00002F7A  0000              add [eax],al
00002F7C  0000              add [eax],al
00002F7E  0000              add [eax],al
00002F80  0000              add [eax],al
00002F82  0000              add [eax],al
00002F84  0000              add [eax],al
00002F86  0000              add [eax],al
00002F88  0000              add [eax],al
00002F8A  0000              add [eax],al
00002F8C  0000              add [eax],al
00002F8E  0000              add [eax],al
00002F90  0000              add [eax],al
00002F92  0000              add [eax],al
00002F94  0000              add [eax],al
00002F96  0000              add [eax],al
00002F98  0000              add [eax],al
00002F9A  0000              add [eax],al
00002F9C  0000              add [eax],al
00002F9E  0000              add [eax],al
00002FA0  0000              add [eax],al
00002FA2  0000              add [eax],al
00002FA4  0000              add [eax],al
00002FA6  0000              add [eax],al
00002FA8  0000              add [eax],al
00002FAA  0000              add [eax],al
00002FAC  0000              add [eax],al
00002FAE  0000              add [eax],al
00002FB0  0000              add [eax],al
00002FB2  0000              add [eax],al
00002FB4  0000              add [eax],al
00002FB6  0000              add [eax],al
00002FB8  0000              add [eax],al
00002FBA  0000              add [eax],al
00002FBC  0000              add [eax],al
00002FBE  0000              add [eax],al
00002FC0  0000              add [eax],al
00002FC2  0000              add [eax],al
00002FC4  0000              add [eax],al
00002FC6  0000              add [eax],al
00002FC8  0000              add [eax],al
00002FCA  0000              add [eax],al
00002FCC  0000              add [eax],al
00002FCE  0000              add [eax],al
00002FD0  0000              add [eax],al
00002FD2  0000              add [eax],al
00002FD4  0000              add [eax],al
00002FD6  0000              add [eax],al
00002FD8  0000              add [eax],al
00002FDA  0000              add [eax],al
00002FDC  0000              add [eax],al
00002FDE  0000              add [eax],al
00002FE0  0000              add [eax],al
00002FE2  0000              add [eax],al
00002FE4  0000              add [eax],al
00002FE6  0000              add [eax],al
00002FE8  0000              add [eax],al
00002FEA  0000              add [eax],al
00002FEC  0000              add [eax],al
00002FEE  0000              add [eax],al
00002FF0  0000              add [eax],al
00002FF2  0000              add [eax],al
00002FF4  0000              add [eax],al
00002FF6  0000              add [eax],al
00002FF8  0000              add [eax],al
00002FFA  0000              add [eax],al
00002FFC  0000              add [eax],al
00002FFE  0000              add [eax],al
00003000  302E              xor [esi],ch
00003002  3031              xor [ecx],dh
00003004  20416C            and [ecx+0x6c],al
00003007  7068              jo 0x3071
00003009  61                popa
0000300A  005765            add [edi+0x65],dl
0000300D  6C                insb
0000300E  636F6D            arpl [edi+0x6d],bp
00003011  6520746F20        and [gs:edi+ebp*2+0x20],dh
00003016  4A                dec edx
00003017  61                popa
00003018  7276              jc 0x3090
0000301A  6973204F532076    imul esi,[ebx+0x20],dword 0x7620534f
00003021  25730A0041        and eax,0x41000a73
00003026  2033              and [ebx],dh
00003028  3220              xor ah,[eax]
0000302A  626974            bound ebp,[ecx+0x74]
0000302D  207072            and [eax+0x72],dh
00003030  6F                outsd
00003031  7465              jz 0x3098
00003033  63746564          arpl [ebp+0x64],si
00003037  206D6F            and [ebp+0x6f],ch
0000303A  6465204F53        and [gs:edi+0x53],cl
0000303F  0A00              or al,[eax]
00003041  0000              add [eax],al
00003043  004744            add [edi+0x44],al
00003046  54                push esp
00003047  2C20              sub al,0x20
00003049  49                dec ecx
0000304A  44                inc esp
0000304B  54                push esp
0000304C  2C20              sub al,0x20
0000304E  61                popa
0000304F  6E                outsb
00003050  6420545353        and [fs:ebx+edx*2+0x53],dl
00003055  20696E            and [ecx+0x6e],ch
00003058  697469616C697A65  imul esi,[ecx+ebp*2+0x61],dword 0x657a696c
00003060  640A00            or al,[fs:eax]
00003063  005068            add [eax+0x68],dl
00003066  7973              jns 0x30db
00003068  6963616C204D65    imul esp,[ebx+0x61],dword 0x654d206c
0000306F  6D                insd
00003070  6F                outsd
00003071  7279              jc 0x30ec
00003073  204D61            and [ebp+0x61],cl
00003076  6E                outsb
00003077  61                popa
00003078  67657220          gs jc 0x309c
0000307C  696E697469616C    imul ebp,[esi+0x69],dword 0x6c616974
00003083  697A65640A0050    imul edi,[edx+0x65],dword 0x50000a64
0000308A  7269              jc 0x30f5
0000308C  6D                insd
0000308D  6974697665205061  imul esi,[ecx+ebp*2+0x76],dword 0x61502065
00003095  67696E6720696E69  imul ebp,[bp+0x67],dword 0x696e6920
0000309D  7469              jz 0x3108
0000309F  61                popa
000030A0  6C                insb
000030A1  697A65640A0000    imul edi,[edx+0x65],dword 0xa64
000030A8  4B                dec ebx
000030A9  1010              adc [eax],dl
000030AB  006010            add [eax+0x10],ah
000030AE  1000              adc [eax],al
000030B0  60                pusha
000030B1  1010              adc [eax],dl
000030B3  005210            add [edx+0x10],dl
000030B6  1000              adc [eax],al
000030B8  60                pusha
000030B9  1010              adc [eax],dl
000030BB  006010            add [eax+0x10],ah
000030BE  1000              adc [eax],al
000030C0  60                pusha
000030C1  1010              adc [eax],dl
000030C3  006010            add [eax+0x10],ah
000030C6  1000              adc [eax],al
000030C8  60                pusha
000030C9  1010              adc [eax],dl
000030CB  006010            add [eax+0x10],ah
000030CE  1000              adc [eax],al
000030D0  60                pusha
000030D1  1010              adc [eax],dl
000030D3  00441010          add [eax+edx+0x10],al
000030D7  006010            add [eax+0x10],ah
000030DA  1000              adc [eax],al
000030DC  3D10100060        cmp eax,0x60001010
000030E1  1010              adc [eax],dl
000030E3  006010            add [eax+0x10],ah
000030E6  1000              adc [eax],al
000030E8  59                pop ecx
000030E9  1010              adc [eax],dl
000030EB  006E13            add [esi+0x13],ch
000030EE  1000              adc [eax],al
000030F0  A1131000A1        mov eax,[0xa1001013]
000030F5  1310              adc edx,[eax]
000030F7  00A1131000A1      add [ecx-0x5effefed],ah
000030FD  1310              adc edx,[eax]
000030FF  00A1131000A1      add [ecx-0x5effefed],ah
00003105  1310              adc edx,[eax]
00003107  00A1131000A1      add [ecx-0x5effefed],ah
0000310D  1310              adc edx,[eax]
0000310F  00A1131000A1      add [ecx-0x5effefed],ah
00003115  1310              adc edx,[eax]
00003117  00A1131000A1      add [ecx-0x5effefed],ah
0000311D  1310              adc edx,[eax]
0000311F  00A1131000A1      add [ecx-0x5effefed],ah
00003125  1310              adc edx,[eax]
00003127  00A1131000A1      add [ecx-0x5effefed],ah
0000312D  1310              adc edx,[eax]
0000312F  00A1131000A1      add [ecx-0x5effefed],ah
00003135  1310              adc edx,[eax]
00003137  00A1131000A1      add [ecx-0x5effefed],ah
0000313D  1310              adc edx,[eax]
0000313F  00A1131000A1      add [ecx-0x5effefed],ah
00003145  1310              adc edx,[eax]
00003147  00A1131000A1      add [ecx-0x5effefed],ah
0000314D  1310              adc edx,[eax]
0000314F  00A1131000A1      add [ecx-0x5effefed],ah
00003155  1310              adc edx,[eax]
00003157  00A1131000A1      add [ecx-0x5effefed],ah
0000315D  1310              adc edx,[eax]
0000315F  00A1131000A1      add [ecx-0x5effefed],ah
00003165  1310              adc edx,[eax]
00003167  00A1131000A1      add [ecx-0x5effefed],ah
0000316D  1310              adc edx,[eax]
0000316F  00A1131000A1      add [ecx-0x5effefed],ah
00003175  1310              adc edx,[eax]
00003177  00A1131000A1      add [ecx-0x5effefed],ah
0000317D  1310              adc edx,[eax]
0000317F  00A1131000A1      add [ecx-0x5effefed],ah
00003185  1310              adc edx,[eax]
00003187  00A1131000A1      add [ecx-0x5effefed],ah
0000318D  1310              adc edx,[eax]
0000318F  00A1131000A1      add [ecx-0x5effefed],ah
00003195  1310              adc edx,[eax]
00003197  00A1131000A1      add [ecx-0x5effefed],ah
0000319D  1310              adc edx,[eax]
0000319F  00A1131000A1      add [ecx-0x5effefed],ah
000031A5  1310              adc edx,[eax]
000031A7  00A1131000A1      add [ecx-0x5effefed],ah
000031AD  1310              adc edx,[eax]
000031AF  00A1131000A1      add [ecx-0x5effefed],ah
000031B5  1310              adc edx,[eax]
000031B7  0090131000A1      add [eax-0x5effefed],dl
000031BD  1310              adc edx,[eax]
000031BF  00A1131000A1      add [ecx-0x5effefed],ah
000031C5  1310              adc edx,[eax]
000031C7  00A1131000A1      add [ecx-0x5effefed],ah
000031CD  1310              adc edx,[eax]
000031CF  00A1131000A1      add [ecx-0x5effefed],ah
000031D5  1310              adc edx,[eax]
000031D7  00A1131000A1      add [ecx-0x5effefed],ah
000031DD  1310              adc edx,[eax]
000031DF  00A1131000AC      add [ecx-0x53ffefed],ah
000031E5  1110              adc [eax],edx
000031E7  009A131000A1      add [edx-0x5effefed],bl
000031ED  1310              adc edx,[eax]
000031EF  00A1131000A1      add [ecx-0x5effefed],ah
000031F5  1310              adc edx,[eax]
000031F7  00A11310009A      add [ecx-0x65ffefed],ah
000031FD  1310              adc edx,[eax]
000031FF  00A1131000A1      add [ecx-0x5effefed],ah
00003205  1310              adc edx,[eax]
00003207  00A1131000A1      add [ecx-0x5effefed],ah
0000320D  1310              adc edx,[eax]
0000320F  001B              add [ebx],bl
00003211  1310              adc edx,[eax]
00003213  0081131000BF      add [ecx-0x40ffefed],al
00003219  1210              adc dl,[eax]
0000321B  00A1131000A1      add [ecx-0x5effefed],ah
00003221  1310              adc edx,[eax]
00003223  0010              add [eax],dl
00003225  1210              adc dl,[eax]
00003227  00A1131000E3      add [ecx-0x1cffefed],ah
0000322D  1310              adc edx,[eax]
0000322F  00A1131000A1      add [ecx-0x5effefed],ah
00003235  1310              adc edx,[eax]
00003237  008B13100030      add [ebx+0x30001013],cl
0000323D  3132              xor [edx],esi
0000323F  33343536373839    xor esi,[esi+0x39383736]
00003246  41                inc ecx
00003247  42                inc edx
00003248  43                inc ebx
00003249  44                inc esp
0000324A  45                inc ebp
0000324B  46                inc esi
0000324C  44                inc esp
0000324D  69766973696F6E    imul esi,[esi+0x69],dword 0x6e6f6973
00003254  204279            and [edx+0x79],al
00003257  205A65            and [edx+0x65],bl
0000325A  726F              jc 0x32cb
0000325C  00446562          add [ebp+0x62],al
00003260  7567              jnz 0x32c9
00003262  004E6F            add [esi+0x6f],cl
00003265  6E                outsb
00003266  204D61            and [ebp+0x61],cl
00003269  736B              jnc 0x32d6
0000326B  61                popa
0000326C  626C6520          bound ebp,[ebp+0x20]
00003270  49                dec ecx
00003271  6E                outsb
00003272  7465              jz 0x32d9
00003274  7272              jc 0x32e8
00003276  7570              jnz 0x32e8
00003278  7400              jz 0x327a
0000327A  42                inc edx
0000327B  7265              jc 0x32e2
0000327D  61                popa
0000327E  6B706F69          imul esi,[eax+0x6f],byte +0x69
00003282  6E                outsb
00003283  7400              jz 0x3285
00003285  49                dec ecx
00003286  6E                outsb
00003287  746F              jz 0x32f8
00003289  20446574          and [ebp+0x74],al
0000328D  6563746564        arpl [gs:ebp+0x64],si
00003292  204F76            and [edi+0x76],cl
00003295  657266            gs jc 0x32fe
00003298  6C                insb
00003299  6F                outsd
0000329A  7700              ja 0x329c
0000329C  4F                dec edi
0000329D  7574              jnz 0x3313
0000329F  206F66            and [edi+0x66],ch
000032A2  20426F            and [edx+0x6f],al
000032A5  756E              jnz 0x3315
000032A7  647300            fs jnc 0x32aa
000032AA  49                dec ecx
000032AB  6E                outsb
000032AC  7661              jna 0x330f
000032AE  6C                insb
000032AF  6964204F70636F64  imul esp,[eax+0x4f],dword 0x646f6370
000032B7  65004E6F          add [gs:esi+0x6f],cl
000032BB  20436F            and [ebx+0x6f],al
000032BE  7072              jo 0x3332
000032C0  6F                outsd
000032C1  636573            arpl [ebp+0x73],sp
000032C4  736F              jnc 0x3335
000032C6  7200              jc 0x32c8
000032C8  44                inc esp
000032C9  6F                outsd
000032CA  7562              jnz 0x332e
000032CC  6C                insb
000032CD  65204661          and [gs:esi+0x61],al
000032D1  756C              jnz 0x333f
000032D3  7400              jz 0x32d5
000032D5  43                inc ebx
000032D6  6F                outsd
000032D7  7072              jo 0x334b
000032D9  6F                outsd
000032DA  636573            arpl [ebp+0x73],sp
000032DD  736F              jnc 0x334e
000032DF  7220              jc 0x3301
000032E1  53                push ebx
000032E2  65676D            gs a16 insd
000032E5  656E              gs outsb
000032E7  7420              jz 0x3309
000032E9  4F                dec edi
000032EA  7665              jna 0x3351
000032EC  7272              jc 0x3360
000032EE  756E              jnz 0x335e
000032F0  004261            add [edx+0x61],al
000032F3  6420545353        and [fs:ebx+edx*2+0x53],dl
000032F8  005365            add [ebx+0x65],dl
000032FB  676D              a16 insd
000032FD  656E              gs outsb
000032FF  7420              jz 0x3321
00003301  4E                dec esi
00003302  6F                outsd
00003303  7420              jz 0x3325
00003305  50                push eax
00003306  7265              jc 0x336d
00003308  7365              jnc 0x336f
0000330A  6E                outsb
0000330B  7400              jz 0x330d
0000330D  53                push ebx
0000330E  7461              jz 0x3371
00003310  636B20            arpl [ebx+0x20],bp
00003313  46                inc esi
00003314  61                popa
00003315  756C              jnz 0x3383
00003317  7400              jz 0x3319
00003319  47                inc edi
0000331A  656E              gs outsb
0000331C  657261            gs jc 0x3380
0000331F  6C                insb
00003320  205072            and [eax+0x72],dl
00003323  6F                outsd
00003324  7465              jz 0x338b
00003326  6374696F          arpl [ecx+ebp*2+0x6f],si
0000332A  6E                outsb
0000332B  204661            and [esi+0x61],al
0000332E  756C              jnz 0x339c
00003330  7400              jz 0x3332
00003332  50                push eax
00003333  61                popa
00003334  6765204661        and [gs:bp+0x61],al
00003339  756C              jnz 0x33a7
0000333B  7400              jz 0x333d
0000333D  55                push ebp
0000333E  6E                outsb
0000333F  6B6E6F77          imul ebp,[esi+0x6f],byte +0x77
00003343  6E                outsb
00003344  20496E            and [ecx+0x6e],cl
00003347  7465              jz 0x33ae
00003349  7272              jc 0x33bd
0000334B  7570              jnz 0x33bd
0000334D  7400              jz 0x334f
0000334F  43                inc ebx
00003350  6F                outsd
00003351  7072              jo 0x33c5
00003353  6F                outsd
00003354  636573            arpl [ebp+0x73],sp
00003357  736F              jnc 0x33c8
00003359  7220              jc 0x337b
0000335B  46                inc esi
0000335C  61                popa
0000335D  756C              jnz 0x33cb
0000335F  7400              jz 0x3361
00003361  41                inc ecx
00003362  6C                insb
00003363  69676E6D656E74    imul esp,[edi+0x6e],dword 0x746e656d
0000336A  204368            and [ebx+0x68],al
0000336D  65636B00          arpl [gs:ebx+0x0],bp
00003371  4D                dec ebp
00003372  61                popa
00003373  636869            arpl [eax+0x69],bp
00003376  6E                outsb
00003377  65204368          and [gs:ebx+0x68],al
0000337B  65636B00          arpl [gs:ebx+0x0],bp
0000337F  52                push edx
00003380  657365            gs jnc 0x33e8
00003383  7276              jc 0x33fb
00003385  6564004952        add [fs:ecx+0x52],cl
0000338A  51                push ecx
0000338B  202564205265      and [dword 0x65522064],ah
00003391  6769737465726564  imul esi,[bp+di+0x74],dword 0x64657265
00003399  0A00              or al,[eax]
0000339B  004558            add [ebp+0x58],al
0000339E  43                inc ebx
0000339F  45                inc ebp
000033A0  50                push eax
000033A1  54                push esp
000033A2  49                dec ecx
000033A3  4F                dec edi
000033A4  4E                dec esi
000033A5  3A20              cmp ah,[eax]
000033A7  2573202865        and eax,0x65282073
000033AC  7272              jc 0x3420
000033AE  20636F            and [ebx+0x6f],ah
000033B1  6465206973        and [gs:ecx+0x73],ch
000033B6  202578290A00      and [dword 0xa2978],ah
000033BC  4A                dec edx
000033BD  61                popa
000033BE  7276              jc 0x3436
000033C0  69734F53207265    imul esi,[ebx+0x4f],dword 0x65722053
000033C7  7175              jno 0x343e
000033C9  69726573207468    imul esi,[edx+0x65],dword 0x68742073
000033D0  65204350          and [gs:ebx+0x50],al
000033D4  55                push ebp
000033D5  49                dec ecx
000033D6  44                inc esp
000033D7  20696E            and [ecx+0x6e],ch
000033DA  7374              jnc 0x3450
000033DC  7275              jc 0x3453
000033DE  6374696F          arpl [ecx+ebp*2+0x6f],si
000033E2  6E                outsb
000033E3  20746F20          and [edi+ebp*2+0x20],dh
000033E7  7265              jc 0x344e
000033E9  7475              jz 0x3460
000033EB  726E              jc 0x345b
000033ED  206D6F            and [ebp+0x6f],ch
000033F0  7265              jc 0x3457
000033F2  20746861          and [eax+ebp*2+0x61],dh
000033F6  6E                outsb
000033F7  206F6E            and [edi+0x6e],ch
000033FA  65207375          and [gs:ebx+0x75],dh
000033FE  7070              jo 0x3470
00003400  6F                outsd
00003401  7274              jc 0x3477
00003403  6564204944        and [fs:ecx+0x44],cl
00003408  2E0A00            or al,[cs:eax]
0000340B  005072            add [eax+0x72],dl
0000340E  6F                outsd
0000340F  636573            arpl [ebp+0x73],sp
00003412  736F              jnc 0x3483
00003414  7220              jc 0x3436
00003416  697320746F6F20    imul esi,[ebx+0x20],dword 0x206f6f74
0000341D  6F                outsd
0000341E  6C                insb
0000341F  642028            and [fs:eax],ch
00003422  6661              popaw
00003424  6D                insd
00003425  696C79202575203C  imul ebp,[ecx+edi*2+0x20],dword 0x3c207525
0000342D  2035290A0000      and [dword 0xa29],dh
00003433  005072            add [eax+0x72],dl
00003436  6F                outsd
00003437  636573            arpl [ebp+0x73],sp
0000343A  736F              jnc 0x34ab
0000343C  7220              jc 0x345e
0000343E  69732061636365    imul esi,[ebx+0x20],dword 0x65636361
00003445  7074              jo 0x34bb
00003447  61                popa
00003448  626C6520          bound ebp,[ebp+0x20]
0000344C  286661            sub [esi+0x61],ah
0000344F  6D                insd
00003450  696C79202575203E  imul ebp,[ecx+edi*2+0x20],dword 0x3e207525
00003458  2035290A0000      and [dword 0xa29],dh
0000345E  0000              add [eax],al
00003460  4A                dec edx
00003461  61                popa
00003462  7276              jc 0x34da
00003464  69734F53207265    imul esi,[ebx+0x4f],dword 0x65722053
0000346B  7175              jno 0x34e2
0000346D  69726573206120    imul esi,[edx+0x65],dword 0x20612073
00003474  50                push eax
00003475  656E              gs outsb
00003477  7469              jz 0x34e2
00003479  756D              jnz 0x34e8
0000347B  2D6C657665        sub eax,0x6576656c
00003480  6C                insb
00003481  207072            and [eax+0x72],dh
00003484  6F                outsd
00003485  636573            arpl [ebp+0x73],sp
00003488  736F              jnc 0x34f9
0000348A  7220              jc 0x34ac
0000348C  6F                outsd
0000348D  7220              jc 0x34af
0000348F  6E                outsb
00003490  657765            gs ja 0x34f8
00003493  722E              jc 0x34c3
00003495  0A00              or al,[eax]
00003497  006D65            add [ebp+0x65],ch
0000349A  6D                insd
0000349B  207369            and [ebx+0x69],dh
0000349E  7A65              jpe 0x3505
000034A0  3A20              cmp ah,[eax]
000034A2  2020              and [eax],ah
000034A4  2020              and [eax],ah
000034A6  2575206D62        and eax,0x626d2075
000034AB  0A00              or al,[eax]
000034AD  746F              jz 0x351e
000034AF  7461              jz 0x3512
000034B1  6C                insb
000034B2  5F                pop edi
000034B3  626C6F63          bound ebp,[edi+ebp*2+0x63]
000034B7  6B733A20          imul esi,[ebx+0x3a],byte +0x20
000034BB  25750A0062        and eax,0x62000a75
000034C0  69746D6170206164  imul esi,[ebp+ebp*2+0x61],dword 0x64612070
000034C8  64723A            fs jc 0x3505
000034CB  2020              and [eax],ah
000034CD  307825            xor [eax+0x25],bh
000034D0  700A              jo 0x34dc
000034D2  006269            add [edx+0x69],ah
000034D5  746D              jz 0x3544
000034D7  61                popa
000034D8  705F              jo 0x3539
000034DA  7369              jnc 0x3545
000034DC  7A65              jpe 0x3543
000034DE  3A20              cmp ah,[eax]
000034E0  2025750A006D      and [dword 0x6d000a75],ah
000034E6  656D              gs insd
000034E8  5F                pop edi
000034E9  7374              jnc 0x355f
000034EB  61                popa
000034EC  7274              jc 0x3562
000034EE  3A20              cmp ah,[eax]
000034F0  2020              and [eax],ah
000034F2  2030              and [eax],dh
000034F4  7825              js 0x351b
000034F6  700A              jo 0x3502
000034F8  0000              add [eax],al
000034FA  0000              add [eax],al
000034FC  47                inc edi
000034FD  43                inc ebx
000034FE  43                inc ebx
000034FF  3A20              cmp ah,[eax]
00003501  28474E            sub [edi+0x4e],al
00003504  55                push ebp
00003505  2920              sub [eax],esp
00003507  392E              cmp [esi],ebp
00003509  332D77696E33      xor ebp,[dword 0x336e6977]
0000350F  3220              xor ah,[eax]
00003511  3230              xor dh,[eax]
00003513  3230              xor dh,[eax]
00003515  3033              xor [ebx],dh
00003517  3230              xor dh,[eax]
00003519  0000              add [eax],al
0000351B  004743            add [edi+0x43],al
0000351E  43                inc ebx
0000351F  3A20              cmp ah,[eax]
00003521  28474E            sub [edi+0x4e],al
00003524  55                push ebp
00003525  2920              sub [eax],esp
00003527  392E              cmp [esi],ebp
00003529  332D77696E33      xor ebp,[dword 0x336e6977]
0000352F  3220              xor ah,[eax]
00003531  3230              xor dh,[eax]
00003533  3230              xor dh,[eax]
00003535  3033              xor [ebx],dh
00003537  3230              xor dh,[eax]
00003539  0000              add [eax],al
0000353B  004743            add [edi+0x43],al
0000353E  43                inc ebx
0000353F  3A20              cmp ah,[eax]
00003541  28474E            sub [edi+0x4e],al
00003544  55                push ebp
00003545  2920              sub [eax],esp
00003547  392E              cmp [esi],ebp
00003549  332D77696E33      xor ebp,[dword 0x336e6977]
0000354F  3220              xor ah,[eax]
00003551  3230              xor dh,[eax]
00003553  3230              xor dh,[eax]
00003555  3033              xor [ebx],dh
00003557  3230              xor dh,[eax]
00003559  0000              add [eax],al
0000355B  004743            add [edi+0x43],al
0000355E  43                inc ebx
0000355F  3A20              cmp ah,[eax]
00003561  28474E            sub [edi+0x4e],al
00003564  55                push ebp
00003565  2920              sub [eax],esp
00003567  392E              cmp [esi],ebp
00003569  332D77696E33      xor ebp,[dword 0x336e6977]
0000356F  3220              xor ah,[eax]
00003571  3230              xor dh,[eax]
00003573  3230              xor dh,[eax]
00003575  3033              xor [ebx],dh
00003577  3230              xor dh,[eax]
00003579  0000              add [eax],al
0000357B  004743            add [edi+0x43],al
0000357E  43                inc ebx
0000357F  3A20              cmp ah,[eax]
00003581  28474E            sub [edi+0x4e],al
00003584  55                push ebp
00003585  2920              sub [eax],esp
00003587  392E              cmp [esi],ebp
00003589  332D77696E33      xor ebp,[dword 0x336e6977]
0000358F  3220              xor ah,[eax]
00003591  3230              xor dh,[eax]
00003593  3230              xor dh,[eax]
00003595  3033              xor [ebx],dh
00003597  3230              xor dh,[eax]
00003599  0000              add [eax],al
0000359B  004743            add [edi+0x43],al
0000359E  43                inc ebx
0000359F  3A20              cmp ah,[eax]
000035A1  28474E            sub [edi+0x4e],al
000035A4  55                push ebp
000035A5  2920              sub [eax],esp
000035A7  392E              cmp [esi],ebp
000035A9  332D77696E33      xor ebp,[dword 0x336e6977]
000035AF  3220              xor ah,[eax]
000035B1  3230              xor dh,[eax]
000035B3  3230              xor dh,[eax]
000035B5  3033              xor [ebx],dh
000035B7  3230              xor dh,[eax]
000035B9  0000              add [eax],al
000035BB  004743            add [edi+0x43],al
000035BE  43                inc ebx
000035BF  3A20              cmp ah,[eax]
000035C1  28474E            sub [edi+0x4e],al
000035C4  55                push ebp
000035C5  2920              sub [eax],esp
000035C7  392E              cmp [esi],ebp
000035C9  332D77696E33      xor ebp,[dword 0x336e6977]
000035CF  3220              xor ah,[eax]
000035D1  3230              xor dh,[eax]
000035D3  3230              xor dh,[eax]
000035D5  3033              xor [ebx],dh
000035D7  3230              xor dh,[eax]
000035D9  0000              add [eax],al
000035DB  004743            add [edi+0x43],al
000035DE  43                inc ebx
000035DF  3A20              cmp ah,[eax]
000035E1  28474E            sub [edi+0x4e],al
000035E4  55                push ebp
000035E5  2920              sub [eax],esp
000035E7  392E              cmp [esi],ebp
000035E9  332D77696E33      xor ebp,[dword 0x336e6977]
000035EF  3220              xor ah,[eax]
000035F1  3230              xor dh,[eax]
000035F3  3230              xor dh,[eax]
000035F5  3033              xor [ebx],dh
000035F7  3230              xor dh,[eax]
000035F9  0000              add [eax],al
000035FB  004743            add [edi+0x43],al
000035FE  43                inc ebx
000035FF  3A20              cmp ah,[eax]
00003601  28474E            sub [edi+0x4e],al
00003604  55                push ebp
00003605  2920              sub [eax],esp
00003607  392E              cmp [esi],ebp
00003609  332D77696E33      xor ebp,[dword 0x336e6977]
0000360F  3220              xor ah,[eax]
00003611  3230              xor dh,[eax]
00003613  3230              xor dh,[eax]
00003615  3033              xor [ebx],dh
00003617  3230              xor dh,[eax]
00003619  0000              add [eax],al
0000361B  004743            add [edi+0x43],al
0000361E  43                inc ebx
0000361F  3A20              cmp ah,[eax]
00003621  28474E            sub [edi+0x4e],al
00003624  55                push ebp
00003625  2920              sub [eax],esp
00003627  392E              cmp [esi],ebp
00003629  332D77696E33      xor ebp,[dword 0x336e6977]
0000362F  3220              xor ah,[eax]
00003631  3230              xor dh,[eax]
00003633  3230              xor dh,[eax]
00003635  3033              xor [ebx],dh
00003637  3230              xor dh,[eax]
00003639  0000              add [eax],al
0000363B  004743            add [edi+0x43],al
0000363E  43                inc ebx
0000363F  3A20              cmp ah,[eax]
00003641  28474E            sub [edi+0x4e],al
00003644  55                push ebp
00003645  2920              sub [eax],esp
00003647  392E              cmp [esi],ebp
00003649  332D77696E33      xor ebp,[dword 0x336e6977]
0000364F  3220              xor ah,[eax]
00003651  3230              xor dh,[eax]
00003653  3230              xor dh,[eax]
00003655  3033              xor [ebx],dh
00003657  3230              xor dh,[eax]
00003659  0000              add [eax],al
0000365B  0000              add [eax],al
0000365D  0000              add [eax],al
0000365F  0000              add [eax],al
00003661  0000              add [eax],al
00003663  0000              add [eax],al
00003665  0000              add [eax],al
00003667  0000              add [eax],al
00003669  0000              add [eax],al
0000366B  0000              add [eax],al
0000366D  0000              add [eax],al
0000366F  0000              add [eax],al
00003671  0000              add [eax],al
00003673  0000              add [eax],al
00003675  0000              add [eax],al
00003677  0000              add [eax],al
00003679  0000              add [eax],al
0000367B  0000              add [eax],al
0000367D  0000              add [eax],al
0000367F  0000              add [eax],al
00003681  0000              add [eax],al
00003683  0000              add [eax],al
00003685  0000              add [eax],al
00003687  0000              add [eax],al
00003689  0000              add [eax],al
0000368B  0000              add [eax],al
0000368D  0000              add [eax],al
0000368F  0000              add [eax],al
00003691  0000              add [eax],al
00003693  0000              add [eax],al
00003695  0000              add [eax],al
00003697  0000              add [eax],al
00003699  0000              add [eax],al
0000369B  0000              add [eax],al
0000369D  0000              add [eax],al
0000369F  0000              add [eax],al
000036A1  0000              add [eax],al
000036A3  0000              add [eax],al
000036A5  0000              add [eax],al
000036A7  0000              add [eax],al
000036A9  0000              add [eax],al
000036AB  0000              add [eax],al
000036AD  0000              add [eax],al
000036AF  0000              add [eax],al
000036B1  0000              add [eax],al
000036B3  0000              add [eax],al
000036B5  0000              add [eax],al
000036B7  0000              add [eax],al
000036B9  0000              add [eax],al
000036BB  0000              add [eax],al
000036BD  0000              add [eax],al
000036BF  0000              add [eax],al
000036C1  0000              add [eax],al
000036C3  0000              add [eax],al
000036C5  0000              add [eax],al
000036C7  0000              add [eax],al
000036C9  0000              add [eax],al
000036CB  0000              add [eax],al
000036CD  0000              add [eax],al
000036CF  0000              add [eax],al
000036D1  0000              add [eax],al
000036D3  0000              add [eax],al
000036D5  0000              add [eax],al
000036D7  0000              add [eax],al
000036D9  0000              add [eax],al
000036DB  0000              add [eax],al
000036DD  0000              add [eax],al
000036DF  0000              add [eax],al
000036E1  0000              add [eax],al
000036E3  0000              add [eax],al
000036E5  0000              add [eax],al
000036E7  0000              add [eax],al
000036E9  0000              add [eax],al
000036EB  0000              add [eax],al
000036ED  0000              add [eax],al
000036EF  0000              add [eax],al
000036F1  0000              add [eax],al
000036F3  0000              add [eax],al
000036F5  0000              add [eax],al
000036F7  0000              add [eax],al
000036F9  0000              add [eax],al
000036FB  0000              add [eax],al
000036FD  0000              add [eax],al
000036FF  0000              add [eax],al
00003701  0000              add [eax],al
00003703  0000              add [eax],al
00003705  0000              add [eax],al
00003707  0000              add [eax],al
00003709  0000              add [eax],al
0000370B  0000              add [eax],al
0000370D  0000              add [eax],al
0000370F  0000              add [eax],al
00003711  0000              add [eax],al
00003713  0000              add [eax],al
00003715  0000              add [eax],al
00003717  0000              add [eax],al
00003719  0000              add [eax],al
0000371B  0000              add [eax],al
0000371D  0000              add [eax],al
0000371F  0000              add [eax],al
00003721  0000              add [eax],al
00003723  0000              add [eax],al
00003725  0000              add [eax],al
00003727  0000              add [eax],al
00003729  0000              add [eax],al
0000372B  0000              add [eax],al
0000372D  0000              add [eax],al
0000372F  0000              add [eax],al
00003731  0000              add [eax],al
00003733  0000              add [eax],al
00003735  0000              add [eax],al
00003737  0000              add [eax],al
00003739  0000              add [eax],al
0000373B  0000              add [eax],al
0000373D  0000              add [eax],al
0000373F  0000              add [eax],al
00003741  0000              add [eax],al
00003743  0000              add [eax],al
00003745  0000              add [eax],al
00003747  0000              add [eax],al
00003749  0000              add [eax],al
0000374B  0000              add [eax],al
0000374D  0000              add [eax],al
0000374F  0000              add [eax],al
00003751  0000              add [eax],al
00003753  0000              add [eax],al
00003755  0000              add [eax],al
00003757  0000              add [eax],al
00003759  0000              add [eax],al
0000375B  0000              add [eax],al
0000375D  0000              add [eax],al
0000375F  0000              add [eax],al
00003761  0000              add [eax],al
00003763  0000              add [eax],al
00003765  0000              add [eax],al
00003767  0000              add [eax],al
00003769  0000              add [eax],al
0000376B  0000              add [eax],al
0000376D  0000              add [eax],al
0000376F  0000              add [eax],al
00003771  0000              add [eax],al
00003773  0000              add [eax],al
00003775  0000              add [eax],al
00003777  0000              add [eax],al
00003779  0000              add [eax],al
0000377B  0000              add [eax],al
0000377D  0000              add [eax],al
0000377F  0000              add [eax],al
00003781  0000              add [eax],al
00003783  0000              add [eax],al
00003785  0000              add [eax],al
00003787  0000              add [eax],al
00003789  0000              add [eax],al
0000378B  0000              add [eax],al
0000378D  0000              add [eax],al
0000378F  0000              add [eax],al
00003791  0000              add [eax],al
00003793  0000              add [eax],al
00003795  0000              add [eax],al
00003797  0000              add [eax],al
00003799  0000              add [eax],al
0000379B  0000              add [eax],al
0000379D  0000              add [eax],al
0000379F  0000              add [eax],al
000037A1  0000              add [eax],al
000037A3  0000              add [eax],al
000037A5  0000              add [eax],al
000037A7  0000              add [eax],al
000037A9  0000              add [eax],al
000037AB  0000              add [eax],al
000037AD  0000              add [eax],al
000037AF  0000              add [eax],al
000037B1  0000              add [eax],al
000037B3  0000              add [eax],al
000037B5  0000              add [eax],al
000037B7  0000              add [eax],al
000037B9  0000              add [eax],al
000037BB  0000              add [eax],al
000037BD  0000              add [eax],al
000037BF  0000              add [eax],al
000037C1  0000              add [eax],al
000037C3  0000              add [eax],al
000037C5  0000              add [eax],al
000037C7  0000              add [eax],al
000037C9  0000              add [eax],al
000037CB  0000              add [eax],al
000037CD  0000              add [eax],al
000037CF  0000              add [eax],al
000037D1  0000              add [eax],al
000037D3  0000              add [eax],al
000037D5  0000              add [eax],al
000037D7  0000              add [eax],al
000037D9  0000              add [eax],al
000037DB  0000              add [eax],al
000037DD  0000              add [eax],al
000037DF  0000              add [eax],al
000037E1  0000              add [eax],al
000037E3  0000              add [eax],al
000037E5  0000              add [eax],al
000037E7  0000              add [eax],al
000037E9  0000              add [eax],al
000037EB  0000              add [eax],al
000037ED  0000              add [eax],al
000037EF  0000              add [eax],al
000037F1  0000              add [eax],al
000037F3  0000              add [eax],al
000037F5  0000              add [eax],al
000037F7  0000              add [eax],al
000037F9  0000              add [eax],al
000037FB  0000              add [eax],al
000037FD  0000              add [eax],al
000037FF  0000              add [eax],al
00003801  0000              add [eax],al
00003803  0000              add [eax],al
00003805  0000              add [eax],al
00003807  0000              add [eax],al
00003809  0000              add [eax],al
0000380B  0000              add [eax],al
0000380D  0000              add [eax],al
0000380F  0000              add [eax],al
00003811  0000              add [eax],al
00003813  0000              add [eax],al
00003815  0000              add [eax],al
00003817  0000              add [eax],al
00003819  0000              add [eax],al
0000381B  0000              add [eax],al
0000381D  0000              add [eax],al
0000381F  0000              add [eax],al
00003821  0000              add [eax],al
00003823  0000              add [eax],al
00003825  0000              add [eax],al
00003827  0000              add [eax],al
00003829  0000              add [eax],al
0000382B  0000              add [eax],al
0000382D  0000              add [eax],al
0000382F  0000              add [eax],al
00003831  0000              add [eax],al
00003833  0000              add [eax],al
00003835  0000              add [eax],al
00003837  0000              add [eax],al
00003839  0000              add [eax],al
0000383B  0000              add [eax],al
0000383D  0000              add [eax],al
0000383F  0000              add [eax],al
00003841  0000              add [eax],al
00003843  0000              add [eax],al
00003845  0000              add [eax],al
00003847  0000              add [eax],al
00003849  0000              add [eax],al
0000384B  0000              add [eax],al
0000384D  0000              add [eax],al
0000384F  0000              add [eax],al
00003851  0000              add [eax],al
00003853  0000              add [eax],al
00003855  0000              add [eax],al
00003857  0000              add [eax],al
00003859  0000              add [eax],al
0000385B  0000              add [eax],al
0000385D  0000              add [eax],al
0000385F  0000              add [eax],al
00003861  0000              add [eax],al
00003863  0000              add [eax],al
00003865  0000              add [eax],al
00003867  0000              add [eax],al
00003869  0000              add [eax],al
0000386B  0000              add [eax],al
0000386D  0000              add [eax],al
0000386F  0000              add [eax],al
00003871  0000              add [eax],al
00003873  0000              add [eax],al
00003875  0000              add [eax],al
00003877  0000              add [eax],al
00003879  0000              add [eax],al
0000387B  0000              add [eax],al
0000387D  0000              add [eax],al
0000387F  0000              add [eax],al
00003881  0000              add [eax],al
00003883  0000              add [eax],al
00003885  0000              add [eax],al
00003887  0000              add [eax],al
00003889  0000              add [eax],al
0000388B  0000              add [eax],al
0000388D  0000              add [eax],al
0000388F  0000              add [eax],al
00003891  0000              add [eax],al
00003893  0000              add [eax],al
00003895  0000              add [eax],al
00003897  0000              add [eax],al
00003899  0000              add [eax],al
0000389B  0000              add [eax],al
0000389D  0000              add [eax],al
0000389F  0000              add [eax],al
000038A1  0000              add [eax],al
000038A3  0000              add [eax],al
000038A5  0000              add [eax],al
000038A7  0000              add [eax],al
000038A9  0000              add [eax],al
000038AB  0000              add [eax],al
000038AD  0000              add [eax],al
000038AF  0000              add [eax],al
000038B1  0000              add [eax],al
000038B3  0000              add [eax],al
000038B5  0000              add [eax],al
000038B7  0000              add [eax],al
000038B9  0000              add [eax],al
000038BB  0000              add [eax],al
000038BD  0000              add [eax],al
000038BF  0000              add [eax],al
000038C1  0000              add [eax],al
000038C3  0000              add [eax],al
000038C5  0000              add [eax],al
000038C7  0000              add [eax],al
000038C9  0000              add [eax],al
000038CB  0000              add [eax],al
000038CD  0000              add [eax],al
000038CF  0000              add [eax],al
000038D1  0000              add [eax],al
000038D3  0000              add [eax],al
000038D5  0000              add [eax],al
000038D7  0000              add [eax],al
000038D9  0000              add [eax],al
000038DB  0000              add [eax],al
000038DD  0000              add [eax],al
000038DF  0000              add [eax],al
000038E1  0000              add [eax],al
000038E3  0000              add [eax],al
000038E5  0000              add [eax],al
000038E7  0000              add [eax],al
000038E9  0000              add [eax],al
000038EB  0000              add [eax],al
000038ED  0000              add [eax],al
000038EF  0000              add [eax],al
000038F1  0000              add [eax],al
000038F3  0000              add [eax],al
000038F5  0000              add [eax],al
000038F7  0000              add [eax],al
000038F9  0000              add [eax],al
000038FB  0000              add [eax],al
000038FD  0000              add [eax],al
000038FF  0000              add [eax],al
00003901  0000              add [eax],al
00003903  0000              add [eax],al
00003905  0000              add [eax],al
00003907  0000              add [eax],al
00003909  0000              add [eax],al
0000390B  0000              add [eax],al
0000390D  0000              add [eax],al
0000390F  0000              add [eax],al
00003911  0000              add [eax],al
00003913  0000              add [eax],al
00003915  0000              add [eax],al
00003917  0000              add [eax],al
00003919  0000              add [eax],al
0000391B  0000              add [eax],al
0000391D  0000              add [eax],al
0000391F  0000              add [eax],al
00003921  0000              add [eax],al
00003923  0000              add [eax],al
00003925  0000              add [eax],al
00003927  0000              add [eax],al
00003929  0000              add [eax],al
0000392B  0000              add [eax],al
0000392D  0000              add [eax],al
0000392F  0000              add [eax],al
00003931  0000              add [eax],al
00003933  0000              add [eax],al
00003935  0000              add [eax],al
00003937  0000              add [eax],al
00003939  0000              add [eax],al
0000393B  0000              add [eax],al
0000393D  0000              add [eax],al
0000393F  0000              add [eax],al
00003941  0000              add [eax],al
00003943  0000              add [eax],al
00003945  0000              add [eax],al
00003947  0000              add [eax],al
00003949  0000              add [eax],al
0000394B  0000              add [eax],al
0000394D  0000              add [eax],al
0000394F  0000              add [eax],al
00003951  0000              add [eax],al
00003953  0000              add [eax],al
00003955  0000              add [eax],al
00003957  0000              add [eax],al
00003959  0000              add [eax],al
0000395B  0000              add [eax],al
0000395D  0000              add [eax],al
0000395F  0000              add [eax],al
00003961  0000              add [eax],al
00003963  0000              add [eax],al
00003965  0000              add [eax],al
00003967  0000              add [eax],al
00003969  0000              add [eax],al
0000396B  0000              add [eax],al
0000396D  0000              add [eax],al
0000396F  0000              add [eax],al
00003971  0000              add [eax],al
00003973  0000              add [eax],al
00003975  0000              add [eax],al
00003977  0000              add [eax],al
00003979  0000              add [eax],al
0000397B  0000              add [eax],al
0000397D  0000              add [eax],al
0000397F  0000              add [eax],al
00003981  0000              add [eax],al
00003983  0000              add [eax],al
00003985  0000              add [eax],al
00003987  0000              add [eax],al
00003989  0000              add [eax],al
0000398B  0000              add [eax],al
0000398D  0000              add [eax],al
0000398F  0000              add [eax],al
00003991  0000              add [eax],al
00003993  0000              add [eax],al
00003995  0000              add [eax],al
00003997  0000              add [eax],al
00003999  0000              add [eax],al
0000399B  0000              add [eax],al
0000399D  0000              add [eax],al
0000399F  0000              add [eax],al
000039A1  0000              add [eax],al
000039A3  0000              add [eax],al
000039A5  0000              add [eax],al
000039A7  0000              add [eax],al
000039A9  0000              add [eax],al
000039AB  0000              add [eax],al
000039AD  0000              add [eax],al
000039AF  0000              add [eax],al
000039B1  0000              add [eax],al
000039B3  0000              add [eax],al
000039B5  0000              add [eax],al
000039B7  0000              add [eax],al
000039B9  0000              add [eax],al
000039BB  0000              add [eax],al
000039BD  0000              add [eax],al
000039BF  0000              add [eax],al
000039C1  0000              add [eax],al
000039C3  0000              add [eax],al
000039C5  0000              add [eax],al
000039C7  0000              add [eax],al
000039C9  0000              add [eax],al
000039CB  0000              add [eax],al
000039CD  0000              add [eax],al
000039CF  0000              add [eax],al
000039D1  0000              add [eax],al
000039D3  0000              add [eax],al
000039D5  0000              add [eax],al
000039D7  0000              add [eax],al
000039D9  0000              add [eax],al
000039DB  0000              add [eax],al
000039DD  0000              add [eax],al
000039DF  0000              add [eax],al
000039E1  0000              add [eax],al
000039E3  0000              add [eax],al
000039E5  0000              add [eax],al
000039E7  0000              add [eax],al
000039E9  0000              add [eax],al
000039EB  0000              add [eax],al
000039ED  0000              add [eax],al
000039EF  0000              add [eax],al
000039F1  0000              add [eax],al
000039F3  0000              add [eax],al
000039F5  0000              add [eax],al
000039F7  0000              add [eax],al
000039F9  0000              add [eax],al
000039FB  0000              add [eax],al
000039FD  0000              add [eax],al
000039FF  0000              add [eax],al
00003A01  0000              add [eax],al
00003A03  0000              add [eax],al
00003A05  0000              add [eax],al
00003A07  0000              add [eax],al
00003A09  0000              add [eax],al
00003A0B  0000              add [eax],al
00003A0D  0000              add [eax],al
00003A0F  0000              add [eax],al
00003A11  0000              add [eax],al
00003A13  0000              add [eax],al
00003A15  0000              add [eax],al
00003A17  0000              add [eax],al
00003A19  0000              add [eax],al
00003A1B  0000              add [eax],al
00003A1D  0000              add [eax],al
00003A1F  0000              add [eax],al
00003A21  0000              add [eax],al
00003A23  0000              add [eax],al
00003A25  0000              add [eax],al
00003A27  0000              add [eax],al
00003A29  0000              add [eax],al
00003A2B  0000              add [eax],al
00003A2D  0000              add [eax],al
00003A2F  0000              add [eax],al
00003A31  0000              add [eax],al
00003A33  0000              add [eax],al
00003A35  0000              add [eax],al
00003A37  0000              add [eax],al
00003A39  0000              add [eax],al
00003A3B  0000              add [eax],al
00003A3D  0000              add [eax],al
00003A3F  0000              add [eax],al
00003A41  0000              add [eax],al
00003A43  0000              add [eax],al
00003A45  0000              add [eax],al
00003A47  0000              add [eax],al
00003A49  0000              add [eax],al
00003A4B  0000              add [eax],al
00003A4D  0000              add [eax],al
00003A4F  0000              add [eax],al
00003A51  0000              add [eax],al
00003A53  0000              add [eax],al
00003A55  0000              add [eax],al
00003A57  0000              add [eax],al
00003A59  0000              add [eax],al
00003A5B  0000              add [eax],al
00003A5D  0000              add [eax],al
00003A5F  0000              add [eax],al
00003A61  0000              add [eax],al
00003A63  0000              add [eax],al
00003A65  0000              add [eax],al
00003A67  0000              add [eax],al
00003A69  0000              add [eax],al
00003A6B  0000              add [eax],al
00003A6D  0000              add [eax],al
00003A6F  0000              add [eax],al
00003A71  0000              add [eax],al
00003A73  0000              add [eax],al
00003A75  0000              add [eax],al
00003A77  0000              add [eax],al
00003A79  0000              add [eax],al
00003A7B  0000              add [eax],al
00003A7D  0000              add [eax],al
00003A7F  0000              add [eax],al
00003A81  0000              add [eax],al
00003A83  0000              add [eax],al
00003A85  0000              add [eax],al
00003A87  0000              add [eax],al
00003A89  0000              add [eax],al
00003A8B  0000              add [eax],al
00003A8D  0000              add [eax],al
00003A8F  0000              add [eax],al
00003A91  0000              add [eax],al
00003A93  0000              add [eax],al
00003A95  0000              add [eax],al
00003A97  0000              add [eax],al
00003A99  0000              add [eax],al
00003A9B  0000              add [eax],al
00003A9D  0000              add [eax],al
00003A9F  0000              add [eax],al
00003AA1  0000              add [eax],al
00003AA3  0000              add [eax],al
00003AA5  0000              add [eax],al
00003AA7  0000              add [eax],al
00003AA9  0000              add [eax],al
00003AAB  0000              add [eax],al
00003AAD  0000              add [eax],al
00003AAF  0000              add [eax],al
00003AB1  0000              add [eax],al
00003AB3  0000              add [eax],al
00003AB5  0000              add [eax],al
00003AB7  0000              add [eax],al
00003AB9  0000              add [eax],al
00003ABB  0000              add [eax],al
00003ABD  0000              add [eax],al
00003ABF  0000              add [eax],al
00003AC1  0000              add [eax],al
00003AC3  0000              add [eax],al
00003AC5  0000              add [eax],al
00003AC7  0000              add [eax],al
00003AC9  0000              add [eax],al
00003ACB  0000              add [eax],al
00003ACD  0000              add [eax],al
00003ACF  0000              add [eax],al
00003AD1  0000              add [eax],al
00003AD3  0000              add [eax],al
00003AD5  0000              add [eax],al
00003AD7  0000              add [eax],al
00003AD9  0000              add [eax],al
00003ADB  0000              add [eax],al
00003ADD  0000              add [eax],al
00003ADF  0000              add [eax],al
00003AE1  0000              add [eax],al
00003AE3  0000              add [eax],al
00003AE5  0000              add [eax],al
00003AE7  0000              add [eax],al
00003AE9  0000              add [eax],al
00003AEB  0000              add [eax],al
00003AED  0000              add [eax],al
00003AEF  0000              add [eax],al
00003AF1  0000              add [eax],al
00003AF3  0000              add [eax],al
00003AF5  0000              add [eax],al
00003AF7  0000              add [eax],al
00003AF9  0000              add [eax],al
00003AFB  0000              add [eax],al
00003AFD  0000              add [eax],al
00003AFF  0000              add [eax],al
00003B01  0000              add [eax],al
00003B03  0000              add [eax],al
00003B05  0000              add [eax],al
00003B07  0000              add [eax],al
00003B09  0000              add [eax],al
00003B0B  0000              add [eax],al
00003B0D  0000              add [eax],al
00003B0F  0000              add [eax],al
00003B11  0000              add [eax],al
00003B13  0000              add [eax],al
00003B15  0000              add [eax],al
00003B17  0000              add [eax],al
00003B19  0000              add [eax],al
00003B1B  0000              add [eax],al
00003B1D  0000              add [eax],al
00003B1F  0000              add [eax],al
00003B21  0000              add [eax],al
00003B23  0000              add [eax],al
00003B25  0000              add [eax],al
00003B27  0000              add [eax],al
00003B29  0000              add [eax],al
00003B2B  0000              add [eax],al
00003B2D  0000              add [eax],al
00003B2F  0000              add [eax],al
00003B31  0000              add [eax],al
00003B33  0000              add [eax],al
00003B35  0000              add [eax],al
00003B37  0000              add [eax],al
00003B39  0000              add [eax],al
00003B3B  0000              add [eax],al
00003B3D  0000              add [eax],al
00003B3F  0000              add [eax],al
00003B41  0000              add [eax],al
00003B43  0000              add [eax],al
00003B45  0000              add [eax],al
00003B47  0000              add [eax],al
00003B49  0000              add [eax],al
00003B4B  0000              add [eax],al
00003B4D  0000              add [eax],al
00003B4F  0000              add [eax],al
00003B51  0000              add [eax],al
00003B53  0000              add [eax],al
00003B55  0000              add [eax],al
00003B57  0000              add [eax],al
00003B59  0000              add [eax],al
00003B5B  0000              add [eax],al
00003B5D  0000              add [eax],al
00003B5F  0000              add [eax],al
00003B61  0000              add [eax],al
00003B63  0000              add [eax],al
00003B65  0000              add [eax],al
00003B67  0000              add [eax],al
00003B69  0000              add [eax],al
00003B6B  0000              add [eax],al
00003B6D  0000              add [eax],al
00003B6F  0000              add [eax],al
00003B71  0000              add [eax],al
00003B73  0000              add [eax],al
00003B75  0000              add [eax],al
00003B77  0000              add [eax],al
00003B79  0000              add [eax],al
00003B7B  0000              add [eax],al
00003B7D  0000              add [eax],al
00003B7F  0000              add [eax],al
00003B81  0000              add [eax],al
00003B83  0000              add [eax],al
00003B85  0000              add [eax],al
00003B87  0000              add [eax],al
00003B89  0000              add [eax],al
00003B8B  0000              add [eax],al
00003B8D  0000              add [eax],al
00003B8F  0000              add [eax],al
00003B91  0000              add [eax],al
00003B93  0000              add [eax],al
00003B95  0000              add [eax],al
00003B97  0000              add [eax],al
00003B99  0000              add [eax],al
00003B9B  0000              add [eax],al
00003B9D  0000              add [eax],al
00003B9F  0000              add [eax],al
00003BA1  0000              add [eax],al
00003BA3  0000              add [eax],al
00003BA5  0000              add [eax],al
00003BA7  0000              add [eax],al
00003BA9  0000              add [eax],al
00003BAB  0000              add [eax],al
00003BAD  0000              add [eax],al
00003BAF  0000              add [eax],al
00003BB1  0000              add [eax],al
00003BB3  0000              add [eax],al
00003BB5  0000              add [eax],al
00003BB7  0000              add [eax],al
00003BB9  0000              add [eax],al
00003BBB  0000              add [eax],al
00003BBD  0000              add [eax],al
00003BBF  0000              add [eax],al
00003BC1  0000              add [eax],al
00003BC3  0000              add [eax],al
00003BC5  0000              add [eax],al
00003BC7  0000              add [eax],al
00003BC9  0000              add [eax],al
00003BCB  0000              add [eax],al
00003BCD  0000              add [eax],al
00003BCF  0000              add [eax],al
00003BD1  0000              add [eax],al
00003BD3  0000              add [eax],al
00003BD5  0000              add [eax],al
00003BD7  0000              add [eax],al
00003BD9  0000              add [eax],al
00003BDB  0000              add [eax],al
00003BDD  0000              add [eax],al
00003BDF  0000              add [eax],al
00003BE1  0000              add [eax],al
00003BE3  0000              add [eax],al
00003BE5  0000              add [eax],al
00003BE7  0000              add [eax],al
00003BE9  0000              add [eax],al
00003BEB  0000              add [eax],al
00003BED  0000              add [eax],al
00003BEF  0000              add [eax],al
00003BF1  0000              add [eax],al
00003BF3  0000              add [eax],al
00003BF5  0000              add [eax],al
00003BF7  0000              add [eax],al
00003BF9  0000              add [eax],al
00003BFB  0000              add [eax],al
00003BFD  0000              add [eax],al
00003BFF  0000              add [eax],al
00003C01  0000              add [eax],al
00003C03  0000              add [eax],al
00003C05  0000              add [eax],al
00003C07  0000              add [eax],al
00003C09  0000              add [eax],al
00003C0B  0000              add [eax],al
00003C0D  0000              add [eax],al
00003C0F  0000              add [eax],al
00003C11  0000              add [eax],al
00003C13  0000              add [eax],al
00003C15  0000              add [eax],al
00003C17  0000              add [eax],al
00003C19  0000              add [eax],al
00003C1B  0000              add [eax],al
00003C1D  0000              add [eax],al
00003C1F  0000              add [eax],al
00003C21  0000              add [eax],al
00003C23  0000              add [eax],al
00003C25  0000              add [eax],al
00003C27  0000              add [eax],al
00003C29  0000              add [eax],al
00003C2B  0000              add [eax],al
00003C2D  0000              add [eax],al
00003C2F  0000              add [eax],al
00003C31  0000              add [eax],al
00003C33  0000              add [eax],al
00003C35  0000              add [eax],al
00003C37  0000              add [eax],al
00003C39  0000              add [eax],al
00003C3B  0000              add [eax],al
00003C3D  0000              add [eax],al
00003C3F  0000              add [eax],al
00003C41  0000              add [eax],al
00003C43  0000              add [eax],al
00003C45  0000              add [eax],al
00003C47  0000              add [eax],al
00003C49  0000              add [eax],al
00003C4B  0000              add [eax],al
00003C4D  0000              add [eax],al
00003C4F  0000              add [eax],al
00003C51  0000              add [eax],al
00003C53  0000              add [eax],al
00003C55  0000              add [eax],al
00003C57  0000              add [eax],al
00003C59  0000              add [eax],al
00003C5B  0000              add [eax],al
00003C5D  0000              add [eax],al
00003C5F  0000              add [eax],al
00003C61  0000              add [eax],al
00003C63  0000              add [eax],al
00003C65  0000              add [eax],al
00003C67  0000              add [eax],al
00003C69  0000              add [eax],al
00003C6B  0000              add [eax],al
00003C6D  0000              add [eax],al
00003C6F  0000              add [eax],al
00003C71  0000              add [eax],al
00003C73  0000              add [eax],al
00003C75  0000              add [eax],al
00003C77  0000              add [eax],al
00003C79  0000              add [eax],al
00003C7B  0000              add [eax],al
00003C7D  0000              add [eax],al
00003C7F  0000              add [eax],al
00003C81  0000              add [eax],al
00003C83  0000              add [eax],al
00003C85  0000              add [eax],al
00003C87  0000              add [eax],al
00003C89  0000              add [eax],al
00003C8B  0000              add [eax],al
00003C8D  0000              add [eax],al
00003C8F  0000              add [eax],al
00003C91  0000              add [eax],al
00003C93  0000              add [eax],al
00003C95  0000              add [eax],al
00003C97  0000              add [eax],al
00003C99  0000              add [eax],al
00003C9B  0000              add [eax],al
00003C9D  0000              add [eax],al
00003C9F  0000              add [eax],al
00003CA1  0000              add [eax],al
00003CA3  0000              add [eax],al
00003CA5  0000              add [eax],al
00003CA7  0000              add [eax],al
00003CA9  0000              add [eax],al
00003CAB  0000              add [eax],al
00003CAD  0000              add [eax],al
00003CAF  0000              add [eax],al
00003CB1  0000              add [eax],al
00003CB3  0000              add [eax],al
00003CB5  0000              add [eax],al
00003CB7  0000              add [eax],al
00003CB9  0000              add [eax],al
00003CBB  0000              add [eax],al
00003CBD  0000              add [eax],al
00003CBF  0000              add [eax],al
00003CC1  0000              add [eax],al
00003CC3  0000              add [eax],al
00003CC5  0000              add [eax],al
00003CC7  0000              add [eax],al
00003CC9  0000              add [eax],al
00003CCB  0000              add [eax],al
00003CCD  0000              add [eax],al
00003CCF  0000              add [eax],al
00003CD1  0000              add [eax],al
00003CD3  0000              add [eax],al
00003CD5  0000              add [eax],al
00003CD7  0000              add [eax],al
00003CD9  0000              add [eax],al
00003CDB  0000              add [eax],al
00003CDD  0000              add [eax],al
00003CDF  0000              add [eax],al
00003CE1  0000              add [eax],al
00003CE3  0000              add [eax],al
00003CE5  0000              add [eax],al
00003CE7  0000              add [eax],al
00003CE9  0000              add [eax],al
00003CEB  0000              add [eax],al
00003CED  0000              add [eax],al
00003CEF  0000              add [eax],al
00003CF1  0000              add [eax],al
00003CF3  0000              add [eax],al
00003CF5  0000              add [eax],al
00003CF7  0000              add [eax],al
00003CF9  0000              add [eax],al
00003CFB  0000              add [eax],al
00003CFD  0000              add [eax],al
00003CFF  0000              add [eax],al
00003D01  0000              add [eax],al
00003D03  0000              add [eax],al
00003D05  0000              add [eax],al
00003D07  0000              add [eax],al
00003D09  0000              add [eax],al
00003D0B  0000              add [eax],al
00003D0D  0000              add [eax],al
00003D0F  0000              add [eax],al
00003D11  0000              add [eax],al
00003D13  0000              add [eax],al
00003D15  0000              add [eax],al
00003D17  0000              add [eax],al
00003D19  0000              add [eax],al
00003D1B  0000              add [eax],al
00003D1D  0000              add [eax],al
00003D1F  0000              add [eax],al
00003D21  0000              add [eax],al
00003D23  0000              add [eax],al
00003D25  0000              add [eax],al
00003D27  0000              add [eax],al
00003D29  0000              add [eax],al
00003D2B  0000              add [eax],al
00003D2D  0000              add [eax],al
00003D2F  0000              add [eax],al
00003D31  0000              add [eax],al
00003D33  0000              add [eax],al
00003D35  0000              add [eax],al
00003D37  0000              add [eax],al
00003D39  0000              add [eax],al
00003D3B  0000              add [eax],al
00003D3D  0000              add [eax],al
00003D3F  0000              add [eax],al
00003D41  0000              add [eax],al
00003D43  0000              add [eax],al
00003D45  0000              add [eax],al
00003D47  0000              add [eax],al
00003D49  0000              add [eax],al
00003D4B  0000              add [eax],al
00003D4D  0000              add [eax],al
00003D4F  0000              add [eax],al
00003D51  0000              add [eax],al
00003D53  0000              add [eax],al
00003D55  0000              add [eax],al
00003D57  0000              add [eax],al
00003D59  0000              add [eax],al
00003D5B  0000              add [eax],al
00003D5D  0000              add [eax],al
00003D5F  0000              add [eax],al
00003D61  0000              add [eax],al
00003D63  0000              add [eax],al
00003D65  0000              add [eax],al
00003D67  0000              add [eax],al
00003D69  0000              add [eax],al
00003D6B  0000              add [eax],al
00003D6D  0000              add [eax],al
00003D6F  0000              add [eax],al
00003D71  0000              add [eax],al
00003D73  0000              add [eax],al
00003D75  0000              add [eax],al
00003D77  0000              add [eax],al
00003D79  0000              add [eax],al
00003D7B  0000              add [eax],al
00003D7D  0000              add [eax],al
00003D7F  0000              add [eax],al
00003D81  0000              add [eax],al
00003D83  0000              add [eax],al
00003D85  0000              add [eax],al
00003D87  0000              add [eax],al
00003D89  0000              add [eax],al
00003D8B  0000              add [eax],al
00003D8D  0000              add [eax],al
00003D8F  0000              add [eax],al
00003D91  0000              add [eax],al
00003D93  0000              add [eax],al
00003D95  0000              add [eax],al
00003D97  0000              add [eax],al
00003D99  0000              add [eax],al
00003D9B  0000              add [eax],al
00003D9D  0000              add [eax],al
00003D9F  0000              add [eax],al
00003DA1  0000              add [eax],al
00003DA3  0000              add [eax],al
00003DA5  0000              add [eax],al
00003DA7  0000              add [eax],al
00003DA9  0000              add [eax],al
00003DAB  0000              add [eax],al
00003DAD  0000              add [eax],al
00003DAF  0000              add [eax],al
00003DB1  0000              add [eax],al
00003DB3  0000              add [eax],al
00003DB5  0000              add [eax],al
00003DB7  0000              add [eax],al
00003DB9  0000              add [eax],al
00003DBB  0000              add [eax],al
00003DBD  0000              add [eax],al
00003DBF  0000              add [eax],al
00003DC1  0000              add [eax],al
00003DC3  0000              add [eax],al
00003DC5  0000              add [eax],al
00003DC7  0000              add [eax],al
00003DC9  0000              add [eax],al
00003DCB  0000              add [eax],al
00003DCD  0000              add [eax],al
00003DCF  0000              add [eax],al
00003DD1  0000              add [eax],al
00003DD3  0000              add [eax],al
00003DD5  0000              add [eax],al
00003DD7  0000              add [eax],al
00003DD9  0000              add [eax],al
00003DDB  0000              add [eax],al
00003DDD  0000              add [eax],al
00003DDF  0000              add [eax],al
00003DE1  0000              add [eax],al
00003DE3  0000              add [eax],al
00003DE5  0000              add [eax],al
00003DE7  0000              add [eax],al
00003DE9  0000              add [eax],al
00003DEB  0000              add [eax],al
00003DED  0000              add [eax],al
00003DEF  0000              add [eax],al
00003DF1  0000              add [eax],al
00003DF3  0000              add [eax],al
00003DF5  0000              add [eax],al
00003DF7  0000              add [eax],al
00003DF9  0000              add [eax],al
00003DFB  0000              add [eax],al
00003DFD  0000              add [eax],al
00003DFF  0000              add [eax],al
00003E01  0000              add [eax],al
00003E03  0000              add [eax],al
00003E05  0000              add [eax],al
00003E07  0000              add [eax],al
00003E09  0000              add [eax],al
00003E0B  0000              add [eax],al
00003E0D  0000              add [eax],al
00003E0F  0000              add [eax],al
00003E11  0000              add [eax],al
00003E13  0000              add [eax],al
00003E15  0000              add [eax],al
00003E17  0000              add [eax],al
00003E19  0000              add [eax],al
00003E1B  0000              add [eax],al
00003E1D  0000              add [eax],al
00003E1F  0000              add [eax],al
00003E21  0000              add [eax],al
00003E23  0000              add [eax],al
00003E25  0000              add [eax],al
00003E27  0000              add [eax],al
00003E29  0000              add [eax],al
00003E2B  0000              add [eax],al
00003E2D  0000              add [eax],al
00003E2F  0000              add [eax],al
00003E31  0000              add [eax],al
00003E33  0000              add [eax],al
00003E35  0000              add [eax],al
00003E37  0000              add [eax],al
00003E39  0000              add [eax],al
00003E3B  0000              add [eax],al
00003E3D  0000              add [eax],al
00003E3F  0000              add [eax],al
00003E41  0000              add [eax],al
00003E43  0000              add [eax],al
00003E45  0000              add [eax],al
00003E47  0000              add [eax],al
00003E49  0000              add [eax],al
00003E4B  0000              add [eax],al
00003E4D  0000              add [eax],al
00003E4F  0000              add [eax],al
00003E51  0000              add [eax],al
00003E53  0000              add [eax],al
00003E55  0000              add [eax],al
00003E57  0000              add [eax],al
00003E59  0000              add [eax],al
00003E5B  0000              add [eax],al
00003E5D  0000              add [eax],al
00003E5F  0000              add [eax],al
00003E61  0000              add [eax],al
00003E63  0000              add [eax],al
00003E65  0000              add [eax],al
00003E67  0000              add [eax],al
00003E69  0000              add [eax],al
00003E6B  0000              add [eax],al
00003E6D  0000              add [eax],al
00003E6F  0000              add [eax],al
00003E71  0000              add [eax],al
00003E73  0000              add [eax],al
00003E75  0000              add [eax],al
00003E77  0000              add [eax],al
00003E79  0000              add [eax],al
00003E7B  0000              add [eax],al
00003E7D  0000              add [eax],al
00003E7F  0000              add [eax],al
00003E81  0000              add [eax],al
00003E83  0000              add [eax],al
00003E85  0000              add [eax],al
00003E87  0000              add [eax],al
00003E89  0000              add [eax],al
00003E8B  0000              add [eax],al
00003E8D  0000              add [eax],al
00003E8F  0000              add [eax],al
00003E91  0000              add [eax],al
00003E93  0000              add [eax],al
00003E95  0000              add [eax],al
00003E97  0000              add [eax],al
00003E99  0000              add [eax],al
00003E9B  0000              add [eax],al
00003E9D  0000              add [eax],al
00003E9F  0000              add [eax],al
00003EA1  0000              add [eax],al
00003EA3  0000              add [eax],al
00003EA5  0000              add [eax],al
00003EA7  0000              add [eax],al
00003EA9  0000              add [eax],al
00003EAB  0000              add [eax],al
00003EAD  0000              add [eax],al
00003EAF  0000              add [eax],al
00003EB1  0000              add [eax],al
00003EB3  0000              add [eax],al
00003EB5  0000              add [eax],al
00003EB7  0000              add [eax],al
00003EB9  0000              add [eax],al
00003EBB  0000              add [eax],al
00003EBD  0000              add [eax],al
00003EBF  0000              add [eax],al
00003EC1  0000              add [eax],al
00003EC3  0000              add [eax],al
00003EC5  0000              add [eax],al
00003EC7  0000              add [eax],al
00003EC9  0000              add [eax],al
00003ECB  0000              add [eax],al
00003ECD  0000              add [eax],al
00003ECF  0000              add [eax],al
00003ED1  0000              add [eax],al
00003ED3  0000              add [eax],al
00003ED5  0000              add [eax],al
00003ED7  0000              add [eax],al
00003ED9  0000              add [eax],al
00003EDB  0000              add [eax],al
00003EDD  0000              add [eax],al
00003EDF  0000              add [eax],al
00003EE1  0000              add [eax],al
00003EE3  0000              add [eax],al
00003EE5  0000              add [eax],al
00003EE7  0000              add [eax],al
00003EE9  0000              add [eax],al
00003EEB  0000              add [eax],al
00003EED  0000              add [eax],al
00003EEF  0000              add [eax],al
00003EF1  0000              add [eax],al
00003EF3  0000              add [eax],al
00003EF5  0000              add [eax],al
00003EF7  0000              add [eax],al
00003EF9  0000              add [eax],al
00003EFB  0000              add [eax],al
00003EFD  0000              add [eax],al
00003EFF  0000              add [eax],al
00003F01  0000              add [eax],al
00003F03  0000              add [eax],al
00003F05  0000              add [eax],al
00003F07  0000              add [eax],al
00003F09  0000              add [eax],al
00003F0B  0000              add [eax],al
00003F0D  0000              add [eax],al
00003F0F  0000              add [eax],al
00003F11  0000              add [eax],al
00003F13  0000              add [eax],al
00003F15  0000              add [eax],al
00003F17  0000              add [eax],al
00003F19  0000              add [eax],al
00003F1B  0000              add [eax],al
00003F1D  0000              add [eax],al
00003F1F  0000              add [eax],al
00003F21  0000              add [eax],al
00003F23  0000              add [eax],al
00003F25  0000              add [eax],al
00003F27  0000              add [eax],al
00003F29  0000              add [eax],al
00003F2B  0000              add [eax],al
00003F2D  0000              add [eax],al
00003F2F  0000              add [eax],al
00003F31  0000              add [eax],al
00003F33  0000              add [eax],al
00003F35  0000              add [eax],al
00003F37  0000              add [eax],al
00003F39  0000              add [eax],al
00003F3B  0000              add [eax],al
00003F3D  0000              add [eax],al
00003F3F  0000              add [eax],al
00003F41  0000              add [eax],al
00003F43  0000              add [eax],al
00003F45  0000              add [eax],al
00003F47  0000              add [eax],al
00003F49  0000              add [eax],al
00003F4B  0000              add [eax],al
00003F4D  0000              add [eax],al
00003F4F  0000              add [eax],al
00003F51  0000              add [eax],al
00003F53  0000              add [eax],al
00003F55  0000              add [eax],al
00003F57  0000              add [eax],al
00003F59  0000              add [eax],al
00003F5B  0000              add [eax],al
00003F5D  0000              add [eax],al
00003F5F  0000              add [eax],al
00003F61  0000              add [eax],al
00003F63  0000              add [eax],al
00003F65  0000              add [eax],al
00003F67  0000              add [eax],al
00003F69  0000              add [eax],al
00003F6B  0000              add [eax],al
00003F6D  0000              add [eax],al
00003F6F  0000              add [eax],al
00003F71  0000              add [eax],al
00003F73  0000              add [eax],al
00003F75  0000              add [eax],al
00003F77  0000              add [eax],al
00003F79  0000              add [eax],al
00003F7B  0000              add [eax],al
00003F7D  0000              add [eax],al
00003F7F  0000              add [eax],al
00003F81  0000              add [eax],al
00003F83  0000              add [eax],al
00003F85  0000              add [eax],al
00003F87  0000              add [eax],al
00003F89  0000              add [eax],al
00003F8B  0000              add [eax],al
00003F8D  0000              add [eax],al
00003F8F  0000              add [eax],al
00003F91  0000              add [eax],al
00003F93  0000              add [eax],al
00003F95  0000              add [eax],al
00003F97  0000              add [eax],al
00003F99  0000              add [eax],al
00003F9B  0000              add [eax],al
00003F9D  0000              add [eax],al
00003F9F  0000              add [eax],al
00003FA1  0000              add [eax],al
00003FA3  0000              add [eax],al
00003FA5  0000              add [eax],al
00003FA7  0000              add [eax],al
00003FA9  0000              add [eax],al
00003FAB  0000              add [eax],al
00003FAD  0000              add [eax],al
00003FAF  0000              add [eax],al
00003FB1  0000              add [eax],al
00003FB3  0000              add [eax],al
00003FB5  0000              add [eax],al
00003FB7  0000              add [eax],al
00003FB9  0000              add [eax],al
00003FBB  0000              add [eax],al
00003FBD  0000              add [eax],al
00003FBF  0000              add [eax],al
00003FC1  0000              add [eax],al
00003FC3  0000              add [eax],al
00003FC5  0000              add [eax],al
00003FC7  0000              add [eax],al
00003FC9  0000              add [eax],al
00003FCB  0000              add [eax],al
00003FCD  0000              add [eax],al
00003FCF  0000              add [eax],al
00003FD1  0000              add [eax],al
00003FD3  0000              add [eax],al
00003FD5  0000              add [eax],al
00003FD7  0000              add [eax],al
00003FD9  0000              add [eax],al
00003FDB  0000              add [eax],al
00003FDD  0000              add [eax],al
00003FDF  0000              add [eax],al
00003FE1  0000              add [eax],al
00003FE3  0000              add [eax],al
00003FE5  0000              add [eax],al
00003FE7  0000              add [eax],al
00003FE9  0000              add [eax],al
00003FEB  0000              add [eax],al
00003FED  0000              add [eax],al
00003FEF  0000              add [eax],al
00003FF1  0000              add [eax],al
00003FF3  0000              add [eax],al
00003FF5  0000              add [eax],al
00003FF7  0000              add [eax],al
00003FF9  0000              add [eax],al
00003FFB  0000              add [eax],al
00003FFD  0000              add [eax],al
00003FFF  004C3210          add [edx+esi+0x10],cl
00004003  005D32            add [ebp+0x32],bl
00004006  1000              adc [eax],al
00004008  6332              arpl [edx],si
0000400A  1000              adc [eax],al
0000400C  7A32              jpe 0x4040
0000400E  1000              adc [eax],al
00004010  8532              test [edx],esi
00004012  1000              adc [eax],al
00004014  9C                pushf
00004015  3210              xor dl,[eax]
00004017  00AA321000B9      add [edx-0x46ffefce],ch
0000401D  3210              xor dl,[eax]
0000401F  00C8              add al,cl
00004021  3210              xor dl,[eax]
00004023  00D5              add ch,dl
00004025  3210              xor dl,[eax]
00004027  00F1              add cl,dh
00004029  3210              xor dl,[eax]
0000402B  00F9              add cl,bh
0000402D  3210              xor dl,[eax]
0000402F  000D33100019      add [dword 0x19001033],cl
00004035  3310              xor edx,[eax]
00004037  0032              add [edx],dh
00004039  3310              xor edx,[eax]
0000403B  003D3310004F      add [dword 0x4f001033],bh
00004041  3310              xor edx,[eax]
00004043  006133            add [ecx+0x33],ah
00004046  1000              adc [eax],al
00004048  7133              jno 0x407d
0000404A  1000              adc [eax],al
0000404C  7F33              jg 0x4081
0000404E  1000              adc [eax],al
00004050  7F33              jg 0x4085
00004052  1000              adc [eax],al
00004054  7F33              jg 0x4089
00004056  1000              adc [eax],al
00004058  7F33              jg 0x408d
0000405A  1000              adc [eax],al
0000405C  7F33              jg 0x4091
0000405E  1000              adc [eax],al
00004060  7F33              jg 0x4095
00004062  1000              adc [eax],al
00004064  7F33              jg 0x4099
00004066  1000              adc [eax],al
00004068  7F33              jg 0x409d
0000406A  1000              adc [eax],al
0000406C  7F33              jg 0x40a1
0000406E  1000              adc [eax],al
00004070  7F33              jg 0x40a5
00004072  1000              adc [eax],al
00004074  7F33              jg 0x40a9
00004076  1000              adc [eax],al
00004078  7F33              jg 0x40ad
0000407A  1000              adc [eax],al
0000407C  7F33              jg 0x40b1
0000407E  1000              adc [eax],al
00004080  B826120000        mov eax,0x1226
00004085  0000              add [eax],al
00004087  0000              add [eax],al
00004089  0000              add [eax],al
0000408B  0000              add [eax],al
0000408D  0000              add [eax],al
0000408F  0000              add [eax],al
00004091  0000              add [eax],al
00004093  0000              add [eax],al
00004095  0000              add [eax],al
00004097  0000              add [eax],al
00004099  0000              add [eax],al
0000409B  0000              add [eax],al
0000409D  0000              add [eax],al
0000409F  0000              add [eax],al
000040A1  0000              add [eax],al
000040A3  0000              add [eax],al
000040A5  0000              add [eax],al
000040A7  0000              add [eax],al
000040A9  0000              add [eax],al
000040AB  0000              add [eax],al
000040AD  0000              add [eax],al
000040AF  0000              add [eax],al
000040B1  0000              add [eax],al
000040B3  0000              add [eax],al
000040B5  0000              add [eax],al
000040B7  0000              add [eax],al
000040B9  0000              add [eax],al
000040BB  0000              add [eax],al
000040BD  0000              add [eax],al
000040BF  0000              add [eax],al
000040C1  0000              add [eax],al
000040C3  0000              add [eax],al
000040C5  0000              add [eax],al
000040C7  0000              add [eax],al
000040C9  0000              add [eax],al
000040CB  0000              add [eax],al
000040CD  0000              add [eax],al
000040CF  0000              add [eax],al
000040D1  0000              add [eax],al
000040D3  0000              add [eax],al
000040D5  0000              add [eax],al
000040D7  0000              add [eax],al
000040D9  0000              add [eax],al
000040DB  0000              add [eax],al
000040DD  0000              add [eax],al
000040DF  0000              add [eax],al
000040E1  0000              add [eax],al
000040E3  0000              add [eax],al
000040E5  0000              add [eax],al
000040E7  0000              add [eax],al
000040E9  0000              add [eax],al
000040EB  0000              add [eax],al
000040ED  0000              add [eax],al
000040EF  0000              add [eax],al
000040F1  0000              add [eax],al
000040F3  0000              add [eax],al
000040F5  0000              add [eax],al
000040F7  0000              add [eax],al
000040F9  0000              add [eax],al
000040FB  0000              add [eax],al
000040FD  0000              add [eax],al
000040FF  0000              add [eax],al
00004101  0000              add [eax],al
00004103  0000              add [eax],al
00004105  0000              add [eax],al
00004107  0000              add [eax],al
00004109  0000              add [eax],al
0000410B  0000              add [eax],al
0000410D  0000              add [eax],al
0000410F  0000              add [eax],al
00004111  0000              add [eax],al
00004113  0000              add [eax],al
00004115  0000              add [eax],al
00004117  0000              add [eax],al
00004119  0000              add [eax],al
0000411B  0000              add [eax],al
0000411D  0000              add [eax],al
0000411F  0000              add [eax],al
00004121  0000              add [eax],al
00004123  0000              add [eax],al
00004125  0000              add [eax],al
00004127  0000              add [eax],al
00004129  0000              add [eax],al
0000412B  0000              add [eax],al
0000412D  0000              add [eax],al
0000412F  0000              add [eax],al
00004131  0000              add [eax],al
00004133  0000              add [eax],al
00004135  0000              add [eax],al
00004137  0000              add [eax],al
00004139  0000              add [eax],al
0000413B  0000              add [eax],al
0000413D  0000              add [eax],al
0000413F  0000              add [eax],al
00004141  0000              add [eax],al
00004143  0000              add [eax],al
00004145  0000              add [eax],al
00004147  0000              add [eax],al
00004149  0000              add [eax],al
0000414B  0000              add [eax],al
0000414D  0000              add [eax],al
0000414F  0000              add [eax],al
00004151  0000              add [eax],al
00004153  0000              add [eax],al
00004155  0000              add [eax],al
00004157  0000              add [eax],al
00004159  0000              add [eax],al
0000415B  0000              add [eax],al
0000415D  0000              add [eax],al
0000415F  0000              add [eax],al
00004161  0000              add [eax],al
00004163  0000              add [eax],al
00004165  0000              add [eax],al
00004167  0000              add [eax],al
00004169  0000              add [eax],al
0000416B  0000              add [eax],al
0000416D  0000              add [eax],al
0000416F  0000              add [eax],al
00004171  0000              add [eax],al
00004173  0000              add [eax],al
00004175  0000              add [eax],al
00004177  0000              add [eax],al
00004179  0000              add [eax],al
0000417B  0000              add [eax],al
0000417D  0000              add [eax],al
0000417F  0000              add [eax],al
00004181  0000              add [eax],al
00004183  0000              add [eax],al
00004185  0000              add [eax],al
00004187  0000              add [eax],al
00004189  0000              add [eax],al
0000418B  0000              add [eax],al
0000418D  0000              add [eax],al
0000418F  0000              add [eax],al
00004191  0000              add [eax],al
00004193  0000              add [eax],al
00004195  0000              add [eax],al
00004197  0000              add [eax],al
00004199  0000              add [eax],al
0000419B  0000              add [eax],al
0000419D  0000              add [eax],al
0000419F  0000              add [eax],al
000041A1  0000              add [eax],al
000041A3  0000              add [eax],al
000041A5  0000              add [eax],al
000041A7  0000              add [eax],al
000041A9  0000              add [eax],al
000041AB  0000              add [eax],al
000041AD  0000              add [eax],al
000041AF  0000              add [eax],al
000041B1  0000              add [eax],al
000041B3  0000              add [eax],al
000041B5  0000              add [eax],al
000041B7  0000              add [eax],al
000041B9  0000              add [eax],al
000041BB  0000              add [eax],al
000041BD  0000              add [eax],al
000041BF  0000              add [eax],al
000041C1  0000              add [eax],al
000041C3  0000              add [eax],al
000041C5  0000              add [eax],al
000041C7  0000              add [eax],al
000041C9  0000              add [eax],al
000041CB  0000              add [eax],al
000041CD  0000              add [eax],al
000041CF  0000              add [eax],al
000041D1  0000              add [eax],al
000041D3  0000              add [eax],al
000041D5  0000              add [eax],al
000041D7  0000              add [eax],al
000041D9  0000              add [eax],al
000041DB  0000              add [eax],al
000041DD  0000              add [eax],al
000041DF  0000              add [eax],al
000041E1  0000              add [eax],al
000041E3  0000              add [eax],al
000041E5  0000              add [eax],al
000041E7  0000              add [eax],al
000041E9  0000              add [eax],al
000041EB  0000              add [eax],al
000041ED  0000              add [eax],al
000041EF  0000              add [eax],al
000041F1  0000              add [eax],al
000041F3  0000              add [eax],al
000041F5  0000              add [eax],al
000041F7  0000              add [eax],al
000041F9  0000              add [eax],al
000041FB  0000              add [eax],al
000041FD  0000              add [eax],al
000041FF  0000              add [eax],al
00004201  0000              add [eax],al
00004203  0000              add [eax],al
00004205  0000              add [eax],al
00004207  0000              add [eax],al
00004209  0000              add [eax],al
0000420B  0000              add [eax],al
0000420D  0000              add [eax],al
0000420F  0000              add [eax],al
00004211  0000              add [eax],al
00004213  0000              add [eax],al
00004215  0000              add [eax],al
00004217  0000              add [eax],al
00004219  0000              add [eax],al
0000421B  0000              add [eax],al
0000421D  0000              add [eax],al
0000421F  0000              add [eax],al
00004221  0000              add [eax],al
00004223  0000              add [eax],al
00004225  0000              add [eax],al
00004227  0000              add [eax],al
00004229  0000              add [eax],al
0000422B  0000              add [eax],al
0000422D  0000              add [eax],al
0000422F  0000              add [eax],al
00004231  0000              add [eax],al
00004233  0000              add [eax],al
00004235  0000              add [eax],al
00004237  0000              add [eax],al
00004239  0000              add [eax],al
0000423B  0000              add [eax],al
0000423D  0000              add [eax],al
0000423F  0000              add [eax],al
00004241  0000              add [eax],al
00004243  0000              add [eax],al
00004245  0000              add [eax],al
00004247  0000              add [eax],al
00004249  0000              add [eax],al
0000424B  0000              add [eax],al
0000424D  0000              add [eax],al
0000424F  0000              add [eax],al
00004251  0000              add [eax],al
00004253  0000              add [eax],al
00004255  0000              add [eax],al
00004257  0000              add [eax],al
00004259  0000              add [eax],al
0000425B  0000              add [eax],al
0000425D  0000              add [eax],al
0000425F  0000              add [eax],al
00004261  0000              add [eax],al
00004263  0000              add [eax],al
00004265  0000              add [eax],al
00004267  0000              add [eax],al
00004269  0000              add [eax],al
0000426B  0000              add [eax],al
0000426D  0000              add [eax],al
0000426F  0000              add [eax],al
00004271  0000              add [eax],al
00004273  0000              add [eax],al
00004275  0000              add [eax],al
00004277  0000              add [eax],al
00004279  0000              add [eax],al
0000427B  0000              add [eax],al
0000427D  0000              add [eax],al
0000427F  0000              add [eax],al
00004281  0000              add [eax],al
00004283  0000              add [eax],al
00004285  0000              add [eax],al
00004287  0000              add [eax],al
00004289  0000              add [eax],al
0000428B  0000              add [eax],al
0000428D  0000              add [eax],al
0000428F  0000              add [eax],al
00004291  0000              add [eax],al
00004293  0000              add [eax],al
00004295  0000              add [eax],al
00004297  0000              add [eax],al
00004299  0000              add [eax],al
0000429B  0000              add [eax],al
0000429D  0000              add [eax],al
0000429F  0000              add [eax],al
000042A1  0000              add [eax],al
000042A3  0000              add [eax],al
000042A5  0000              add [eax],al
000042A7  0000              add [eax],al
000042A9  0000              add [eax],al
000042AB  0000              add [eax],al
000042AD  0000              add [eax],al
000042AF  0000              add [eax],al
000042B1  0000              add [eax],al
000042B3  0000              add [eax],al
000042B5  0000              add [eax],al
000042B7  0000              add [eax],al
000042B9  0000              add [eax],al
000042BB  0000              add [eax],al
000042BD  0000              add [eax],al
000042BF  0000              add [eax],al
000042C1  0000              add [eax],al
000042C3  0000              add [eax],al
000042C5  0000              add [eax],al
000042C7  0000              add [eax],al
000042C9  0000              add [eax],al
000042CB  0000              add [eax],al
000042CD  0000              add [eax],al
000042CF  0000              add [eax],al
000042D1  0000              add [eax],al
000042D3  0000              add [eax],al
000042D5  0000              add [eax],al
000042D7  0000              add [eax],al
000042D9  0000              add [eax],al
000042DB  0000              add [eax],al
000042DD  0000              add [eax],al
000042DF  0000              add [eax],al
000042E1  0000              add [eax],al
000042E3  0000              add [eax],al
000042E5  0000              add [eax],al
000042E7  0000              add [eax],al
000042E9  0000              add [eax],al
000042EB  0000              add [eax],al
000042ED  0000              add [eax],al
000042EF  0000              add [eax],al
000042F1  0000              add [eax],al
000042F3  0000              add [eax],al
000042F5  0000              add [eax],al
000042F7  0000              add [eax],al
000042F9  0000              add [eax],al
000042FB  0000              add [eax],al
000042FD  0000              add [eax],al
000042FF  0000              add [eax],al
00004301  0000              add [eax],al
00004303  0000              add [eax],al
00004305  0000              add [eax],al
00004307  0000              add [eax],al
00004309  0000              add [eax],al
0000430B  0000              add [eax],al
0000430D  0000              add [eax],al
0000430F  0000              add [eax],al
00004311  0000              add [eax],al
00004313  0000              add [eax],al
00004315  0000              add [eax],al
00004317  0000              add [eax],al
00004319  0000              add [eax],al
0000431B  0000              add [eax],al
0000431D  0000              add [eax],al
0000431F  0000              add [eax],al
00004321  0000              add [eax],al
00004323  0000              add [eax],al
00004325  0000              add [eax],al
00004327  0000              add [eax],al
00004329  0000              add [eax],al
0000432B  0000              add [eax],al
0000432D  0000              add [eax],al
0000432F  0000              add [eax],al
00004331  0000              add [eax],al
00004333  0000              add [eax],al
00004335  0000              add [eax],al
00004337  0000              add [eax],al
00004339  0000              add [eax],al
0000433B  0000              add [eax],al
0000433D  0000              add [eax],al
0000433F  0000              add [eax],al
00004341  0000              add [eax],al
00004343  0000              add [eax],al
00004345  0000              add [eax],al
00004347  0000              add [eax],al
00004349  0000              add [eax],al
0000434B  0000              add [eax],al
0000434D  0000              add [eax],al
0000434F  0000              add [eax],al
00004351  0000              add [eax],al
00004353  0000              add [eax],al
00004355  0000              add [eax],al
00004357  0000              add [eax],al
00004359  0000              add [eax],al
0000435B  0000              add [eax],al
0000435D  0000              add [eax],al
0000435F  0000              add [eax],al
00004361  0000              add [eax],al
00004363  0000              add [eax],al
00004365  0000              add [eax],al
00004367  0000              add [eax],al
00004369  0000              add [eax],al
0000436B  0000              add [eax],al
0000436D  0000              add [eax],al
0000436F  0000              add [eax],al
00004371  0000              add [eax],al
00004373  0000              add [eax],al
00004375  0000              add [eax],al
00004377  0000              add [eax],al
00004379  0000              add [eax],al
0000437B  0000              add [eax],al
0000437D  0000              add [eax],al
0000437F  0000              add [eax],al
00004381  0000              add [eax],al
00004383  0000              add [eax],al
00004385  0000              add [eax],al
00004387  0000              add [eax],al
00004389  0000              add [eax],al
0000438B  0000              add [eax],al
0000438D  0000              add [eax],al
0000438F  0000              add [eax],al
00004391  0000              add [eax],al
00004393  0000              add [eax],al
00004395  0000              add [eax],al
00004397  0000              add [eax],al
00004399  0000              add [eax],al
0000439B  0000              add [eax],al
0000439D  0000              add [eax],al
0000439F  0000              add [eax],al
000043A1  0000              add [eax],al
000043A3  0000              add [eax],al
000043A5  0000              add [eax],al
000043A7  0000              add [eax],al
000043A9  0000              add [eax],al
000043AB  0000              add [eax],al
000043AD  0000              add [eax],al
000043AF  0000              add [eax],al
000043B1  0000              add [eax],al
000043B3  0000              add [eax],al
000043B5  0000              add [eax],al
000043B7  0000              add [eax],al
000043B9  0000              add [eax],al
000043BB  0000              add [eax],al
000043BD  0000              add [eax],al
000043BF  0000              add [eax],al
000043C1  0000              add [eax],al
000043C3  0000              add [eax],al
000043C5  0000              add [eax],al
000043C7  0000              add [eax],al
000043C9  0000              add [eax],al
000043CB  0000              add [eax],al
000043CD  0000              add [eax],al
000043CF  0000              add [eax],al
000043D1  0000              add [eax],al
000043D3  0000              add [eax],al
000043D5  0000              add [eax],al
000043D7  0000              add [eax],al
000043D9  0000              add [eax],al
000043DB  0000              add [eax],al
000043DD  0000              add [eax],al
000043DF  0000              add [eax],al
000043E1  0000              add [eax],al
000043E3  0000              add [eax],al
000043E5  0000              add [eax],al
000043E7  0000              add [eax],al
000043E9  0000              add [eax],al
000043EB  0000              add [eax],al
000043ED  0000              add [eax],al
000043EF  0000              add [eax],al
000043F1  0000              add [eax],al
000043F3  0000              add [eax],al
000043F5  0000              add [eax],al
000043F7  0000              add [eax],al
000043F9  0000              add [eax],al
000043FB  0000              add [eax],al
000043FD  0000              add [eax],al
000043FF  0000              add [eax],al
00004401  0000              add [eax],al
00004403  0000              add [eax],al
00004405  0000              add [eax],al
00004407  0000              add [eax],al
00004409  0000              add [eax],al
0000440B  0000              add [eax],al
0000440D  0000              add [eax],al
0000440F  0000              add [eax],al
00004411  0000              add [eax],al
00004413  0000              add [eax],al
00004415  0000              add [eax],al
00004417  0000              add [eax],al
00004419  0000              add [eax],al
0000441B  0000              add [eax],al
0000441D  0000              add [eax],al
0000441F  0000              add [eax],al
00004421  0000              add [eax],al
00004423  0000              add [eax],al
00004425  0000              add [eax],al
00004427  0000              add [eax],al
00004429  0000              add [eax],al
0000442B  0000              add [eax],al
0000442D  0000              add [eax],al
0000442F  0000              add [eax],al
00004431  0000              add [eax],al
00004433  0000              add [eax],al
00004435  0000              add [eax],al
00004437  0000              add [eax],al
00004439  0000              add [eax],al
0000443B  0000              add [eax],al
0000443D  0000              add [eax],al
0000443F  0000              add [eax],al
00004441  0000              add [eax],al
00004443  0000              add [eax],al
00004445  0000              add [eax],al
00004447  0000              add [eax],al
00004449  0000              add [eax],al
0000444B  0000              add [eax],al
0000444D  0000              add [eax],al
0000444F  0000              add [eax],al
00004451  0000              add [eax],al
00004453  0000              add [eax],al
00004455  0000              add [eax],al
00004457  0000              add [eax],al
00004459  0000              add [eax],al
0000445B  0000              add [eax],al
0000445D  0000              add [eax],al
0000445F  0000              add [eax],al
00004461  0000              add [eax],al
00004463  0000              add [eax],al
00004465  0000              add [eax],al
00004467  0000              add [eax],al
00004469  0000              add [eax],al
0000446B  0000              add [eax],al
0000446D  0000              add [eax],al
0000446F  0000              add [eax],al
00004471  0000              add [eax],al
00004473  0000              add [eax],al
00004475  0000              add [eax],al
00004477  0000              add [eax],al
00004479  0000              add [eax],al
0000447B  0000              add [eax],al
0000447D  0000              add [eax],al
0000447F  0000              add [eax],al
00004481  0000              add [eax],al
00004483  0000              add [eax],al
00004485  0000              add [eax],al
00004487  0000              add [eax],al
00004489  0000              add [eax],al
0000448B  0000              add [eax],al
0000448D  0000              add [eax],al
0000448F  0000              add [eax],al
00004491  0000              add [eax],al
00004493  0000              add [eax],al
00004495  0000              add [eax],al
00004497  0000              add [eax],al
00004499  0000              add [eax],al
0000449B  0000              add [eax],al
0000449D  0000              add [eax],al
0000449F  0000              add [eax],al
000044A1  0000              add [eax],al
000044A3  0000              add [eax],al
000044A5  0000              add [eax],al
000044A7  0000              add [eax],al
000044A9  0000              add [eax],al
000044AB  0000              add [eax],al
000044AD  0000              add [eax],al
000044AF  0000              add [eax],al
000044B1  0000              add [eax],al
000044B3  0000              add [eax],al
000044B5  0000              add [eax],al
000044B7  0000              add [eax],al
000044B9  0000              add [eax],al
000044BB  0000              add [eax],al
000044BD  0000              add [eax],al
000044BF  0000              add [eax],al
000044C1  0000              add [eax],al
000044C3  0000              add [eax],al
000044C5  0000              add [eax],al
000044C7  0000              add [eax],al
000044C9  0000              add [eax],al
000044CB  0000              add [eax],al
000044CD  0000              add [eax],al
000044CF  0000              add [eax],al
000044D1  0000              add [eax],al
000044D3  0000              add [eax],al
000044D5  0000              add [eax],al
000044D7  0000              add [eax],al
000044D9  0000              add [eax],al
000044DB  0000              add [eax],al
000044DD  0000              add [eax],al
000044DF  0000              add [eax],al
000044E1  0000              add [eax],al
000044E3  0000              add [eax],al
000044E5  0000              add [eax],al
000044E7  0000              add [eax],al
000044E9  0000              add [eax],al
000044EB  0000              add [eax],al
000044ED  0000              add [eax],al
000044EF  0000              add [eax],al
000044F1  0000              add [eax],al
000044F3  0000              add [eax],al
000044F5  0000              add [eax],al
000044F7  0000              add [eax],al
000044F9  0000              add [eax],al
000044FB  0000              add [eax],al
000044FD  0000              add [eax],al
000044FF  0000              add [eax],al
00004501  0000              add [eax],al
00004503  0000              add [eax],al
00004505  0000              add [eax],al
00004507  0000              add [eax],al
00004509  0000              add [eax],al
0000450B  0000              add [eax],al
0000450D  0000              add [eax],al
0000450F  0000              add [eax],al
00004511  0000              add [eax],al
00004513  0000              add [eax],al
00004515  0000              add [eax],al
00004517  0000              add [eax],al
00004519  0000              add [eax],al
0000451B  0000              add [eax],al
0000451D  0000              add [eax],al
0000451F  0000              add [eax],al
00004521  0000              add [eax],al
00004523  0000              add [eax],al
00004525  0000              add [eax],al
00004527  0000              add [eax],al
00004529  0000              add [eax],al
0000452B  0000              add [eax],al
0000452D  0000              add [eax],al
0000452F  0000              add [eax],al
00004531  0000              add [eax],al
00004533  0000              add [eax],al
00004535  0000              add [eax],al
00004537  0000              add [eax],al
00004539  0000              add [eax],al
0000453B  0000              add [eax],al
0000453D  0000              add [eax],al
0000453F  0000              add [eax],al
00004541  0000              add [eax],al
00004543  0000              add [eax],al
00004545  0000              add [eax],al
00004547  0000              add [eax],al
00004549  0000              add [eax],al
0000454B  0000              add [eax],al
0000454D  0000              add [eax],al
0000454F  0000              add [eax],al
00004551  0000              add [eax],al
00004553  0000              add [eax],al
00004555  0000              add [eax],al
00004557  0000              add [eax],al
00004559  0000              add [eax],al
0000455B  0000              add [eax],al
0000455D  0000              add [eax],al
0000455F  0000              add [eax],al
00004561  0000              add [eax],al
00004563  0000              add [eax],al
00004565  0000              add [eax],al
00004567  0000              add [eax],al
00004569  0000              add [eax],al
0000456B  0000              add [eax],al
0000456D  0000              add [eax],al
0000456F  0000              add [eax],al
00004571  0000              add [eax],al
00004573  0000              add [eax],al
00004575  0000              add [eax],al
00004577  0000              add [eax],al
00004579  0000              add [eax],al
0000457B  0000              add [eax],al
0000457D  0000              add [eax],al
0000457F  0000              add [eax],al
00004581  0000              add [eax],al
00004583  0000              add [eax],al
00004585  0000              add [eax],al
00004587  0000              add [eax],al
00004589  0000              add [eax],al
0000458B  0000              add [eax],al
0000458D  0000              add [eax],al
0000458F  0000              add [eax],al
00004591  0000              add [eax],al
00004593  0000              add [eax],al
00004595  0000              add [eax],al
00004597  0000              add [eax],al
00004599  0000              add [eax],al
0000459B  0000              add [eax],al
0000459D  0000              add [eax],al
0000459F  0000              add [eax],al
000045A1  0000              add [eax],al
000045A3  0000              add [eax],al
000045A5  0000              add [eax],al
000045A7  0000              add [eax],al
000045A9  0000              add [eax],al
000045AB  0000              add [eax],al
000045AD  0000              add [eax],al
000045AF  0000              add [eax],al
000045B1  0000              add [eax],al
000045B3  0000              add [eax],al
000045B5  0000              add [eax],al
000045B7  0000              add [eax],al
000045B9  0000              add [eax],al
000045BB  0000              add [eax],al
000045BD  0000              add [eax],al
000045BF  0000              add [eax],al
000045C1  0000              add [eax],al
000045C3  0000              add [eax],al
000045C5  0000              add [eax],al
000045C7  0000              add [eax],al
000045C9  0000              add [eax],al
000045CB  0000              add [eax],al
000045CD  0000              add [eax],al
000045CF  0000              add [eax],al
000045D1  0000              add [eax],al
000045D3  0000              add [eax],al
000045D5  0000              add [eax],al
000045D7  0000              add [eax],al
000045D9  0000              add [eax],al
000045DB  0000              add [eax],al
000045DD  0000              add [eax],al
000045DF  0000              add [eax],al
000045E1  0000              add [eax],al
000045E3  0000              add [eax],al
000045E5  0000              add [eax],al
000045E7  0000              add [eax],al
000045E9  0000              add [eax],al
000045EB  0000              add [eax],al
000045ED  0000              add [eax],al
000045EF  0000              add [eax],al
000045F1  0000              add [eax],al
000045F3  0000              add [eax],al
000045F5  0000              add [eax],al
000045F7  0000              add [eax],al
000045F9  0000              add [eax],al
000045FB  0000              add [eax],al
000045FD  0000              add [eax],al
000045FF  0000              add [eax],al
00004601  0000              add [eax],al
00004603  0000              add [eax],al
00004605  0000              add [eax],al
00004607  0000              add [eax],al
00004609  0000              add [eax],al
0000460B  0000              add [eax],al
0000460D  0000              add [eax],al
0000460F  0000              add [eax],al
00004611  0000              add [eax],al
00004613  0000              add [eax],al
00004615  0000              add [eax],al
00004617  0000              add [eax],al
00004619  0000              add [eax],al
0000461B  0000              add [eax],al
0000461D  0000              add [eax],al
0000461F  0000              add [eax],al
00004621  0000              add [eax],al
00004623  0000              add [eax],al
00004625  0000              add [eax],al
00004627  0000              add [eax],al
00004629  0000              add [eax],al
0000462B  0000              add [eax],al
0000462D  0000              add [eax],al
0000462F  0000              add [eax],al
00004631  0000              add [eax],al
00004633  0000              add [eax],al
00004635  0000              add [eax],al
00004637  0000              add [eax],al
00004639  0000              add [eax],al
0000463B  0000              add [eax],al
0000463D  0000              add [eax],al
0000463F  0000              add [eax],al
00004641  0000              add [eax],al
00004643  0000              add [eax],al
00004645  0000              add [eax],al
00004647  0000              add [eax],al
00004649  0000              add [eax],al
0000464B  0000              add [eax],al
0000464D  0000              add [eax],al
0000464F  0000              add [eax],al
00004651  0000              add [eax],al
00004653  0000              add [eax],al
00004655  0000              add [eax],al
00004657  0000              add [eax],al
00004659  0000              add [eax],al
0000465B  0000              add [eax],al
0000465D  0000              add [eax],al
0000465F  0000              add [eax],al
00004661  0000              add [eax],al
00004663  0000              add [eax],al
00004665  0000              add [eax],al
00004667  0000              add [eax],al
00004669  0000              add [eax],al
0000466B  0000              add [eax],al
0000466D  0000              add [eax],al
0000466F  0000              add [eax],al
00004671  0000              add [eax],al
00004673  0000              add [eax],al
00004675  0000              add [eax],al
00004677  0000              add [eax],al
00004679  0000              add [eax],al
0000467B  0000              add [eax],al
0000467D  0000              add [eax],al
0000467F  0000              add [eax],al
00004681  0000              add [eax],al
00004683  0000              add [eax],al
00004685  0000              add [eax],al
00004687  0000              add [eax],al
00004689  0000              add [eax],al
0000468B  0000              add [eax],al
0000468D  0000              add [eax],al
0000468F  0000              add [eax],al
00004691  0000              add [eax],al
00004693  0000              add [eax],al
00004695  0000              add [eax],al
00004697  0000              add [eax],al
00004699  0000              add [eax],al
0000469B  0000              add [eax],al
0000469D  0000              add [eax],al
0000469F  0000              add [eax],al
000046A1  0000              add [eax],al
000046A3  0000              add [eax],al
000046A5  0000              add [eax],al
000046A7  0000              add [eax],al
000046A9  0000              add [eax],al
000046AB  0000              add [eax],al
000046AD  0000              add [eax],al
000046AF  0000              add [eax],al
000046B1  0000              add [eax],al
000046B3  0000              add [eax],al
000046B5  0000              add [eax],al
000046B7  0000              add [eax],al
000046B9  0000              add [eax],al
000046BB  0000              add [eax],al
000046BD  0000              add [eax],al
000046BF  0000              add [eax],al
000046C1  0000              add [eax],al
000046C3  0000              add [eax],al
000046C5  0000              add [eax],al
000046C7  0000              add [eax],al
000046C9  0000              add [eax],al
000046CB  0000              add [eax],al
000046CD  0000              add [eax],al
000046CF  0000              add [eax],al
000046D1  0000              add [eax],al
000046D3  0000              add [eax],al
000046D5  0000              add [eax],al
000046D7  0000              add [eax],al
000046D9  0000              add [eax],al
000046DB  0000              add [eax],al
000046DD  0000              add [eax],al
000046DF  0000              add [eax],al
000046E1  0000              add [eax],al
000046E3  0000              add [eax],al
000046E5  0000              add [eax],al
000046E7  0000              add [eax],al
000046E9  0000              add [eax],al
000046EB  0000              add [eax],al
000046ED  0000              add [eax],al
000046EF  0000              add [eax],al
000046F1  0000              add [eax],al
000046F3  0000              add [eax],al
000046F5  0000              add [eax],al
000046F7  0000              add [eax],al
000046F9  0000              add [eax],al
000046FB  0000              add [eax],al
000046FD  0000              add [eax],al
000046FF  0000              add [eax],al
00004701  0000              add [eax],al
00004703  0000              add [eax],al
00004705  0000              add [eax],al
00004707  0000              add [eax],al
00004709  0000              add [eax],al
0000470B  0000              add [eax],al
0000470D  0000              add [eax],al
0000470F  0000              add [eax],al
00004711  0000              add [eax],al
00004713  0000              add [eax],al
00004715  0000              add [eax],al
00004717  0000              add [eax],al
00004719  0000              add [eax],al
0000471B  0000              add [eax],al
0000471D  0000              add [eax],al
0000471F  0000              add [eax],al
00004721  0000              add [eax],al
00004723  0000              add [eax],al
00004725  0000              add [eax],al
00004727  0000              add [eax],al
00004729  0000              add [eax],al
0000472B  0000              add [eax],al
0000472D  0000              add [eax],al
0000472F  0000              add [eax],al
00004731  0000              add [eax],al
00004733  0000              add [eax],al
00004735  0000              add [eax],al
00004737  0000              add [eax],al
00004739  0000              add [eax],al
0000473B  0000              add [eax],al
0000473D  0000              add [eax],al
0000473F  0000              add [eax],al
00004741  0000              add [eax],al
00004743  0000              add [eax],al
00004745  0000              add [eax],al
00004747  0000              add [eax],al
00004749  0000              add [eax],al
0000474B  0000              add [eax],al
0000474D  0000              add [eax],al
0000474F  0000              add [eax],al
00004751  0000              add [eax],al
00004753  0000              add [eax],al
00004755  0000              add [eax],al
00004757  0000              add [eax],al
00004759  0000              add [eax],al
0000475B  0000              add [eax],al
0000475D  0000              add [eax],al
0000475F  0000              add [eax],al
00004761  0000              add [eax],al
00004763  0000              add [eax],al
00004765  0000              add [eax],al
00004767  0000              add [eax],al
00004769  0000              add [eax],al
0000476B  0000              add [eax],al
0000476D  0000              add [eax],al
0000476F  0000              add [eax],al
00004771  0000              add [eax],al
00004773  0000              add [eax],al
00004775  0000              add [eax],al
00004777  0000              add [eax],al
00004779  0000              add [eax],al
0000477B  0000              add [eax],al
0000477D  0000              add [eax],al
0000477F  0000              add [eax],al
00004781  0000              add [eax],al
00004783  0000              add [eax],al
00004785  0000              add [eax],al
00004787  0000              add [eax],al
00004789  0000              add [eax],al
0000478B  0000              add [eax],al
0000478D  0000              add [eax],al
0000478F  0000              add [eax],al
00004791  0000              add [eax],al
00004793  0000              add [eax],al
00004795  0000              add [eax],al
00004797  0000              add [eax],al
00004799  0000              add [eax],al
0000479B  0000              add [eax],al
0000479D  0000              add [eax],al
0000479F  0000              add [eax],al
000047A1  0000              add [eax],al
000047A3  0000              add [eax],al
000047A5  0000              add [eax],al
000047A7  0000              add [eax],al
000047A9  0000              add [eax],al
000047AB  0000              add [eax],al
000047AD  0000              add [eax],al
000047AF  0000              add [eax],al
000047B1  0000              add [eax],al
000047B3  0000              add [eax],al
000047B5  0000              add [eax],al
000047B7  0000              add [eax],al
000047B9  0000              add [eax],al
000047BB  0000              add [eax],al
000047BD  0000              add [eax],al
000047BF  0000              add [eax],al
000047C1  0000              add [eax],al
000047C3  0000              add [eax],al
000047C5  0000              add [eax],al
000047C7  0000              add [eax],al
000047C9  0000              add [eax],al
000047CB  0000              add [eax],al
000047CD  0000              add [eax],al
000047CF  0000              add [eax],al
000047D1  0000              add [eax],al
000047D3  0000              add [eax],al
000047D5  0000              add [eax],al
000047D7  0000              add [eax],al
000047D9  0000              add [eax],al
000047DB  0000              add [eax],al
000047DD  0000              add [eax],al
000047DF  0000              add [eax],al
000047E1  0000              add [eax],al
000047E3  0000              add [eax],al
000047E5  0000              add [eax],al
000047E7  0000              add [eax],al
000047E9  0000              add [eax],al
000047EB  0000              add [eax],al
000047ED  0000              add [eax],al
000047EF  0000              add [eax],al
000047F1  0000              add [eax],al
000047F3  0000              add [eax],al
000047F5  0000              add [eax],al
000047F7  0000              add [eax],al
000047F9  0000              add [eax],al
000047FB  0000              add [eax],al
000047FD  0000              add [eax],al
000047FF  0000              add [eax],al
00004801  0000              add [eax],al
00004803  0000              add [eax],al
00004805  0000              add [eax],al
00004807  0000              add [eax],al
00004809  0000              add [eax],al
0000480B  0000              add [eax],al
0000480D  0000              add [eax],al
0000480F  0000              add [eax],al
00004811  0000              add [eax],al
00004813  0000              add [eax],al
00004815  0000              add [eax],al
00004817  0000              add [eax],al
00004819  0000              add [eax],al
0000481B  0000              add [eax],al
0000481D  0000              add [eax],al
0000481F  0000              add [eax],al
00004821  0000              add [eax],al
00004823  0000              add [eax],al
00004825  0000              add [eax],al
00004827  0000              add [eax],al
00004829  0000              add [eax],al
0000482B  0000              add [eax],al
0000482D  0000              add [eax],al
0000482F  0000              add [eax],al
00004831  0000              add [eax],al
00004833  0000              add [eax],al
00004835  0000              add [eax],al
00004837  0000              add [eax],al
00004839  0000              add [eax],al
0000483B  0000              add [eax],al
0000483D  0000              add [eax],al
0000483F  0000              add [eax],al
00004841  0000              add [eax],al
00004843  0000              add [eax],al
00004845  0000              add [eax],al
00004847  0000              add [eax],al
00004849  0000              add [eax],al
0000484B  0000              add [eax],al
0000484D  0000              add [eax],al
0000484F  0000              add [eax],al
00004851  0000              add [eax],al
00004853  0000              add [eax],al
00004855  0000              add [eax],al
00004857  0000              add [eax],al
00004859  0000              add [eax],al
0000485B  0000              add [eax],al
0000485D  0000              add [eax],al
0000485F  0000              add [eax],al
00004861  0000              add [eax],al
00004863  0000              add [eax],al
00004865  0000              add [eax],al
00004867  0000              add [eax],al
00004869  0000              add [eax],al
0000486B  0000              add [eax],al
0000486D  0000              add [eax],al
0000486F  0000              add [eax],al
00004871  0000              add [eax],al
00004873  0000              add [eax],al
00004875  0000              add [eax],al
00004877  0000              add [eax],al
00004879  0000              add [eax],al
0000487B  0000              add [eax],al
0000487D  0000              add [eax],al
0000487F  0000              add [eax],al
00004881  0000              add [eax],al
00004883  0000              add [eax],al
00004885  0000              add [eax],al
00004887  0000              add [eax],al
00004889  0000              add [eax],al
0000488B  0000              add [eax],al
0000488D  0000              add [eax],al
0000488F  0000              add [eax],al
00004891  0000              add [eax],al
00004893  0000              add [eax],al
00004895  0000              add [eax],al
00004897  0000              add [eax],al
00004899  0000              add [eax],al
0000489B  0000              add [eax],al
0000489D  0000              add [eax],al
0000489F  0000              add [eax],al
000048A1  0000              add [eax],al
000048A3  0000              add [eax],al
000048A5  0000              add [eax],al
000048A7  0000              add [eax],al
000048A9  0000              add [eax],al
000048AB  0000              add [eax],al
000048AD  0000              add [eax],al
000048AF  0000              add [eax],al
000048B1  0000              add [eax],al
000048B3  0000              add [eax],al
000048B5  0000              add [eax],al
000048B7  0000              add [eax],al
000048B9  0000              add [eax],al
000048BB  0000              add [eax],al
000048BD  0000              add [eax],al
000048BF  0000              add [eax],al
000048C1  0000              add [eax],al
000048C3  0000              add [eax],al
000048C5  0000              add [eax],al
000048C7  0000              add [eax],al
000048C9  0000              add [eax],al
000048CB  0000              add [eax],al
000048CD  0000              add [eax],al
000048CF  0000              add [eax],al
000048D1  0000              add [eax],al
000048D3  0000              add [eax],al
000048D5  0000              add [eax],al
000048D7  0000              add [eax],al
000048D9  0000              add [eax],al
000048DB  0000              add [eax],al
000048DD  0000              add [eax],al
000048DF  0000              add [eax],al
000048E1  0000              add [eax],al
000048E3  0000              add [eax],al
000048E5  0000              add [eax],al
000048E7  0000              add [eax],al
000048E9  0000              add [eax],al
000048EB  0000              add [eax],al
000048ED  0000              add [eax],al
000048EF  0000              add [eax],al
000048F1  0000              add [eax],al
000048F3  0000              add [eax],al
000048F5  0000              add [eax],al
000048F7  0000              add [eax],al
000048F9  0000              add [eax],al
000048FB  0000              add [eax],al
000048FD  0000              add [eax],al
000048FF  0000              add [eax],al
00004901  0000              add [eax],al
00004903  0000              add [eax],al
00004905  0000              add [eax],al
00004907  0000              add [eax],al
00004909  0000              add [eax],al
0000490B  0000              add [eax],al
0000490D  0000              add [eax],al
0000490F  0000              add [eax],al
00004911  0000              add [eax],al
00004913  0000              add [eax],al
00004915  0000              add [eax],al
00004917  0000              add [eax],al
00004919  0000              add [eax],al
0000491B  0000              add [eax],al
0000491D  0000              add [eax],al
0000491F  0000              add [eax],al
00004921  0000              add [eax],al
00004923  0000              add [eax],al
00004925  0000              add [eax],al
00004927  0000              add [eax],al
00004929  0000              add [eax],al
0000492B  0000              add [eax],al
0000492D  0000              add [eax],al
0000492F  0000              add [eax],al
00004931  0000              add [eax],al
00004933  0000              add [eax],al
00004935  0000              add [eax],al
00004937  0000              add [eax],al
00004939  0000              add [eax],al
0000493B  0000              add [eax],al
0000493D  0000              add [eax],al
0000493F  0000              add [eax],al
00004941  0000              add [eax],al
00004943  0000              add [eax],al
00004945  0000              add [eax],al
00004947  0000              add [eax],al
00004949  0000              add [eax],al
0000494B  0000              add [eax],al
0000494D  0000              add [eax],al
0000494F  0000              add [eax],al
00004951  0000              add [eax],al
00004953  0000              add [eax],al
00004955  0000              add [eax],al
00004957  0000              add [eax],al
00004959  0000              add [eax],al
0000495B  0000              add [eax],al
0000495D  0000              add [eax],al
0000495F  0000              add [eax],al
00004961  0000              add [eax],al
00004963  0000              add [eax],al
00004965  0000              add [eax],al
00004967  0000              add [eax],al
00004969  0000              add [eax],al
0000496B  0000              add [eax],al
0000496D  0000              add [eax],al
0000496F  0000              add [eax],al
00004971  0000              add [eax],al
00004973  0000              add [eax],al
00004975  0000              add [eax],al
00004977  0000              add [eax],al
00004979  0000              add [eax],al
0000497B  0000              add [eax],al
0000497D  0000              add [eax],al
0000497F  0000              add [eax],al
00004981  0000              add [eax],al
00004983  0000              add [eax],al
00004985  0000              add [eax],al
00004987  0000              add [eax],al
00004989  0000              add [eax],al
0000498B  0000              add [eax],al
0000498D  0000              add [eax],al
0000498F  0000              add [eax],al
00004991  0000              add [eax],al
00004993  0000              add [eax],al
00004995  0000              add [eax],al
00004997  0000              add [eax],al
00004999  0000              add [eax],al
0000499B  0000              add [eax],al
0000499D  0000              add [eax],al
0000499F  0000              add [eax],al
000049A1  0000              add [eax],al
000049A3  0000              add [eax],al
000049A5  0000              add [eax],al
000049A7  0000              add [eax],al
000049A9  0000              add [eax],al
000049AB  0000              add [eax],al
000049AD  0000              add [eax],al
000049AF  0000              add [eax],al
000049B1  0000              add [eax],al
000049B3  0000              add [eax],al
000049B5  0000              add [eax],al
000049B7  0000              add [eax],al
000049B9  0000              add [eax],al
000049BB  0000              add [eax],al
000049BD  0000              add [eax],al
000049BF  0000              add [eax],al
000049C1  0000              add [eax],al
000049C3  0000              add [eax],al
000049C5  0000              add [eax],al
000049C7  0000              add [eax],al
000049C9  0000              add [eax],al
000049CB  0000              add [eax],al
000049CD  0000              add [eax],al
000049CF  0000              add [eax],al
000049D1  0000              add [eax],al
000049D3  0000              add [eax],al
000049D5  0000              add [eax],al
000049D7  0000              add [eax],al
000049D9  0000              add [eax],al
000049DB  0000              add [eax],al
000049DD  0000              add [eax],al
000049DF  0000              add [eax],al
000049E1  0000              add [eax],al
000049E3  0000              add [eax],al
000049E5  0000              add [eax],al
000049E7  0000              add [eax],al
000049E9  0000              add [eax],al
000049EB  0000              add [eax],al
000049ED  0000              add [eax],al
000049EF  0000              add [eax],al
000049F1  0000              add [eax],al
000049F3  0000              add [eax],al
000049F5  0000              add [eax],al
000049F7  0000              add [eax],al
000049F9  0000              add [eax],al
000049FB  0000              add [eax],al
000049FD  0000              add [eax],al
000049FF  0000              add [eax],al
00004A01  0000              add [eax],al
00004A03  0000              add [eax],al
00004A05  0000              add [eax],al
00004A07  0000              add [eax],al
00004A09  0000              add [eax],al
00004A0B  0000              add [eax],al
00004A0D  0000              add [eax],al
00004A0F  0000              add [eax],al
00004A11  0000              add [eax],al
00004A13  0000              add [eax],al
00004A15  0000              add [eax],al
00004A17  0000              add [eax],al
00004A19  0000              add [eax],al
00004A1B  0000              add [eax],al
00004A1D  0000              add [eax],al
00004A1F  0000              add [eax],al
00004A21  0000              add [eax],al
00004A23  0000              add [eax],al
00004A25  0000              add [eax],al
00004A27  0000              add [eax],al
00004A29  0000              add [eax],al
00004A2B  0000              add [eax],al
00004A2D  0000              add [eax],al
00004A2F  0000              add [eax],al
00004A31  0000              add [eax],al
00004A33  0000              add [eax],al
00004A35  0000              add [eax],al
00004A37  0000              add [eax],al
00004A39  0000              add [eax],al
00004A3B  0000              add [eax],al
00004A3D  0000              add [eax],al
00004A3F  0000              add [eax],al
00004A41  0000              add [eax],al
00004A43  0000              add [eax],al
00004A45  0000              add [eax],al
00004A47  0000              add [eax],al
00004A49  0000              add [eax],al
00004A4B  0000              add [eax],al
00004A4D  0000              add [eax],al
00004A4F  0000              add [eax],al
00004A51  0000              add [eax],al
00004A53  0000              add [eax],al
00004A55  0000              add [eax],al
00004A57  0000              add [eax],al
00004A59  0000              add [eax],al
00004A5B  0000              add [eax],al
00004A5D  0000              add [eax],al
00004A5F  0000              add [eax],al
00004A61  0000              add [eax],al
00004A63  0000              add [eax],al
00004A65  0000              add [eax],al
00004A67  0000              add [eax],al
00004A69  0000              add [eax],al
00004A6B  0000              add [eax],al
00004A6D  0000              add [eax],al
00004A6F  0000              add [eax],al
00004A71  0000              add [eax],al
00004A73  0000              add [eax],al
00004A75  0000              add [eax],al
00004A77  0000              add [eax],al
00004A79  0000              add [eax],al
00004A7B  0000              add [eax],al
00004A7D  0000              add [eax],al
00004A7F  0000              add [eax],al
00004A81  0000              add [eax],al
00004A83  0000              add [eax],al
00004A85  0000              add [eax],al
00004A87  0000              add [eax],al
00004A89  0000              add [eax],al
00004A8B  0000              add [eax],al
00004A8D  0000              add [eax],al
00004A8F  0000              add [eax],al
00004A91  0000              add [eax],al
00004A93  0000              add [eax],al
00004A95  0000              add [eax],al
00004A97  0000              add [eax],al
00004A99  0000              add [eax],al
00004A9B  0000              add [eax],al
00004A9D  0000              add [eax],al
00004A9F  0000              add [eax],al
00004AA1  0000              add [eax],al
00004AA3  0000              add [eax],al
00004AA5  0000              add [eax],al
00004AA7  0000              add [eax],al
00004AA9  0000              add [eax],al
00004AAB  0000              add [eax],al
00004AAD  0000              add [eax],al
00004AAF  0000              add [eax],al
00004AB1  0000              add [eax],al
00004AB3  0000              add [eax],al
00004AB5  0000              add [eax],al
00004AB7  0000              add [eax],al
00004AB9  0000              add [eax],al
00004ABB  0000              add [eax],al
00004ABD  0000              add [eax],al
00004ABF  0000              add [eax],al
00004AC1  0000              add [eax],al
00004AC3  0000              add [eax],al
00004AC5  0000              add [eax],al
00004AC7  0000              add [eax],al
00004AC9  0000              add [eax],al
00004ACB  0000              add [eax],al
00004ACD  0000              add [eax],al
00004ACF  0000              add [eax],al
00004AD1  0000              add [eax],al
00004AD3  0000              add [eax],al
00004AD5  0000              add [eax],al
00004AD7  0000              add [eax],al
00004AD9  0000              add [eax],al
00004ADB  0000              add [eax],al
00004ADD  0000              add [eax],al
00004ADF  0000              add [eax],al
00004AE1  0000              add [eax],al
00004AE3  0000              add [eax],al
00004AE5  0000              add [eax],al
00004AE7  0000              add [eax],al
00004AE9  0000              add [eax],al
00004AEB  0000              add [eax],al
00004AED  0000              add [eax],al
00004AEF  0000              add [eax],al
00004AF1  0000              add [eax],al
00004AF3  0000              add [eax],al
00004AF5  0000              add [eax],al
00004AF7  0000              add [eax],al
00004AF9  0000              add [eax],al
00004AFB  0000              add [eax],al
00004AFD  0000              add [eax],al
00004AFF  0000              add [eax],al
00004B01  0000              add [eax],al
00004B03  0000              add [eax],al
00004B05  0000              add [eax],al
00004B07  0000              add [eax],al
00004B09  0000              add [eax],al
00004B0B  0000              add [eax],al
00004B0D  0000              add [eax],al
00004B0F  0000              add [eax],al
00004B11  0000              add [eax],al
00004B13  0000              add [eax],al
00004B15  0000              add [eax],al
00004B17  0000              add [eax],al
00004B19  0000              add [eax],al
00004B1B  0000              add [eax],al
00004B1D  0000              add [eax],al
00004B1F  0000              add [eax],al
00004B21  0000              add [eax],al
00004B23  0000              add [eax],al
00004B25  0000              add [eax],al
00004B27  0000              add [eax],al
00004B29  0000              add [eax],al
00004B2B  0000              add [eax],al
00004B2D  0000              add [eax],al
00004B2F  0000              add [eax],al
00004B31  0000              add [eax],al
00004B33  0000              add [eax],al
00004B35  0000              add [eax],al
00004B37  0000              add [eax],al
00004B39  0000              add [eax],al
00004B3B  0000              add [eax],al
00004B3D  0000              add [eax],al
00004B3F  0000              add [eax],al
00004B41  0000              add [eax],al
00004B43  0000              add [eax],al
00004B45  0000              add [eax],al
00004B47  0000              add [eax],al
00004B49  0000              add [eax],al
00004B4B  0000              add [eax],al
00004B4D  0000              add [eax],al
00004B4F  0000              add [eax],al
00004B51  0000              add [eax],al
00004B53  0000              add [eax],al
00004B55  0000              add [eax],al
00004B57  0000              add [eax],al
00004B59  0000              add [eax],al
00004B5B  0000              add [eax],al
00004B5D  0000              add [eax],al
00004B5F  0000              add [eax],al
00004B61  0000              add [eax],al
00004B63  0000              add [eax],al
00004B65  0000              add [eax],al
00004B67  0000              add [eax],al
00004B69  0000              add [eax],al
00004B6B  0000              add [eax],al
00004B6D  0000              add [eax],al
00004B6F  0000              add [eax],al
00004B71  0000              add [eax],al
00004B73  0000              add [eax],al
00004B75  0000              add [eax],al
00004B77  0000              add [eax],al
00004B79  0000              add [eax],al
00004B7B  0000              add [eax],al
00004B7D  0000              add [eax],al
00004B7F  0000              add [eax],al
00004B81  0000              add [eax],al
00004B83  0000              add [eax],al
00004B85  0000              add [eax],al
00004B87  0000              add [eax],al
00004B89  0000              add [eax],al
00004B8B  0000              add [eax],al
00004B8D  0000              add [eax],al
00004B8F  0000              add [eax],al
00004B91  0000              add [eax],al
00004B93  0000              add [eax],al
00004B95  0000              add [eax],al
00004B97  0000              add [eax],al
00004B99  0000              add [eax],al
00004B9B  0000              add [eax],al
00004B9D  0000              add [eax],al
00004B9F  0000              add [eax],al
00004BA1  0000              add [eax],al
00004BA3  0000              add [eax],al
00004BA5  0000              add [eax],al
00004BA7  0000              add [eax],al
00004BA9  0000              add [eax],al
00004BAB  0000              add [eax],al
00004BAD  0000              add [eax],al
00004BAF  0000              add [eax],al
00004BB1  0000              add [eax],al
00004BB3  0000              add [eax],al
00004BB5  0000              add [eax],al
00004BB7  0000              add [eax],al
00004BB9  0000              add [eax],al
00004BBB  0000              add [eax],al
00004BBD  0000              add [eax],al
00004BBF  0000              add [eax],al
00004BC1  0000              add [eax],al
00004BC3  0000              add [eax],al
00004BC5  0000              add [eax],al
00004BC7  0000              add [eax],al
00004BC9  0000              add [eax],al
00004BCB  0000              add [eax],al
00004BCD  0000              add [eax],al
00004BCF  0000              add [eax],al
00004BD1  0000              add [eax],al
00004BD3  0000              add [eax],al
00004BD5  0000              add [eax],al
00004BD7  0000              add [eax],al
00004BD9  0000              add [eax],al
00004BDB  0000              add [eax],al
00004BDD  0000              add [eax],al
00004BDF  0000              add [eax],al
00004BE1  0000              add [eax],al
00004BE3  0000              add [eax],al
00004BE5  0000              add [eax],al
00004BE7  0000              add [eax],al
00004BE9  0000              add [eax],al
00004BEB  0000              add [eax],al
00004BED  0000              add [eax],al
00004BEF  0000              add [eax],al
00004BF1  0000              add [eax],al
00004BF3  0000              add [eax],al
00004BF5  0000              add [eax],al
00004BF7  0000              add [eax],al
00004BF9  0000              add [eax],al
00004BFB  0000              add [eax],al
00004BFD  0000              add [eax],al
00004BFF  0000              add [eax],al
00004C01  0000              add [eax],al
00004C03  0000              add [eax],al
00004C05  0000              add [eax],al
00004C07  0000              add [eax],al
00004C09  0000              add [eax],al
00004C0B  0000              add [eax],al
00004C0D  0000              add [eax],al
00004C0F  0000              add [eax],al
00004C11  0000              add [eax],al
00004C13  0000              add [eax],al
00004C15  0000              add [eax],al
00004C17  0000              add [eax],al
00004C19  0000              add [eax],al
00004C1B  0000              add [eax],al
00004C1D  0000              add [eax],al
00004C1F  0000              add [eax],al
00004C21  0000              add [eax],al
00004C23  0000              add [eax],al
00004C25  0000              add [eax],al
00004C27  0000              add [eax],al
00004C29  0000              add [eax],al
00004C2B  0000              add [eax],al
00004C2D  0000              add [eax],al
00004C2F  0000              add [eax],al
00004C31  0000              add [eax],al
00004C33  0000              add [eax],al
00004C35  0000              add [eax],al
00004C37  0000              add [eax],al
00004C39  0000              add [eax],al
00004C3B  0000              add [eax],al
00004C3D  0000              add [eax],al
00004C3F  0000              add [eax],al
00004C41  0000              add [eax],al
00004C43  0000              add [eax],al
00004C45  0000              add [eax],al
00004C47  0000              add [eax],al
00004C49  0000              add [eax],al
00004C4B  0000              add [eax],al
00004C4D  0000              add [eax],al
00004C4F  0000              add [eax],al
00004C51  0000              add [eax],al
00004C53  0000              add [eax],al
00004C55  0000              add [eax],al
00004C57  0000              add [eax],al
00004C59  0000              add [eax],al
00004C5B  0000              add [eax],al
00004C5D  0000              add [eax],al
00004C5F  0000              add [eax],al
00004C61  0000              add [eax],al
00004C63  0000              add [eax],al
00004C65  0000              add [eax],al
00004C67  0000              add [eax],al
00004C69  0000              add [eax],al
00004C6B  0000              add [eax],al
00004C6D  0000              add [eax],al
00004C6F  0000              add [eax],al
00004C71  0000              add [eax],al
00004C73  0000              add [eax],al
00004C75  0000              add [eax],al
00004C77  0000              add [eax],al
00004C79  0000              add [eax],al
00004C7B  0000              add [eax],al
00004C7D  0000              add [eax],al
00004C7F  0000              add [eax],al
00004C81  0000              add [eax],al
00004C83  0000              add [eax],al
00004C85  0000              add [eax],al
00004C87  0000              add [eax],al
00004C89  0000              add [eax],al
00004C8B  0000              add [eax],al
00004C8D  0000              add [eax],al
00004C8F  0000              add [eax],al
00004C91  0000              add [eax],al
00004C93  0000              add [eax],al
00004C95  0000              add [eax],al
00004C97  0000              add [eax],al
00004C99  0000              add [eax],al
00004C9B  0000              add [eax],al
00004C9D  0000              add [eax],al
00004C9F  0000              add [eax],al
00004CA1  0000              add [eax],al
00004CA3  0000              add [eax],al
00004CA5  0000              add [eax],al
00004CA7  0000              add [eax],al
00004CA9  0000              add [eax],al
00004CAB  0000              add [eax],al
00004CAD  0000              add [eax],al
00004CAF  0000              add [eax],al
00004CB1  0000              add [eax],al
00004CB3  0000              add [eax],al
00004CB5  0000              add [eax],al
00004CB7  0000              add [eax],al
00004CB9  0000              add [eax],al
00004CBB  0000              add [eax],al
00004CBD  0000              add [eax],al
00004CBF  0000              add [eax],al
00004CC1  0000              add [eax],al
00004CC3  0000              add [eax],al
00004CC5  0000              add [eax],al
00004CC7  0000              add [eax],al
00004CC9  0000              add [eax],al
00004CCB  0000              add [eax],al
00004CCD  0000              add [eax],al
00004CCF  0000              add [eax],al
00004CD1  0000              add [eax],al
00004CD3  0000              add [eax],al
00004CD5  0000              add [eax],al
00004CD7  0000              add [eax],al
00004CD9  0000              add [eax],al
00004CDB  0000              add [eax],al
00004CDD  0000              add [eax],al
00004CDF  0000              add [eax],al
00004CE1  0000              add [eax],al
00004CE3  0000              add [eax],al
00004CE5  0000              add [eax],al
00004CE7  0000              add [eax],al
00004CE9  0000              add [eax],al
00004CEB  0000              add [eax],al
00004CED  0000              add [eax],al
00004CEF  0000              add [eax],al
00004CF1  0000              add [eax],al
00004CF3  0000              add [eax],al
00004CF5  0000              add [eax],al
00004CF7  0000              add [eax],al
00004CF9  0000              add [eax],al
00004CFB  0000              add [eax],al
00004CFD  0000              add [eax],al
00004CFF  0000              add [eax],al
00004D01  0000              add [eax],al
00004D03  0000              add [eax],al
00004D05  0000              add [eax],al
00004D07  0000              add [eax],al
00004D09  0000              add [eax],al
00004D0B  0000              add [eax],al
00004D0D  0000              add [eax],al
00004D0F  0000              add [eax],al
00004D11  0000              add [eax],al
00004D13  0000              add [eax],al
00004D15  0000              add [eax],al
00004D17  0000              add [eax],al
00004D19  0000              add [eax],al
00004D1B  0000              add [eax],al
00004D1D  0000              add [eax],al
00004D1F  0000              add [eax],al
00004D21  0000              add [eax],al
00004D23  0000              add [eax],al
00004D25  0000              add [eax],al
00004D27  0000              add [eax],al
00004D29  0000              add [eax],al
00004D2B  0000              add [eax],al
00004D2D  0000              add [eax],al
00004D2F  0000              add [eax],al
00004D31  0000              add [eax],al
00004D33  0000              add [eax],al
00004D35  0000              add [eax],al
00004D37  0000              add [eax],al
00004D39  0000              add [eax],al
00004D3B  0000              add [eax],al
00004D3D  0000              add [eax],al
00004D3F  0000              add [eax],al
00004D41  0000              add [eax],al
00004D43  0000              add [eax],al
00004D45  0000              add [eax],al
00004D47  0000              add [eax],al
00004D49  0000              add [eax],al
00004D4B  0000              add [eax],al
00004D4D  0000              add [eax],al
00004D4F  0000              add [eax],al
00004D51  0000              add [eax],al
00004D53  0000              add [eax],al
00004D55  0000              add [eax],al
00004D57  0000              add [eax],al
00004D59  0000              add [eax],al
00004D5B  0000              add [eax],al
00004D5D  0000              add [eax],al
00004D5F  0000              add [eax],al
00004D61  0000              add [eax],al
00004D63  0000              add [eax],al
00004D65  0000              add [eax],al
00004D67  0000              add [eax],al
00004D69  0000              add [eax],al
00004D6B  0000              add [eax],al
00004D6D  0000              add [eax],al
00004D6F  0000              add [eax],al
00004D71  0000              add [eax],al
00004D73  0000              add [eax],al
00004D75  0000              add [eax],al
00004D77  0000              add [eax],al
00004D79  0000              add [eax],al
00004D7B  0000              add [eax],al
00004D7D  0000              add [eax],al
00004D7F  0000              add [eax],al
00004D81  0000              add [eax],al
00004D83  0000              add [eax],al
00004D85  0000              add [eax],al
00004D87  0000              add [eax],al
00004D89  0000              add [eax],al
00004D8B  0000              add [eax],al
00004D8D  0000              add [eax],al
00004D8F  0000              add [eax],al
00004D91  0000              add [eax],al
00004D93  0000              add [eax],al
00004D95  0000              add [eax],al
00004D97  0000              add [eax],al
00004D99  0000              add [eax],al
00004D9B  0000              add [eax],al
00004D9D  0000              add [eax],al
00004D9F  0000              add [eax],al
00004DA1  0000              add [eax],al
00004DA3  0000              add [eax],al
00004DA5  0000              add [eax],al
00004DA7  0000              add [eax],al
00004DA9  0000              add [eax],al
00004DAB  0000              add [eax],al
00004DAD  0000              add [eax],al
00004DAF  0000              add [eax],al
00004DB1  0000              add [eax],al
00004DB3  0000              add [eax],al
00004DB5  0000              add [eax],al
00004DB7  0000              add [eax],al
00004DB9  0000              add [eax],al
00004DBB  0000              add [eax],al
00004DBD  0000              add [eax],al
00004DBF  0000              add [eax],al
00004DC1  0000              add [eax],al
00004DC3  0000              add [eax],al
00004DC5  0000              add [eax],al
00004DC7  0000              add [eax],al
00004DC9  0000              add [eax],al
00004DCB  0000              add [eax],al
00004DCD  0000              add [eax],al
00004DCF  0000              add [eax],al
00004DD1  0000              add [eax],al
00004DD3  0000              add [eax],al
00004DD5  0000              add [eax],al
00004DD7  0000              add [eax],al
00004DD9  0000              add [eax],al
00004DDB  0000              add [eax],al
00004DDD  0000              add [eax],al
00004DDF  0000              add [eax],al
00004DE1  0000              add [eax],al
00004DE3  0000              add [eax],al
00004DE5  0000              add [eax],al
00004DE7  0000              add [eax],al
00004DE9  0000              add [eax],al
00004DEB  0000              add [eax],al
00004DED  0000              add [eax],al
00004DEF  0000              add [eax],al
00004DF1  0000              add [eax],al
00004DF3  0000              add [eax],al
00004DF5  0000              add [eax],al
00004DF7  0000              add [eax],al
00004DF9  0000              add [eax],al
00004DFB  0000              add [eax],al
00004DFD  0000              add [eax],al
00004DFF  0000              add [eax],al
00004E01  0000              add [eax],al
00004E03  0000              add [eax],al
00004E05  0000              add [eax],al
00004E07  0000              add [eax],al
00004E09  0000              add [eax],al
00004E0B  0000              add [eax],al
00004E0D  0000              add [eax],al
00004E0F  0000              add [eax],al
00004E11  0000              add [eax],al
00004E13  0000              add [eax],al
00004E15  0000              add [eax],al
00004E17  0000              add [eax],al
00004E19  0000              add [eax],al
00004E1B  0000              add [eax],al
00004E1D  0000              add [eax],al
00004E1F  0000              add [eax],al
00004E21  0000              add [eax],al
00004E23  0000              add [eax],al
00004E25  0000              add [eax],al
00004E27  0000              add [eax],al
00004E29  0000              add [eax],al
00004E2B  0000              add [eax],al
00004E2D  0000              add [eax],al
00004E2F  0000              add [eax],al
00004E31  0000              add [eax],al
00004E33  0000              add [eax],al
00004E35  0000              add [eax],al
00004E37  0000              add [eax],al
00004E39  0000              add [eax],al
00004E3B  0000              add [eax],al
00004E3D  0000              add [eax],al
00004E3F  0000              add [eax],al
00004E41  0000              add [eax],al
00004E43  0000              add [eax],al
00004E45  0000              add [eax],al
00004E47  0000              add [eax],al
00004E49  0000              add [eax],al
00004E4B  0000              add [eax],al
00004E4D  0000              add [eax],al
00004E4F  0000              add [eax],al
00004E51  0000              add [eax],al
00004E53  0000              add [eax],al
00004E55  0000              add [eax],al
00004E57  0000              add [eax],al
00004E59  0000              add [eax],al
00004E5B  0000              add [eax],al
00004E5D  0000              add [eax],al
00004E5F  0000              add [eax],al
00004E61  0000              add [eax],al
00004E63  0000              add [eax],al
00004E65  0000              add [eax],al
00004E67  0000              add [eax],al
00004E69  0000              add [eax],al
00004E6B  0000              add [eax],al
00004E6D  0000              add [eax],al
00004E6F  0000              add [eax],al
00004E71  0000              add [eax],al
00004E73  0000              add [eax],al
00004E75  0000              add [eax],al
00004E77  0000              add [eax],al
00004E79  0000              add [eax],al
00004E7B  0000              add [eax],al
00004E7D  0000              add [eax],al
00004E7F  0000              add [eax],al
00004E81  0000              add [eax],al
00004E83  0000              add [eax],al
00004E85  0000              add [eax],al
00004E87  0000              add [eax],al
00004E89  0000              add [eax],al
00004E8B  0000              add [eax],al
00004E8D  0000              add [eax],al
00004E8F  0000              add [eax],al
00004E91  0000              add [eax],al
00004E93  0000              add [eax],al
00004E95  0000              add [eax],al
00004E97  0000              add [eax],al
00004E99  0000              add [eax],al
00004E9B  0000              add [eax],al
00004E9D  0000              add [eax],al
00004E9F  0000              add [eax],al
00004EA1  0000              add [eax],al
00004EA3  0000              add [eax],al
00004EA5  0000              add [eax],al
00004EA7  0000              add [eax],al
00004EA9  0000              add [eax],al
00004EAB  0000              add [eax],al
00004EAD  0000              add [eax],al
00004EAF  0000              add [eax],al
00004EB1  0000              add [eax],al
00004EB3  0000              add [eax],al
00004EB5  0000              add [eax],al
00004EB7  0000              add [eax],al
00004EB9  0000              add [eax],al
00004EBB  0000              add [eax],al
00004EBD  0000              add [eax],al
00004EBF  0000              add [eax],al
00004EC1  0000              add [eax],al
00004EC3  0000              add [eax],al
00004EC5  0000              add [eax],al
00004EC7  0000              add [eax],al
00004EC9  0000              add [eax],al
00004ECB  0000              add [eax],al
00004ECD  0000              add [eax],al
00004ECF  0000              add [eax],al
00004ED1  0000              add [eax],al
00004ED3  0000              add [eax],al
00004ED5  0000              add [eax],al
00004ED7  0000              add [eax],al
00004ED9  0000              add [eax],al
00004EDB  0000              add [eax],al
00004EDD  0000              add [eax],al
00004EDF  0000              add [eax],al
00004EE1  0000              add [eax],al
00004EE3  0000              add [eax],al
00004EE5  0000              add [eax],al
00004EE7  0000              add [eax],al
00004EE9  0000              add [eax],al
00004EEB  0000              add [eax],al
00004EED  0000              add [eax],al
00004EEF  0000              add [eax],al
00004EF1  0000              add [eax],al
00004EF3  0000              add [eax],al
00004EF5  0000              add [eax],al
00004EF7  0000              add [eax],al
00004EF9  0000              add [eax],al
00004EFB  0000              add [eax],al
00004EFD  0000              add [eax],al
00004EFF  0000              add [eax],al
00004F01  0000              add [eax],al
00004F03  0000              add [eax],al
00004F05  0000              add [eax],al
00004F07  0000              add [eax],al
00004F09  0000              add [eax],al
00004F0B  0000              add [eax],al
00004F0D  0000              add [eax],al
00004F0F  0000              add [eax],al
00004F11  0000              add [eax],al
00004F13  0000              add [eax],al
00004F15  0000              add [eax],al
00004F17  0000              add [eax],al
00004F19  0000              add [eax],al
00004F1B  0000              add [eax],al
00004F1D  0000              add [eax],al
00004F1F  0000              add [eax],al
00004F21  0000              add [eax],al
00004F23  0000              add [eax],al
00004F25  0000              add [eax],al
00004F27  0000              add [eax],al
00004F29  0000              add [eax],al
00004F2B  0000              add [eax],al
00004F2D  0000              add [eax],al
00004F2F  0000              add [eax],al
00004F31  0000              add [eax],al
00004F33  0000              add [eax],al
00004F35  0000              add [eax],al
00004F37  0000              add [eax],al
00004F39  0000              add [eax],al
00004F3B  0000              add [eax],al
00004F3D  0000              add [eax],al
00004F3F  0000              add [eax],al
00004F41  0000              add [eax],al
00004F43  0000              add [eax],al
00004F45  0000              add [eax],al
00004F47  0000              add [eax],al
00004F49  0000              add [eax],al
00004F4B  0000              add [eax],al
00004F4D  0000              add [eax],al
00004F4F  0000              add [eax],al
00004F51  0000              add [eax],al
00004F53  0000              add [eax],al
00004F55  0000              add [eax],al
00004F57  0000              add [eax],al
00004F59  0000              add [eax],al
00004F5B  0000              add [eax],al
00004F5D  0000              add [eax],al
00004F5F  0000              add [eax],al
00004F61  0000              add [eax],al
00004F63  0000              add [eax],al
00004F65  0000              add [eax],al
00004F67  0000              add [eax],al
00004F69  0000              add [eax],al
00004F6B  0000              add [eax],al
00004F6D  0000              add [eax],al
00004F6F  0000              add [eax],al
00004F71  0000              add [eax],al
00004F73  0000              add [eax],al
00004F75  0000              add [eax],al
00004F77  0000              add [eax],al
00004F79  0000              add [eax],al
00004F7B  0000              add [eax],al
00004F7D  0000              add [eax],al
00004F7F  0000              add [eax],al
00004F81  0000              add [eax],al
00004F83  0000              add [eax],al
00004F85  0000              add [eax],al
00004F87  0000              add [eax],al
00004F89  0000              add [eax],al
00004F8B  0000              add [eax],al
00004F8D  0000              add [eax],al
00004F8F  0000              add [eax],al
00004F91  0000              add [eax],al
00004F93  0000              add [eax],al
00004F95  0000              add [eax],al
00004F97  0000              add [eax],al
00004F99  0000              add [eax],al
00004F9B  0000              add [eax],al
00004F9D  0000              add [eax],al
00004F9F  0000              add [eax],al
00004FA1  0000              add [eax],al
00004FA3  0000              add [eax],al
00004FA5  0000              add [eax],al
00004FA7  0000              add [eax],al
00004FA9  0000              add [eax],al
00004FAB  0000              add [eax],al
00004FAD  0000              add [eax],al
00004FAF  0000              add [eax],al
00004FB1  0000              add [eax],al
00004FB3  0000              add [eax],al
00004FB5  0000              add [eax],al
00004FB7  0000              add [eax],al
00004FB9  0000              add [eax],al
00004FBB  0000              add [eax],al
00004FBD  0000              add [eax],al
00004FBF  0000              add [eax],al
00004FC1  0000              add [eax],al
00004FC3  0000              add [eax],al
00004FC5  0000              add [eax],al
00004FC7  0000              add [eax],al
00004FC9  0000              add [eax],al
00004FCB  0000              add [eax],al
00004FCD  0000              add [eax],al
00004FCF  0000              add [eax],al
00004FD1  0000              add [eax],al
00004FD3  0000              add [eax],al
00004FD5  0000              add [eax],al
00004FD7  0000              add [eax],al
00004FD9  0000              add [eax],al
00004FDB  0000              add [eax],al
00004FDD  0000              add [eax],al
00004FDF  0000              add [eax],al
00004FE1  0000              add [eax],al
00004FE3  0000              add [eax],al
00004FE5  0000              add [eax],al
00004FE7  0000              add [eax],al
00004FE9  0000              add [eax],al
00004FEB  0000              add [eax],al
00004FED  0000              add [eax],al
00004FEF  0000              add [eax],al
00004FF1  0000              add [eax],al
00004FF3  0000              add [eax],al
00004FF5  0000              add [eax],al
00004FF7  0000              add [eax],al
00004FF9  0000              add [eax],al
00004FFB  0000              add [eax],al
00004FFD  0000              add [eax],al
00004FFF  0020              add [eax],ah
00005001  2D616C6967        sub eax,0x67696c61
00005006  6E                outsb
00005007  636F6D            arpl [edi+0x6d],bp
0000500A  6D                insd
0000500B  3A22              cmp ah,[edx]
0000500D  5F                pop edi
0000500E  7061              jo 0x5071
00005010  67655F            gs pop edi
00005013  6469726563746F72  imul esi,[fs:edx+0x65],dword 0x726f7463
0000501B  7922              jns 0x503f
0000501D  2C31              sub al,0x31
0000501F  3220              xor ah,[eax]
00005021  2D616C6967        sub eax,0x67696c61
00005026  6E                outsb
00005027  636F6D            arpl [edi+0x6d],bp
0000502A  6D                insd
0000502B  3A22              cmp ah,[edx]
0000502D  5F                pop edi
0000502E  66697273745F      imul si,[edx+0x73],word 0x5f74
00005034  7061              jo 0x5097
00005036  67655F            gs pop edi
00005039  7461              jz 0x509c
0000503B  626C6522          bound ebp,[ebp+0x22]
0000503F  2C31              sub al,0x31
00005041  3200              xor al,[eax]
00005043  0020              add [eax],ah
00005045  2D616C6967        sub eax,0x67696c61
0000504A  6E                outsb
0000504B  636F6D            arpl [edi+0x6d],bp
0000504E  6D                insd
0000504F  3A22              cmp ah,[edx]
00005051  5F                pop edi
00005052  7669              jna 0x50bd
00005054  64656F            gs outsd
00005057  5F                pop edi
00005058  6D                insd
00005059  656D              gs insd
0000505B  6F                outsd
0000505C  7279              jc 0x50d7
0000505E  222C32            and ch,[edx+esi]
00005061  0000              add [eax],al
00005063  0020              add [eax],ah
00005065  2D616C6967        sub eax,0x67696c61
0000506A  6E                outsb
0000506B  636F6D            arpl [edi+0x6d],bp
0000506E  6D                insd
0000506F  3A22              cmp ah,[edx]
00005071  5F                pop edi
00005072  6764745F          fs jz 0x50d5
00005076  656E              gs outsb
00005078  7472              jz 0x50ec
0000507A  696573222C3520    imul esp,[ebp+0x73],dword 0x20352c22
00005081  2D616C6967        sub eax,0x67696c61
00005086  6E                outsb
00005087  636F6D            arpl [edi+0x6d],bp
0000508A  6D                insd
0000508B  3A22              cmp ah,[edx]
0000508D  5F                pop edi
0000508E  6764745F          fs jz 0x50f1
00005092  7074              jo 0x5108
00005094  7222              jc 0x50b8
00005096  2C32              sub al,0x32
00005098  202D616C6967      and [dword 0x67696c61],ch
0000509E  6E                outsb
0000509F  636F6D            arpl [edi+0x6d],bp
000050A2  6D                insd
000050A3  3A22              cmp ah,[edx]
000050A5  5F                pop edi
000050A6  6964745F656E7472  imul esp,[esp+esi*2+0x5f],dword 0x72746e65
000050AE  696573222C3520    imul esp,[ebp+0x73],dword 0x20352c22
000050B5  2D616C6967        sub eax,0x67696c61
000050BA  6E                outsb
000050BB  636F6D            arpl [edi+0x6d],bp
000050BE  6D                insd
000050BF  3A22              cmp ah,[edx]
000050C1  5F                pop edi
000050C2  6964745F70747222  imul esp,[esp+esi*2+0x5f],dword 0x22727470
000050CA  2C32              sub al,0x32
000050CC  202D616C6967      and [dword 0x67696c61],ch
000050D2  6E                outsb
000050D3  636F6D            arpl [edi+0x6d],bp
000050D6  6D                insd
000050D7  3A22              cmp ah,[edx]
000050D9  5F                pop edi
000050DA  696E7465727275    imul ebp,[esi+0x74],dword 0x75727265
000050E1  7074              jo 0x5157
000050E3  5F                pop edi
000050E4  68616E646C        push dword 0x6c646e61
000050E9  657273            gs jc 0x515f
000050EC  222C3500202D61    and ch,[esi+0x612d2000]
000050F3  6C                insb
000050F4  69676E636F6D6D    imul esp,[edi+0x6e],dword 0x6d6d6f63
000050FB  3A22              cmp ah,[edx]
000050FD  5F                pop edi
000050FE  6B65726E          imul esp,[ebp+0x72],byte +0x6e
00005102  656C              gs insb
00005104  5F                pop edi
00005105  7473              jz 0x517a
00005107  7322              jnc 0x512b
00005109  2C35              sub al,0x35
0000510B  0020              add [eax],ah
0000510D  2D616C6967        sub eax,0x67696c61
00005112  6E                outsb
00005113  636F6D            arpl [edi+0x6d],bp
00005116  6D                insd
00005117  3A22              cmp ah,[edx]
00005119  5F                pop edi
0000511A  6D                insd
0000511B  656D              gs insd
0000511D  5F                pop edi
0000511E  7374              jnc 0x5194
00005120  61                popa
00005121  7274              jc 0x5197
00005123  222C32            and ch,[edx+esi]
00005126  202D616C6967      and [dword 0x67696c61],ch
0000512C  6E                outsb
0000512D  636F6D            arpl [edi+0x6d],bp
00005130  6D                insd
00005131  3A22              cmp ah,[edx]
00005133  5F                pop edi
00005134  746F              jz 0x51a5
00005136  7461              jz 0x5199
00005138  6C                insb
00005139  5F                pop edi
0000513A  626C6F63          bound ebp,[edi+ebp*2+0x63]
0000513E  6B73222C          imul esi,[ebx+0x22],byte +0x2c
00005142  3220              xor ah,[eax]
00005144  2D616C6967        sub eax,0x67696c61
00005149  6E                outsb
0000514A  636F6D            arpl [edi+0x6d],bp
0000514D  6D                insd
0000514E  3A22              cmp ah,[edx]
00005150  5F                pop edi
00005151  626974            bound ebp,[ecx+0x74]
00005154  6D                insd
00005155  61                popa
00005156  705F              jo 0x51b7
00005158  7369              jnc 0x51c3
0000515A  7A65              jpe 0x51c1
0000515C  222C32            and ch,[edx+esi]
0000515F  00                db 0x00
